 s3c6410_Video

 Timestamp is 5125b29a (Thu Feb 21 13:37:30 2013)

 Preferred load address is 10000000

 Start         Length     Name                   Class
 0001:00000000 00000004H .CRT$XCA                CODE
 0001:00000004 00000004H .CRT$XCZ                CODE
 0001:00000008 00000004H .CRT$XIA                CODE
 0001:0000000c 00000004H .CRT$XIZ                CODE
 0001:00000010 00000004H .CRT$XPA                CODE
 0001:00000014 00000004H .CRT$XPZ                CODE
 0001:00000018 00000004H .CRT$XTA                CODE
 0001:0000001c 00000004H .CRT$XTZ                CODE
 0001:00000020 000048b8H .rdata                  CODE
 0001:000048d8 0000002aH .rdata$debug            CODE
 0001:00004904 000089f0H .text                   CODE
 0001:0000d2f8 00000098H .xdata                  CODE
 0001:0000d390 00000028H .idata$2                CODE
 0001:0000d3b8 00000014H .idata$3                CODE
 0001:0000d3cc 0000009cH .idata$4                CODE
 0001:0000d468 00000016H .idata$6                CODE
 0001:0000d480 000000d1H .edata                  CODE
 0002:00000000 0000009cH .idata$5                DATA
 0002:000000a0 00000880H .data                   DATA
 0002:00000920 0000086cH .bss                    DATA
 0003:00000000 00000520H .pdata                  DATA

  Address         Publics by Value              Rva+Base       Lib:Object

 0000:00000000       ___safe_se_handler_count   00000000     <absolute>
 0000:00000000       ___safe_se_handler_table   00000000     <absolute>
 0001:00000000       __xc_a                     10001000     corelib0:crt0init.obj
 0001:00000004       __xc_z                     10001004     corelib0:crt0init.obj
 0001:00000008       __xi_a                     10001008     corelib0:crt0init.obj
 0001:0000000c       __xi_z                     1000100c     corelib0:crt0init.obj
 0001:00000010       __xp_a                     10001010     corelib0:crt0init.obj
 0001:00000014       __xp_z                     10001014     corelib0:crt0init.obj
 0001:00000018       __xt_a                     10001018     corelib0:crt0init.obj
 0001:0000001c       __xt_z                     1000101c     corelib0:crt0init.obj
 0001:000000d0       ??_C@_1FG@FIPKELEO@?$AAV?$AAD?$AAE?$AA_?$AAS?$AAV?$AAE?$AAE?$AAI?$AAN?$AAG?$AAI?$AAN?$AAE?$AAc?$AAo?$AAn?$AAt?$AAe?$AAx?$AAt?$AA?3?$AA?5?$AAC?$AAo?$AAn?$AAt?$AAe?$AAx?$AAt?$AA?5?$AA0@ 100010d0     SVEngine.obj
 0001:00000128       ??_C@_1FA@LLIDEAKA@?$AA?$FL?$AAV?$AAD?$AAE?$AA?$FN?$AA?5?$AA?9?$AA?9?$AAS?$AAV?$AAE?$AA_?$AAi?$AAn?$AAi?$AAt?$AAi?$AAa?$AAl?$AAi?$AAz?$AAe?$AA_?$AAv?$AAi?$AAd?$AAe?$AAo?$AA_?$AAe?$AAn?$AAg@ 10001128     SVEngine.obj
 0001:00000178       ??_C@_1JM@MPFAJAOO@?$AA?$FL?$AAD?$AAI?$AAS?$AAP?$AAD?$AAR?$AAV?$AA1?$AA?$FN?$AA?5?$AAE?$AAr?$AAr?$AAo?$AAr?$AA?5?$AAg?$AAe?$AAt?$AAt?$AAi?$AAn?$AAg?$AA?5?$AAD?$AAi?$AAs?$AAp?$AAl?$AAa?$AAy@ 10001178     SVEngine.obj
 0001:00000218       ??_C@_1FA@OJFPBCMB@?$AA?$FL?$AAD?$AAI?$AAS?$AAP?$AAD?$AAR?$AAV?$AA1?$AA?$FN?$AA?5?$AAd?$AAi?$AAs?$AAp?$AAl?$AAa?$AAy?$AA?5?$AAd?$AAr?$AAi?$AAv?$AAe?$AAr?$AA?5?$AAd?$AAi?$AAs?$AAp?$AAl?$AAa@ 10001218     SVEngine.obj
 0001:00000268       ??_C@_1FA@FBHLPOCO@?$AA?$FL?$AAV?$AAD?$AAE?$AA?$FN?$AA?5?$AA?$CL?$AA?$CL?$AAS?$AAV?$AAE?$AA_?$AAi?$AAn?$AAi?$AAt?$AAi?$AAa?$AAl?$AAi?$AAz?$AAe?$AA_?$AAv?$AAi?$AAd?$AAe?$AAo?$AA_?$AAe?$AAn?$AAg@ 10001268     SVEngine.obj
 0001:000003d8       ??_C@_1M@NPGHCEML@?$AAP?$AAW?$AAC?$AA0?$AA?3?$AA?$AA@ 100013d8     Power.obj
 0001:00000868       ??_C@_1HM@PALEIDDK@?$AAV?$AAD?$AAE?$AA_?$AAI?$AAO?$AAC?$AAo?$AAn?$AAt?$AAr?$AAo?$AAl?$AA?3?$AA?5?$AAF?$AAa?$AAi?$AAl?$AAe?$AAd?$AA?5?$AAt?$AAo?$AA?5?$AAc?$AAr?$AAe?$AAa?$AAt?$AAe?$AA?5@ 10001868     video_driver.obj
 0001:000008e8       ??_C@_1HC@GHDMOCLA@?$AAV?$AAD?$AAE?$AA_?$AAI?$AAO?$AAC?$AAo?$AAn?$AAt?$AAr?$AAo?$AAl?$AA?3?$AA?5?$AAe?$AAx?$AAc?$AAe?$AAp?$AAt?$AAi?$AAo?$AAn?$AA?5?$AAi?$AAn?$AA?5?$AAI?$AAO?$AAC?$AAT@ 100018e8     video_driver.obj
 0001:00000960       ??_C@_1HG@BJBPFFAE@?$AAV?$AAD?$AAE?$AA_?$AAI?$AAO?$AAC?$AAo?$AAn?$AAt?$AAr?$AAo?$AAl?$AA?3?$AA?5?$AAe?$AAx?$AAc?$AAe?$AAp?$AAt?$AAi?$AAo?$AAn?$AA?5?$AAi?$AAn?$AA?5?$AAI?$AAO?$AAC?$AAT@ 10001960     video_driver.obj
 0001:000009d8       ??_C@_1IE@NJOLDOMO@?$AAV?$AAD?$AAE?$AA_?$AAI?$AAO?$AAC?$AAo?$AAn?$AAt?$AAr?$AAo?$AAl?$AA?3?$AA?5?$AAe?$AAx?$AAc?$AAe?$AAp?$AAt?$AAi?$AAo?$AAn?$AA?5?$AAi?$AAn?$AA?5?$AAI?$AAO?$AAC?$AAT@ 100019d8     video_driver.obj
 0001:00000a60       ??_C@_1GE@HEJHDLKG@?$AA?$FL?$AAD?$AAI?$AAS?$AAP?$AA?$FN?$AA?9?$AA?9?$AAD?$AAi?$AAs?$AAp?$AA_?$AAi?$AAn?$AAi?$AAt?$AAi?$AAa?$AAl?$AAi?$AAz?$AAe?$AA_?$AAr?$AAe?$AAg?$AAi?$AAs?$AAt?$AAe?$AAr@ 10001a60     s3c6410_disp_lib:s3c6410_display_con.obj
 0001:00000ac8       ??_C@_1JC@LKKAGJEB@?$AA?$FL?$AAD?$AAI?$AAS?$AAP?$AA?3?$AAE?$AAR?$AAR?$AA?$FN?$AA?5?$AAD?$AAi?$AAs?$AAp?$AA_?$AAi?$AAn?$AAi?$AAt?$AAi?$AAa?$AAl?$AAi?$AAz?$AAe?$AA_?$AAr?$AAe?$AAg?$AAi?$AAs@ 10001ac8     s3c6410_disp_lib:s3c6410_display_con.obj
 0001:00000b60       ??_C@_1EI@BNKGAFNA@?$AA?$FL?$AAD?$AAI?$AAS?$AAP?$AA?3?$AAI?$AAN?$AAF?$AA?$FN?$AA?5?$AAg?$AA_?$AAp?$AAD?$AAi?$AAs?$AAp?$AAC?$AAo?$AAn?$AAR?$AAe?$AAg?$AA?5?$AA?$DN?$AA?5?$AA0?$AAx?$AA?$CF?$AA0?$AA8@ 10001b60     s3c6410_disp_lib:s3c6410_display_con.obj
 0001:00000ba8       ??_C@_1EE@CKCNEGBB@?$AA?$FL?$AAD?$AAI?$AAS?$AAP?$AA?3?$AAI?$AAN?$AAF?$AA?$FN?$AA?5?$AAg?$AA_?$AAp?$AAM?$AAS?$AAM?$AAI?$AAF?$AAR?$AAe?$AAg?$AA?5?$AA?$DN?$AA?5?$AA0?$AAx?$AA?$CF?$AA0?$AA8?$AAx?$AA?6@ 10001ba8     s3c6410_disp_lib:s3c6410_display_con.obj
 0001:00000bf0       ??_C@_1EI@DEMCHPHL@?$AA?$FL?$AAD?$AAI?$AAS?$AAP?$AA?3?$AAI?$AAN?$AAF?$AA?$FN?$AA?5?$AAg?$AA_?$AAp?$AAG?$AAP?$AAI?$AAO?$AAR?$AAe?$AAg?$AA?5?$AA?5?$AA?5?$AA?5?$AA?$DN?$AA?5?$AA0?$AAx?$AA?$CF?$AA0?$AA8@ 10001bf0     s3c6410_disp_lib:s3c6410_display_con.obj
 0001:00000c38       ??_C@_1IG@GJMNKJMO@?$AA?$FL?$AAD?$AAI?$AAS?$AAP?$AA?$FN?$AA?$CL?$AA?$CL?$AAD?$AAi?$AAs?$AAp?$AA_?$AAi?$AAn?$AAi?$AAt?$AAi?$AAa?$AAl?$AAi?$AAz?$AAe?$AA_?$AAr?$AAe?$AAg?$AAi?$AAs?$AAt?$AAe?$AAr@ 10001c38     s3c6410_disp_lib:s3c6410_display_con.obj
 0001:00000cc0       ??_C@_1FO@LAHDDPPB@?$AA?$FL?$AAD?$AAI?$AAS?$AAP?$AA?$FN?$AA?9?$AA?9?$AAD?$AAi?$AAs?$AAp?$AA_?$AAs?$AAe?$AAt?$AA_?$AAo?$AAu?$AAt?$AAp?$AAu?$AAt?$AA_?$AAd?$AAe?$AAv?$AAi?$AAc?$AAe?$AA_?$AAi@ 10001cc0     s3c6410_disp_lib:s3c6410_display_con.obj
 0001:00000d20       ??_C@_1JG@BHJNKNGM@?$AA?$FL?$AAD?$AAI?$AAS?$AAP?$AA?3?$AAE?$AAR?$AAR?$AA?$FN?$AA?5?$AAD?$AAi?$AAs?$AAp?$AA_?$AAs?$AAe?$AAt?$AA_?$AAo?$AAu?$AAt?$AAp?$AAu?$AAt?$AA_?$AAd?$AAe?$AAv?$AAi?$AAc@ 10001d20     s3c6410_disp_lib:s3c6410_display_con.obj
 0001:00000db8       ??_C@_1GK@CMNMEIDL@?$AA?$FL?$AAD?$AAI?$AAS?$AAP?$AA?$FN?$AA?$CL?$AA?$CL?$AAD?$AAi?$AAs?$AAp?$AA_?$AAs?$AAe?$AAt?$AA_?$AAo?$AAu?$AAt?$AAp?$AAu?$AAt?$AA_?$AAd?$AAe?$AAv?$AAi?$AAc?$AAe?$AA_?$AAi@ 10001db8     s3c6410_disp_lib:s3c6410_display_con.obj
 0001:00000e28       ??_C@_1FG@HLGOGLPG@?$AA?$FL?$AAD?$AAI?$AAS?$AAP?$AA?$FN?$AA?9?$AA?9?$AAD?$AAi?$AAs?$AAp?$AA_?$AAs?$AAe?$AAt?$AA_?$AAo?$AAu?$AAt?$AAp?$AAu?$AAt?$AA_?$AAT?$AAV?$AA_?$AAi?$AAn?$AAf?$AAo?$AAr@ 10001e28     s3c6410_disp_lib:s3c6410_display_con.obj
 0001:00000e80       ??_C@_1MM@IANILFGD@?$AA?$FL?$AAD?$AAI?$AAS?$AAP?$AA?3?$AAE?$AAR?$AAR?$AA?$FN?$AA?5?$AAD?$AAi?$AAs?$AAp?$AA_?$AAs?$AAe?$AAt?$AA_?$AAo?$AAu?$AAt?$AAp?$AAu?$AAt?$AA_?$AAT?$AAV?$AA_?$AAi?$AAn@ 10001e80     s3c6410_disp_lib:s3c6410_display_con.obj
 0001:00000f50       ??_C@_1GC@DPAKKJHM@?$AA?$FL?$AAD?$AAI?$AAS?$AAP?$AA?$FN?$AA?$CL?$AA?$CL?$AAD?$AAi?$AAs?$AAp?$AA_?$AAs?$AAe?$AAt?$AA_?$AAo?$AAu?$AAt?$AAp?$AAu?$AAt?$AA_?$AAT?$AAV?$AA_?$AAi?$AAn?$AAf?$AAo?$AAr@ 10001f50     s3c6410_disp_lib:s3c6410_display_con.obj
 0001:00000fb8       ??_C@_1IK@FDLFAFL@?$AA?$FL?$AAD?$AAI?$AAS?$AAP?$AA?3?$AAE?$AAR?$AAR?$AA?$FN?$AA?5?$AAD?$AAi?$AAs?$AAp?$AA_?$AAs?$AAe?$AAt?$AA_?$AAw?$AAi?$AAn?$AAd?$AAo?$AAw?$AA_?$AAp?$AAo?$AAs?$AAi?$AAt@ 10001fb8     s3c6410_disp_lib:s3c6410_display_con.obj
 0001:00001048       ??_C@_1FO@GNCCPCHK@?$AA?$FL?$AAD?$AAI?$AAS?$AAP?$AA?$FN?$AA?$CL?$AA?$CL?$AAD?$AAi?$AAs?$AAp?$AA_?$AAs?$AAe?$AAt?$AA_?$AAw?$AAi?$AAn?$AAd?$AAo?$AAw?$AA_?$AAp?$AAo?$AAs?$AAi?$AAt?$AAi?$AAo?$AAn@ 10002048     s3c6410_disp_lib:s3c6410_display_con.obj
 0001:000010a8       ??_C@_1IC@FAGLBCCG@?$AA?$FL?$AAD?$AAI?$AAS?$AAP?$AA?3?$AAE?$AAR?$AAR?$AA?$FN?$AA?5?$AAD?$AAi?$AAs?$AAp?$AA_?$AAs?$AAe?$AAt?$AA_?$AAf?$AAr?$AAa?$AAm?$AAe?$AAb?$AAu?$AAf?$AAf?$AAe?$AAr?$AA?$CI@ 100020a8     s3c6410_disp_lib:s3c6410_display_con.obj
 0001:00001130       ??_C@_1FG@FPMPIKAK@?$AA?$FL?$AAD?$AAI?$AAS?$AAP?$AA?$FN?$AA?$CL?$AA?$CL?$AAD?$AAi?$AAs?$AAp?$AA_?$AAs?$AAe?$AAt?$AA_?$AAf?$AAr?$AAa?$AAm?$AAe?$AAb?$AAu?$AAf?$AAf?$AAe?$AAr?$AA?$CI?$AA?$CF?$AAd?$AA?0@ 10002130     s3c6410_disp_lib:s3c6410_display_con.obj
 0001:00001188       ??_C@_1EE@BBFIFNLA@?$AA?$FL?$AAD?$AAI?$AAS?$AAP?$AA?$FN?$AA?9?$AA?9?$AAD?$AAi?$AAs?$AAp?$AA_?$AAe?$AAn?$AAv?$AAi?$AAd?$AA_?$AAo?$AAn?$AAo?$AAf?$AAf?$AA?$CI?$AA?$CJ?$AA?5?$AA?3?$AA?5?$AA?$CF?$AAd?$AA?6@ 10002188     s3c6410_disp_lib:s3c6410_display_con.obj
 0001:000011d0       ??_C@_1HC@PHJBFECK@?$AA?$FL?$AAD?$AAI?$AAS?$AAP?$AA?3?$AAE?$AAR?$AAR?$AA?$FN?$AA?5?$AAD?$AAi?$AAs?$AAp?$AA_?$AAe?$AAn?$AAv?$AAi?$AAd?$AA_?$AAo?$AAn?$AAo?$AAf?$AAf?$AA?$CI?$AA?$CJ?$AA?5?$AA?3?$AA?5@ 100021d0     s3c6410_disp_lib:s3c6410_display_con.obj
 0001:00001244       ??_C@_1DO@DMDDKIID@?$AA?$FL?$AAD?$AAI?$AAS?$AAP?$AA?$FN?$AA?$CL?$AA?$CL?$AAD?$AAi?$AAs?$AAp?$AA_?$AAe?$AAn?$AAv?$AAi?$AAd?$AA_?$AAo?$AAn?$AAo?$AAf?$AAf?$AA?$CI?$AA?$CF?$AAs?$AA?$CJ?$AA?6?$AA?$AN?$AA?$AA@ 10002244     s3c6410_disp_lib:s3c6410_display_con.obj
 0001:00001284       ??_C@_03MPPIHBHJ@OFF?$AA@  10002284     s3c6410_disp_lib:s3c6410_display_con.obj
 0001:00001288       ??_C@_02BFICIOJL@ON?$AA@   10002288     s3c6410_disp_lib:s3c6410_display_con.obj
 0001:00001290       ??_C@_1EE@NIODNPAE@?$AA?$FL?$AAD?$AAI?$AAS?$AAP?$AA?$FN?$AA?$CL?$AA?$CL?$AAD?$AAi?$AAs?$AAp?$AA_?$AAg?$AAe?$AAt?$AA_?$AAe?$AAn?$AAv?$AAi?$AAd?$AA_?$AAs?$AAt?$AAa?$AAt?$AAu?$AAs?$AA?$CI?$AA?$CJ?$AA?6@ 10002290     s3c6410_disp_lib:s3c6410_display_con.obj
 0001:000012d8       ??_C@_1EI@GOMBBNGI@?$AA?$FL?$AAD?$AAI?$AAS?$AAP?$AA?$FN?$AA?9?$AA?9?$AAD?$AAi?$AAs?$AAp?$AA_?$AAw?$AAi?$AAn?$AAd?$AAo?$AAw?$AA_?$AAo?$AAn?$AAf?$AAo?$AAf?$AAf?$AA?$CI?$AA?$CJ?$AA?5?$AA?3?$AA?5?$AA?$CF@ 100022d8     s3c6410_disp_lib:s3c6410_display_con.obj
 0001:00001320       ??_C@_1HO@JKCBCOKM@?$AA?$FL?$AAD?$AAI?$AAS?$AAP?$AA?3?$AAE?$AAR?$AAR?$AA?$FN?$AA?5?$AAD?$AAi?$AAs?$AAp?$AA_?$AAw?$AAi?$AAn?$AAd?$AAo?$AAw?$AA_?$AAo?$AAn?$AAf?$AAo?$AAf?$AAf?$AA?$CI?$AA?$CJ?$AA?5@ 10002320     s3c6410_disp_lib:s3c6410_display_con.obj
 0001:000013a0       ??_C@_1IC@BPLBPEFA@?$AA?$FL?$AAD?$AAI?$AAS?$AAP?$AA?3?$AAE?$AAR?$AAR?$AA?$FN?$AA?5?$AAD?$AAi?$AAs?$AAp?$AA_?$AAw?$AAi?$AAn?$AAd?$AAo?$AAw?$AA_?$AAo?$AAn?$AAf?$AAo?$AAf?$AAf?$AA?$CI?$AA?$CJ?$AA?5@ 100023a0     s3c6410_disp_lib:s3c6410_display_con.obj
 0001:00001428       ??_C@_1EK@FANBMDND@?$AA?$FL?$AAD?$AAI?$AAS?$AAP?$AA?$FN?$AA?$CL?$AA?$CL?$AAD?$AAi?$AAs?$AAp?$AA_?$AAw?$AAi?$AAn?$AAd?$AAo?$AAw?$AA_?$AAo?$AAn?$AAf?$AAo?$AAf?$AAf?$AA?$CI?$AA?$CF?$AAd?$AA?0?$AA?5?$AA?$CF@ 10002428     s3c6410_disp_lib:s3c6410_display_con.obj
 0001:00001478       ??_C@_1EK@GFLCJPEC@?$AA?$FL?$AAD?$AAI?$AAS?$AAP?$AA?$FN?$AA?9?$AA?9?$AAD?$AAi?$AAs?$AAp?$AA_?$AAl?$AAo?$AAc?$AAa?$AAl?$AA_?$AAp?$AAa?$AAt?$AAh?$AA_?$AAo?$AAf?$AAf?$AA?$CI?$AA?$CJ?$AA?5?$AA?3?$AA?5@ 10002478     s3c6410_disp_lib:s3c6410_display_con.obj
 0001:000014c8       ??_C@_1IA@GOACJNKK@?$AA?$FL?$AAD?$AAI?$AAS?$AAP?$AA?3?$AAE?$AAR?$AAR?$AA?$FN?$AA?5?$AAD?$AAi?$AAs?$AAp?$AA_?$AAl?$AAo?$AAc?$AAa?$AAl?$AA_?$AAp?$AAa?$AAt?$AAh?$AA_?$AAo?$AAf?$AAf?$AA?$CI?$AA?$CJ@ 100024c8     s3c6410_disp_lib:s3c6410_display_con.obj
 0001:00001548       ??_C@_1EE@JPGLKJAD@?$AA?$FL?$AAD?$AAI?$AAS?$AAP?$AA?$FN?$AA?$CL?$AA?$CL?$AAD?$AAi?$AAs?$AAp?$AA_?$AAl?$AAo?$AAc?$AAa?$AAl?$AA_?$AAp?$AAa?$AAt?$AAh?$AA_?$AAo?$AAf?$AAf?$AA?$CI?$AA?$CF?$AAd?$AA?$CJ?$AA?6@ 10002548     s3c6410_disp_lib:s3c6410_display_con.obj
 0001:00001590       ??_C@_1EI@JMFGJJIN@?$AA?$FL?$AAD?$AAI?$AAS?$AAP?$AA?$FN?$AA?9?$AA?9?$AAD?$AAi?$AAs?$AAp?$AA_?$AAs?$AAe?$AAt?$AA_?$AAc?$AAo?$AAl?$AAo?$AAr?$AA_?$AAk?$AAe?$AAy?$AA?$CI?$AA?$CJ?$AA?5?$AA?3?$AA?5?$AA?$CF@ 10002590     s3c6410_disp_lib:s3c6410_display_con.obj
 0001:000015d8       ??_C@_1HO@NDFEMBML@?$AA?$FL?$AAD?$AAI?$AAS?$AAP?$AA?3?$AAE?$AAR?$AAR?$AA?$FN?$AA?5?$AAD?$AAi?$AAs?$AAp?$AA_?$AAs?$AAe?$AAt?$AA_?$AAc?$AAo?$AAl?$AAo?$AAr?$AA_?$AAk?$AAe?$AAy?$AA?$CI?$AA?$CJ?$AA?5@ 100025d8     s3c6410_disp_lib:s3c6410_display_con.obj
 0001:00001658       ??_C@_1HC@GLJLKLIB@?$AA?$FL?$AAD?$AAI?$AAS?$AAP?$AA?$FN?$AA?$CL?$AA?$CL?$AAD?$AAi?$AAs?$AAp?$AA_?$AAs?$AAe?$AAt?$AA_?$AAc?$AAo?$AAl?$AAo?$AAr?$AA_?$AAk?$AAe?$AAy?$AA?$CI?$AA?$CF?$AAd?$AA?0?$AA?5?$AA?$CF@ 10002658     s3c6410_disp_lib:s3c6410_display_con.obj
 0001:000016d0       ??_C@_1FC@BNLKLHAK@?$AA?$FL?$AAD?$AAI?$AAS?$AAP?$AA?$FN?$AA?9?$AA?9?$AAD?$AAi?$AAs?$AAp?$AA_?$AAs?$AAe?$AAt?$AA_?$AAa?$AAl?$AAp?$AAh?$AAa?$AA_?$AAb?$AAl?$AAe?$AAn?$AAd?$AAi?$AAn?$AAg?$AA?$CI@ 100026d0     s3c6410_disp_lib:s3c6410_display_con.obj
 0001:00001728       ??_C@_1II@GHJKDLCC@?$AA?$FL?$AAD?$AAI?$AAS?$AAP?$AA?3?$AAE?$AAR?$AAR?$AA?$FN?$AA?5?$AAD?$AAi?$AAs?$AAp?$AA_?$AAs?$AAe?$AAt?$AA_?$AAa?$AAl?$AAp?$AAh?$AAa?$AA_?$AAb?$AAl?$AAe?$AAn?$AAd?$AAi@ 10002728     s3c6410_disp_lib:s3c6410_display_con.obj
 0001:000017b0       ??_C@_1HE@FEOICCAO@?$AA?$FL?$AAD?$AAI?$AAS?$AAP?$AA?$FN?$AA?$CL?$AA?$CL?$AAD?$AAi?$AAs?$AAp?$AA_?$AAs?$AAe?$AAt?$AA_?$AAa?$AAl?$AAp?$AAh?$AAa?$AA_?$AAb?$AAl?$AAe?$AAn?$AAd?$AAi?$AAn?$AAg?$AA?$CI@ 100027b0     s3c6410_disp_lib:s3c6410_display_con.obj
 0001:00001828       ??_C@_1FE@CGFCMEOC@?$AA?$FL?$AAD?$AAI?$AAS?$AAP?$AA?$FN?$AA?9?$AA?9?$AAD?$AAi?$AAs?$AAp?$AA_?$AAs?$AAe?$AAt?$AA_?$AAf?$AAr?$AAa?$AAm?$AAe?$AA_?$AAi?$AAn?$AAt?$AAe?$AAr?$AAr?$AAu?$AAp?$AAt@ 10002828     s3c6410_disp_lib:s3c6410_display_con.obj
 0001:00001880       ??_C@_1IO@GEELFEEK@?$AA?$FL?$AAD?$AAI?$AAS?$AAP?$AA?3?$AAE?$AAR?$AAR?$AA?$FN?$AA?5?$AAD?$AAi?$AAs?$AAp?$AA_?$AAs?$AAe?$AAt?$AA_?$AAf?$AAr?$AAa?$AAm?$AAe?$AA_?$AAi?$AAn?$AAt?$AAe?$AAr?$AAr@ 10002880     s3c6410_disp_lib:s3c6410_display_con.obj
 0001:00001910       ??_C@_1EO@JJACJIND@?$AA?$FL?$AAD?$AAI?$AAS?$AAP?$AA?$FN?$AA?$CL?$AA?$CL?$AAD?$AAi?$AAs?$AAp?$AA_?$AAs?$AAe?$AAt?$AA_?$AAf?$AAr?$AAa?$AAm?$AAe?$AA_?$AAi?$AAn?$AAt?$AAe?$AAr?$AAr?$AAu?$AAp?$AAt@ 10002910     s3c6410_disp_lib:s3c6410_display_con.obj
 0001:00001960       ??_C@_1FA@PKPAJLNN@?$AA?$FL?$AAD?$AAI?$AAS?$AAP?$AA?$FN?$AA?$CL?$AA?$CL?$AAD?$AAi?$AAs?$AAp?$AA_?$AAe?$AAn?$AAa?$AAb?$AAl?$AAe?$AA_?$AAf?$AAr?$AAa?$AAm?$AAe?$AA_?$AAi?$AAn?$AAt?$AAe?$AAr?$AAr@ 10002960     s3c6410_disp_lib:s3c6410_display_con.obj
 0001:000019b0       ??_C@_1FK@LFPMBEGP@?$AA?$FL?$AAD?$AAI?$AAS?$AAP?$AA?$FN?$AA?9?$AA?9?$AAD?$AAi?$AAs?$AAp?$AA_?$AAe?$AAn?$AAa?$AAb?$AAl?$AAe?$AA_?$AAf?$AAr?$AAa?$AAm?$AAe?$AA_?$AAi?$AAn?$AAt?$AAe?$AAr?$AAr@ 100029b0     s3c6410_disp_lib:s3c6410_display_con.obj
 0001:00001a10       ??_C@_1FM@OHPFJMHI@?$AA?$FL?$AAD?$AAI?$AAS?$AAP?$AA?$FN?$AA?9?$AA?9?$AAD?$AAi?$AAs?$AAp?$AA_?$AAd?$AAi?$AAs?$AAa?$AAb?$AAl?$AAe?$AA_?$AAf?$AAr?$AAa?$AAm?$AAe?$AA_?$AAi?$AAn?$AAt?$AAe?$AAr@ 10002a10     s3c6410_disp_lib:s3c6410_display_con.obj
 0001:00001a70       ??_C@_1FC@DOMHHLFK@?$AA?$FL?$AAD?$AAI?$AAS?$AAP?$AA?$FN?$AA?$CL?$AA?$CL?$AAD?$AAi?$AAs?$AAp?$AA_?$AAd?$AAi?$AAs?$AAa?$AAb?$AAl?$AAe?$AA_?$AAf?$AAr?$AAa?$AAm?$AAe?$AA_?$AAi?$AAn?$AAt?$AAe?$AAr@ 10002a70     s3c6410_disp_lib:s3c6410_display_con.obj
 0001:00001ac8       ??_C@_1EA@HILIOFFC@?$AA?$FL?$AAD?$AAI?$AAS?$AAP?$AA?$FN?$AA?$CL?$AA?$CL?$AAD?$AAi?$AAs?$AAp?$AA_?$AAg?$AAe?$AAt?$AA_?$AAl?$AAi?$AAn?$AAe?$AA_?$AAc?$AAo?$AAu?$AAn?$AAt?$AA?$CI?$AA?$CJ?$AA?6?$AA?$AN?$AA?$AA@ 10002ac8     s3c6410_disp_lib:s3c6410_display_con.obj
 0001:00001b08       ??_C@_1GE@OANMCDOA@?$AA?$FL?$AAD?$AAI?$AAS?$AAP?$AA?$FN?$AA?9?$AA?9?$AAD?$AAi?$AAs?$AAp?$AA_?$AAg?$AAe?$AAt?$AA_?$AAl?$AAi?$AAn?$AAe?$AA_?$AAc?$AAo?$AAu?$AAn?$AAt?$AA?$CI?$AA?$CJ?$AA?5?$AA?3?$AA?5@ 10002b08     s3c6410_disp_lib:s3c6410_display_con.obj
 0001:00001b70       ??_C@_1FC@FCMCGHEC@?$AA?$FL?$AAD?$AAI?$AAS?$AAP?$AA?$FN?$AA?$CL?$AA?$CL?$AAD?$AAi?$AAs?$AAp?$AA_?$AAi?$AAn?$AAi?$AAt?$AAi?$AAa?$AAl?$AAi?$AAz?$AAe?$AA_?$AAp?$AAo?$AAr?$AAt?$AA_?$AAR?$AAG?$AAB@ 10002b70     s3c6410_disp_lib:s3c6410_display_con.obj
 0001:00001bc8       ??_C@_1FI@CCBJMEPB@?$AA?$FL?$AAD?$AAI?$AAS?$AAP?$AA?$FN?$AA?9?$AA?9?$AAD?$AAi?$AAs?$AAp?$AA_?$AAi?$AAn?$AAi?$AAt?$AAi?$AAa?$AAl?$AAi?$AAz?$AAe?$AA_?$AAp?$AAo?$AAr?$AAt?$AA_?$AAR?$AAG?$AAB@ 10002bc8     s3c6410_disp_lib:s3c6410_display_con.obj
 0001:00001c20       ??_C@_1EE@PLKOLJKK@?$AA?$FL?$AAD?$AAI?$AAS?$AAP?$AA?$FN?$AA?$CL?$AA?$CL?$AAD?$AAi?$AAs?$AAp?$AA_?$AAi?$AAn?$AAi?$AAt?$AAi?$AAa?$AAl?$AAi?$AAz?$AAe?$AA_?$AAT?$AAV?$AAE?$AAn?$AAc?$AA?$CI?$AA?$CJ?$AA?6@ 10002c20     s3c6410_disp_lib:s3c6410_display_con.obj
 0001:00001c68       ??_C@_1EO@ODNJBHAP@?$AA?$FL?$AAD?$AAI?$AAS?$AAP?$AA?$FN?$AA?9?$AA?9?$AAD?$AAi?$AAs?$AAp?$AA_?$AAi?$AAn?$AAi?$AAt?$AAi?$AAa?$AAl?$AAi?$AAz?$AAe?$AA_?$AAT?$AAV?$AAE?$AAn?$AAc?$AA?$CI?$AA?$CJ?$AA?5@ 10002c68     s3c6410_disp_lib:s3c6410_display_con.obj
 0001:00001cb8       ??_C@_1NE@DNJMFFHB@?$AA?$FL?$AAD?$AAI?$AAS?$AAP?$AA?3?$AAE?$AAR?$AAR?$AA?$FN?$AA?5?$AAD?$AAi?$AAs?$AAp?$AA_?$AAw?$AAi?$AAn?$AAd?$AAo?$AAw?$AA0?$AA_?$AAi?$AAn?$AAi?$AAt?$AAi?$AAa?$AAl?$AAi@ 10002cb8     s3c6410_disp_lib:s3c6410_display_con.obj
 0001:00001d90       ??_C@_1EO@GFLMIMPL@?$AA?$FL?$AAD?$AAI?$AAS?$AAP?$AA?$FN?$AA?5?$AAD?$AAi?$AAs?$AAp?$AA_?$AAw?$AAi?$AAn?$AAd?$AAo?$AAw?$AA0?$AA_?$AAb?$AAu?$AAr?$AAs?$AAt?$AA?5?$AAw?$AAi?$AAd?$AAt?$AAh?$AA?5@ 10002d90     s3c6410_disp_lib:s3c6410_display_con.obj
 0001:00001de0       ??_C@_1FC@CEBNFCIC@?$AA?$FL?$AAD?$AAI?$AAS?$AAP?$AA?$FN?$AA?9?$AA?9?$AAD?$AAi?$AAs?$AAp?$AA_?$AAw?$AAi?$AAn?$AAd?$AAo?$AAw?$AA0?$AA_?$AAi?$AAn?$AAi?$AAt?$AAi?$AAa?$AAl?$AAi?$AAz?$AAe?$AA?$CI@ 10002de0     s3c6410_disp_lib:s3c6410_display_con.obj
 0001:00001e38       ??_C@_1IG@JCJMCNBJ@?$AA?$FL?$AAD?$AAI?$AAS?$AAP?$AA?3?$AAE?$AAR?$AAR?$AA?$FN?$AA?5?$AAD?$AAi?$AAs?$AAp?$AA_?$AAw?$AAi?$AAn?$AAd?$AAo?$AAw?$AA0?$AA_?$AAi?$AAn?$AAi?$AAt?$AAi?$AAa?$AAl?$AAi@ 10002e38     s3c6410_disp_lib:s3c6410_display_con.obj
 0001:00001ec0       ??_C@_1IM@JLLCKNDJ@?$AA?$FL?$AAD?$AAI?$AAS?$AAP?$AA?3?$AAE?$AAR?$AAR?$AA?$FN?$AA?5?$AAD?$AAi?$AAs?$AAp?$AA_?$AAw?$AAi?$AAn?$AAd?$AAo?$AAw?$AA0?$AA_?$AAi?$AAn?$AAi?$AAt?$AAi?$AAa?$AAl?$AAi@ 10002ec0     s3c6410_disp_lib:s3c6410_display_con.obj
 0001:00001f50       ??_C@_1HE@MGGIDDIJ@?$AA?$FL?$AAD?$AAI?$AAS?$AAP?$AA?$FN?$AA?$CL?$AA?$CL?$AAD?$AAi?$AAs?$AAp?$AA_?$AAw?$AAi?$AAn?$AAd?$AAo?$AAw?$AA0?$AA_?$AAi?$AAn?$AAi?$AAt?$AAi?$AAa?$AAl?$AAi?$AAz?$AAe?$AA?$CI@ 10002f50     s3c6410_disp_lib:s3c6410_display_con.obj
 0001:00001fc8       ??_C@_1JM@FMPOPADO@?$AA?$FL?$AAD?$AAI?$AAS?$AAP?$AA?3?$AAE?$AAR?$AAR?$AA?$FN?$AA?5?$AAD?$AAi?$AAs?$AAp?$AA_?$AAw?$AAi?$AAn?$AAd?$AAo?$AAw?$AA1?$AA_?$AAi?$AAn?$AAi?$AAt?$AAi?$AAa?$AAl?$AAi@ 10002fc8     s3c6410_disp_lib:s3c6410_display_con.obj
 0001:00002068       ??_C@_1FC@ODFGKOA@?$AA?$FL?$AAD?$AAI?$AAS?$AAP?$AA?$FN?$AA?9?$AA?9?$AAD?$AAi?$AAs?$AAp?$AA_?$AAw?$AAi?$AAn?$AAd?$AAo?$AAw?$AA1?$AA_?$AAi?$AAn?$AAi?$AAt?$AAi?$AAa?$AAl?$AAi?$AAz?$AAe?$AA?$CI@ 10003068     s3c6410_disp_lib:s3c6410_display_con.obj
 0001:000020c0       ??_C@_1IG@HBJLBKGG@?$AA?$FL?$AAD?$AAI?$AAS?$AAP?$AA?3?$AAE?$AAR?$AAR?$AA?$FN?$AA?5?$AAD?$AAi?$AAs?$AAp?$AA_?$AAw?$AAi?$AAn?$AAd?$AAo?$AAw?$AA1?$AA_?$AAi?$AAn?$AAi?$AAt?$AAi?$AAa?$AAl?$AAi@ 100030c0     s3c6410_disp_lib:s3c6410_display_con.obj
 0001:00002148       ??_C@_1IM@EELECAPL@?$AA?$FL?$AAD?$AAI?$AAS?$AAP?$AA?3?$AAE?$AAR?$AAR?$AA?$FN?$AA?5?$AAD?$AAi?$AAs?$AAp?$AA_?$AAw?$AAi?$AAn?$AAd?$AAo?$AAw?$AA1?$AA_?$AAi?$AAn?$AAi?$AAt?$AAi?$AAa?$AAl?$AAi@ 10003148     s3c6410_disp_lib:s3c6410_display_con.obj
 0001:000021d8       ??_C@_1HE@DLMLCFKM@?$AA?$FL?$AAD?$AAI?$AAS?$AAP?$AA?$FN?$AA?$CL?$AA?$CL?$AAD?$AAi?$AAs?$AAp?$AA_?$AAw?$AAi?$AAn?$AAd?$AAo?$AAw?$AA1?$AA_?$AAi?$AAn?$AAi?$AAt?$AAi?$AAa?$AAl?$AAi?$AAz?$AAe?$AA?$CI@ 100031d8     s3c6410_disp_lib:s3c6410_display_con.obj
 0001:00002250       ??_C@_1JM@OPGKAHP@?$AA?$FL?$AAD?$AAI?$AAS?$AAP?$AA?3?$AAE?$AAR?$AAR?$AA?$FN?$AA?5?$AAD?$AAi?$AAs?$AAp?$AA_?$AAw?$AAi?$AAn?$AAd?$AAo?$AAw?$AA2?$AA_?$AAi?$AAn?$AAi?$AAt?$AAi?$AAa?$AAl?$AAi@ 10003250     s3c6410_disp_lib:s3c6410_display_con.obj
 0001:000022f0       ??_C@_1FC@HAENCCEG@?$AA?$FL?$AAD?$AAI?$AAS?$AAP?$AA?$FN?$AA?9?$AA?9?$AAD?$AAi?$AAs?$AAp?$AA_?$AAw?$AAi?$AAn?$AAd?$AAo?$AAw?$AA2?$AA_?$AAi?$AAn?$AAi?$AAt?$AAi?$AAa?$AAl?$AAi?$AAz?$AAe?$AA?$CI@ 100032f0     s3c6410_disp_lib:s3c6410_display_con.obj
 0001:00002348       ??_C@_1IG@IPODEFKG@?$AA?$FL?$AAD?$AAI?$AAS?$AAP?$AA?3?$AAE?$AAR?$AAR?$AA?$FN?$AA?5?$AAD?$AAi?$AAs?$AAp?$AA_?$AAw?$AAi?$AAn?$AAd?$AAo?$AAw?$AA2?$AA_?$AAi?$AAn?$AAi?$AAt?$AAi?$AAa?$AAl?$AAi@ 10003348     s3c6410_disp_lib:s3c6410_display_con.obj
 0001:000023d0       ??_C@_1IM@POMOLAPM@?$AA?$FL?$AAD?$AAI?$AAS?$AAP?$AA?3?$AAE?$AAR?$AAR?$AA?$FN?$AA?5?$AAD?$AAi?$AAs?$AAp?$AA_?$AAw?$AAi?$AAn?$AAd?$AAo?$AAw?$AA2?$AA_?$AAi?$AAn?$AAi?$AAt?$AAi?$AAa?$AAl?$AAi@ 100033d0     s3c6410_disp_lib:s3c6410_display_con.obj
 0001:00002460       ??_C@_1HE@OGFPBJIC@?$AA?$FL?$AAD?$AAI?$AAS?$AAP?$AA?$FN?$AA?$CL?$AA?$CL?$AAD?$AAi?$AAs?$AAp?$AA_?$AAw?$AAi?$AAn?$AAd?$AAo?$AAw?$AA2?$AA_?$AAi?$AAn?$AAi?$AAt?$AAi?$AAa?$AAl?$AAi?$AAz?$AAe?$AA?$CI@ 10003460     s3c6410_disp_lib:s3c6410_display_con.obj
 0001:000024d8       ??_C@_1FC@FKGFBKCE@?$AA?$FL?$AAD?$AAI?$AAS?$AAP?$AA?$FN?$AA?9?$AA?9?$AAD?$AAi?$AAs?$AAp?$AA_?$AAw?$AAi?$AAn?$AAd?$AAo?$AAw?$AA3?$AA_?$AAi?$AAn?$AAi?$AAt?$AAi?$AAa?$AAl?$AAi?$AAz?$AAe?$AA?$CI@ 100034d8     s3c6410_disp_lib:s3c6410_display_con.obj
 0001:00002530       ??_C@_1JM@DPAOJAEA@?$AA?$FL?$AAD?$AAI?$AAS?$AAP?$AA?3?$AAE?$AAR?$AAR?$AA?$FN?$AA?5?$AAD?$AAi?$AAs?$AAp?$AA_?$AAw?$AAi?$AAn?$AAd?$AAo?$AAw?$AA3?$AA_?$AAi?$AAn?$AAi?$AAt?$AAi?$AAa?$AAl?$AAi@ 10003530     s3c6410_disp_lib:s3c6410_display_con.obj
 0001:000025d0       ??_C@_1IG@GMOEHCNJ@?$AA?$FL?$AAD?$AAI?$AAS?$AAP?$AA?3?$AAE?$AAR?$AAR?$AA?$FN?$AA?5?$AAD?$AAi?$AAs?$AAp?$AA_?$AAw?$AAi?$AAn?$AAd?$AAo?$AAw?$AA3?$AA_?$AAi?$AAn?$AAi?$AAt?$AAi?$AAa?$AAl?$AAi@ 100035d0     s3c6410_disp_lib:s3c6410_display_con.obj
 0001:00002658       ??_C@_1HE@BLPMAPKH@?$AA?$FL?$AAD?$AAI?$AAS?$AAP?$AA?$FN?$AA?$CL?$AA?$CL?$AAD?$AAi?$AAs?$AAp?$AA_?$AAw?$AAi?$AAn?$AAd?$AAo?$AAw?$AA3?$AA_?$AAi?$AAn?$AAi?$AAt?$AAi?$AAa?$AAl?$AAi?$AAz?$AAe?$AA?$CI@ 10003658     s3c6410_disp_lib:s3c6410_display_con.obj
 0001:000026d0       ??_C@_1FC@IMLNLDAK@?$AA?$FL?$AAD?$AAI?$AAS?$AAP?$AA?$FN?$AA?9?$AA?9?$AAD?$AAi?$AAs?$AAp?$AA_?$AAw?$AAi?$AAn?$AAd?$AAo?$AAw?$AA4?$AA_?$AAi?$AAn?$AAi?$AAt?$AAi?$AAa?$AAl?$AAi?$AAz?$AAe?$AA?$CI@ 100036d0     s3c6410_disp_lib:s3c6410_display_con.obj
 0001:00002728       ??_C@_1JM@KKOGAAPN@?$AA?$FL?$AAD?$AAI?$AAS?$AAP?$AA?3?$AAE?$AAR?$AAR?$AA?$FN?$AA?5?$AAD?$AAi?$AAs?$AAp?$AA_?$AAw?$AAi?$AAn?$AAd?$AAo?$AAw?$AA4?$AA_?$AAi?$AAn?$AAi?$AAt?$AAi?$AAa?$AAl?$AAi@ 10003728     s3c6410_disp_lib:s3c6410_display_con.obj
 0001:000027c8       ??_C@_1IG@KIGCPMGH@?$AA?$FL?$AAD?$AAI?$AAS?$AAP?$AA?3?$AAE?$AAR?$AAR?$AA?$FN?$AA?5?$AAD?$AAi?$AAs?$AAp?$AA_?$AAw?$AAi?$AAn?$AAd?$AAo?$AAw?$AA4?$AA_?$AAi?$AAn?$AAi?$AAt?$AAi?$AAa?$AAl?$AAi@ 100037c8     s3c6410_disp_lib:s3c6410_display_con.obj
 0001:00002850       ??_C@_1HE@IGAGGHJP@?$AA?$FL?$AAD?$AAI?$AAS?$AAP?$AA?$FN?$AA?$CL?$AA?$CL?$AAD?$AAi?$AAs?$AAp?$AA_?$AAw?$AAi?$AAn?$AAd?$AAo?$AAw?$AA4?$AA_?$AAi?$AAn?$AAi?$AAt?$AAi?$AAa?$AAl?$AAi?$AAz?$AAe?$AA?$CI@ 10003850     s3c6410_disp_lib:s3c6410_display_con.obj
 0001:000028c8       ??_C@_1IO@CKLMPNJB@?$AA?$FL?$AAD?$AAI?$AAS?$AAP?$AA?3?$AAE?$AAR?$AAR?$AA?$FN?$AA?5?$AA?9?$AA?9?$AAD?$AAi?$AAs?$AAp?$AA_?$AAg?$AAe?$AAt?$AA_?$AAv?$AAc?$AAl?$AAk?$AA_?$AAd?$AAi?$AAr?$AAe?$AAc@ 100038c8     s3c6410_disp_lib:s3c6410_display_con.obj
 0001:00002958       ??_C@_1FK@JHFMBHIH@?$AA?$FL?$AAD?$AAI?$AAS?$AAP?$AA?$FN?$AA?5?$AA?9?$AA?9?$AAD?$AAi?$AAs?$AAp?$AA_?$AAg?$AAe?$AAt?$AA_?$AAv?$AAc?$AAl?$AAk?$AA_?$AAd?$AAi?$AAr?$AAe?$AAc?$AAt?$AAi?$AAo?$AAn@ 10003958     s3c6410_disp_lib:s3c6410_display_con.obj
 0001:000029b8       ??_C@_1IE@PIIAFMBF@?$AA?$FL?$AAD?$AAI?$AAS?$AAP?$AA?3?$AAI?$AAN?$AAF?$AA?$FN?$AA?5?$AAV?$AAC?$AAL?$AAK?$AA?5?$AAD?$AAi?$AAr?$AAe?$AAc?$AAt?$AAi?$AAo?$AAn?$AA?5?$AA?$DN?$AA?5?$AAD?$AAi?$AAv?$AAi@ 100039b8     s3c6410_disp_lib:s3c6410_display_con.obj
 0001:00002a40       ??_C@_1GG@DLKKIFLM@?$AA?$FL?$AAD?$AAI?$AAS?$AAP?$AA?3?$AAI?$AAN?$AAF?$AA?$FN?$AA?5?$AAV?$AAC?$AAL?$AAK?$AA?5?$AAD?$AAi?$AAr?$AAe?$AAc?$AAt?$AAi?$AAo?$AAn?$AA?5?$AA?$DN?$AA?5?$AAD?$AAi?$AAr?$AAe@ 10003a40     s3c6410_disp_lib:s3c6410_display_con.obj
 0001:00002aa8       ??_C@_1JG@JPHKDNBF@?$AA?$FL?$AAD?$AAI?$AAS?$AAP?$AA?3?$AAE?$AAR?$AAR?$AA?$FN?$AA?5?$AA?9?$AA?9?$AAD?$AAi?$AAs?$AAp?$AA_?$AAg?$AAe?$AAt?$AA_?$AAv?$AAc?$AAl?$AAk?$AA_?$AAd?$AAi?$AAr?$AAe?$AAc@ 10003aa8     s3c6410_disp_lib:s3c6410_display_con.obj
 0001:00002b40       ??_C@_1DC@OIAJHFMJ@?$AA?$FL?$AAD?$AAI?$AAS?$AAP?$AA?3?$AAE?$AAR?$AAR?$AA?$FN?$AA?5?$AA?5?$AAD?$AAi?$AAv?$AA?5?$AA?3?$AA?5?$AA?$CI?$AA?$CF?$AAd?$AA?$CJ?$AA?6?$AA?$AN?$AA?$AA@ 10003b40     s3c6410_disp_lib:s3c6410_display_con.obj
 0001:00002b78       ??_C@_1FO@DCFBJLC@?$AA?$FL?$AAD?$AAI?$AAS?$AAP?$AA?3?$AAI?$AAN?$AAF?$AA?$FN?$AA?5?$AAV?$AAC?$AAL?$AAK?$AAS?$AAr?$AAc?$AA?5?$AA?$DN?$AA?5?$AA?$CF?$AAd?$AA?0?$AA?5?$AAV?$AAC?$AAL?$AAK?$AA?5?$AA?$DN?$AA?5@ 10003b78     s3c6410_disp_lib:s3c6410_display_con.obj
 0001:00002bd8       ??_C@_1DK@NDCCDIGN@?$AA?$FL?$AAD?$AAI?$AAS?$AAP?$AA?3?$AAE?$AAR?$AAR?$AA?$FN?$AA?5?$AA?5?$AAH?$AAo?$AAz?$AAT?$AAi?$AAm?$AAe?$AA?5?$AA?3?$AA?5?$AA?$CI?$AA?$CF?$AAd?$AA?$CJ?$AA?6?$AA?$AN?$AA?$AA@ 10003bd8     s3c6410_disp_lib:s3c6410_display_con.obj
 0001:00002c14       ??_C@_1DM@EEFDJDLN@?$AA?$FL?$AAD?$AAI?$AAS?$AAP?$AA?3?$AAE?$AAR?$AAR?$AA?$FN?$AA?5?$AA?5?$AAv?$AAe?$AAr?$AAt?$AAT?$AAi?$AAm?$AAe?$AA?5?$AA?3?$AA?5?$AA?$CI?$AA?$CF?$AAd?$AA?$CJ?$AA?6?$AA?$AN?$AA?$AA@ 10003c14     s3c6410_disp_lib:s3c6410_display_con.obj
 0001:00002c50       ??_C@_1DE@LCLMDAEA@?$AA?$FL?$AAD?$AAI?$AAS?$AAP?$AA?3?$AAE?$AAR?$AAR?$AA?$FN?$AA?5?$AA?5?$AAV?$AAC?$AAL?$AAK?$AA?5?$AA?3?$AA?5?$AA?$CI?$AA?$CF?$AAd?$AA?$CJ?$AA?6?$AA?$AN?$AA?$AA@ 10003c50     s3c6410_disp_lib:s3c6410_display_con.obj
 0001:00002c84       ??_C@_1CO@BMBJNEOH@?$AA?$FL?$AAD?$AAI?$AAS?$AAP?$AA?3?$AAE?$AAR?$AAR?$AA?$FN?$AA?5?$AAb?$AA4?$AA?5?$AAs?$AAw?$AAi?$AAt?$AAc?$AAh?$AA?6?$AA?$AN?$AA?$AA@ 10003c84     s3c6410_disp_lib:s3c6410_display_con.obj
 0001:00002cb8       ??_C@_1FE@NMEPGLJE@?$AA?$FL?$AAD?$AAI?$AAS?$AAP?$AA?3?$AAI?$AAN?$AAF?$AA?$FN?$AA?5?$AAV?$AAC?$AAL?$AAK?$AA?5?$AAS?$AAo?$AAu?$AAr?$AAc?$AAe?$AA?5?$AA?$DN?$AA?5?$AAE?$AAX?$AAT?$AA2?$AA7?$AAM?$AA?5@ 10003cb8     s3c6410_disp_lib:s3c6410_display_con.obj
 0001:00002d10       ??_C@_1FE@PHCEANIA@?$AA?$FL?$AAD?$AAI?$AAS?$AAP?$AA?3?$AAI?$AAN?$AAF?$AA?$FN?$AA?5?$AAV?$AAC?$AAL?$AAK?$AA?5?$AAS?$AAo?$AAu?$AAr?$AAc?$AAe?$AA?5?$AA?$DN?$AA?5?$AAL?$AAC?$AAD?$AAC?$AAL?$AAK?$AA?5@ 10003d10     s3c6410_disp_lib:s3c6410_display_con.obj
 0001:00002d68       ??_C@_1FA@IJCJELCE@?$AA?$FL?$AAD?$AAI?$AAS?$AAP?$AA?3?$AAI?$AAN?$AAF?$AA?$FN?$AA?5?$AAV?$AAC?$AAL?$AAK?$AA?5?$AAS?$AAo?$AAu?$AAr?$AAc?$AAe?$AA?5?$AA?$DN?$AA?5?$AAH?$AAC?$AAL?$AAK?$AA?5?$AA?$CI?$AA?$CF@ 10003d68     s3c6410_disp_lib:s3c6410_display_con.obj
 0001:00002db8       ??_C@_1FM@NAPENHBO@?$AA?$FL?$AAD?$AAI?$AAS?$AAP?$AA?$FN?$AA?$CL?$AA?$CL?$AAD?$AAi?$AAs?$AAp?$AA_?$AAg?$AAe?$AAt?$AA_?$AAv?$AAc?$AAl?$AAk?$AA_?$AAd?$AAi?$AAr?$AAe?$AAc?$AAt?$AAi?$AAo?$AAn?$AA_@ 10003db8     s3c6410_disp_lib:s3c6410_display_con.obj
 0001:00002e18       ??_C@_1KA@LNLOJJH@?$AA?$FL?$AAD?$AAI?$AAS?$AAP?$AA?3?$AAE?$AAR?$AAR?$AA?$FN?$AA?5?$AA?9?$AA?9?$AAD?$AAi?$AAs?$AAp?$AA_?$AAg?$AAe?$AAt?$AA_?$AAv?$AAc?$AAl?$AAk?$AA_?$AAd?$AAi?$AAr?$AAe?$AAc@ 10003e18     s3c6410_disp_lib:s3c6410_display_con.obj
 0001:00002eb8       ??_C@_1GM@CIEEGHDB@?$AA?$FL?$AAD?$AAI?$AAS?$AAP?$AA?$FN?$AA?5?$AA?9?$AA?9?$AAD?$AAi?$AAs?$AAp?$AA_?$AAg?$AAe?$AAt?$AA_?$AAv?$AAc?$AAl?$AAk?$AA_?$AAd?$AAi?$AAr?$AAe?$AAc?$AAt?$AAi?$AAo?$AAn@ 10003eb8     s3c6410_disp_lib:s3c6410_display_con.obj
 0001:00002f28       ??_C@_1OK@PJHKEIPN@?$AA?$FL?$AAD?$AAI?$AAS?$AAP?$AA?3?$AAI?$AAN?$AAF?$AA?$FN?$AA?5?$AAD?$AAi?$AAs?$AAp?$AA_?$AAg?$AAe?$AAt?$AA_?$AAv?$AAc?$AAl?$AAk?$AA_?$AAd?$AAi?$AAr?$AAe?$AAc?$AAt?$AAi@ 10003f28     s3c6410_disp_lib:s3c6410_display_con.obj
 0001:00003018       ??_C@_1GO@DLLMKPBM@?$AA?$FL?$AAD?$AAI?$AAS?$AAP?$AA?$FN?$AA?$CL?$AA?$CL?$AAD?$AAi?$AAs?$AAp?$AA_?$AAg?$AAe?$AAt?$AA_?$AAv?$AAc?$AAl?$AAk?$AA_?$AAd?$AAi?$AAr?$AAe?$AAc?$AAt?$AAi?$AAo?$AAn?$AA_@ 10004018     s3c6410_disp_lib:s3c6410_display_con.obj
 0001:00003088       ??_C@_1EM@EBKKHHB@?$AA?$FL?$AAD?$AAI?$AAS?$AAP?$AA?$FN?$AA?9?$AA?9?$AAD?$AAi?$AAs?$AAp?$AA_?$AAs?$AAe?$AAt?$AA_?$AAw?$AAi?$AAn?$AAd?$AAo?$AAw?$AA_?$AAm?$AAo?$AAd?$AAe?$AA?$CI?$AA?$CJ?$AA?5?$AA?3@ 10004088     s3c6410_disp_lib:s3c6410_display_con.obj
 0001:000030d8       ??_C@_1IG@DCBBEGAK@?$AA?$FL?$AAD?$AAI?$AAS?$AAP?$AA?3?$AAE?$AAR?$AAR?$AA?$FN?$AA?5?$AAD?$AAi?$AAs?$AAp?$AA_?$AAs?$AAe?$AAt?$AA_?$AAw?$AAi?$AAn?$AAd?$AAo?$AAw?$AA_?$AAm?$AAo?$AAd?$AAe?$AA?$CI@ 100040d8     s3c6410_disp_lib:s3c6410_display_con.obj
 0001:00003160       ??_C@_1EG@LCMIBBIP@?$AA?$FL?$AAD?$AAI?$AAS?$AAP?$AA?$FN?$AA?$CL?$AA?$CL?$AAD?$AAi?$AAs?$AAp?$AA_?$AAs?$AAe?$AAt?$AA_?$AAw?$AAi?$AAn?$AAd?$AAo?$AAw?$AA_?$AAm?$AAo?$AAd?$AAe?$AA?$CI?$AA?$CF?$AAd?$AA?$CJ@ 10004160     s3c6410_disp_lib:s3c6410_display_con.obj
 0001:000031a8       ??_C@_1EO@KEGKKGNK@?$AA?$FL?$AAD?$AAI?$AAS?$AAP?$AA?$FN?$AA?9?$AA?9?$AAD?$AAi?$AAs?$AAp?$AA_?$AAi?$AAn?$AAi?$AAt?$AAi?$AAa?$AAl?$AAi?$AAz?$AAe?$AA_?$AAR?$AAG?$AAB?$AAI?$AAF?$AA?$CI?$AA?$CJ?$AA?5@ 100041a8     s3c6410_disp_lib:s3c6410_display_con.obj
 0001:000031f8       ??_C@_1II@KINNDNHE@?$AA?$FL?$AAD?$AAI?$AAS?$AAP?$AA?3?$AAE?$AAR?$AAR?$AA?$FN?$AA?5?$AAD?$AAi?$AAs?$AAp?$AA_?$AAi?$AAn?$AAi?$AAt?$AAi?$AAa?$AAl?$AAi?$AAz?$AAe?$AA_?$AAR?$AAG?$AAB?$AAI?$AAF@ 100041f8     s3c6410_disp_lib:s3c6410_display_con.obj
 0001:00003280       ??_C@_1DE@FPKGMODL@?$AA?$FL?$AAD?$AAI?$AAS?$AAP?$AA?$FN?$AA?5?$AAV?$AAC?$AAL?$AAK?$AAD?$AAi?$AAv?$AAi?$AAd?$AAe?$AAr?$AA?5?$AA?$CI?$AA?$CF?$AAd?$AA?$CJ?$AA?6?$AA?$AN?$AA?$AA@ 10004280     s3c6410_disp_lib:s3c6410_display_con.obj
 0001:000032b8       ??_C@_1EE@GLLOEIAD@?$AA?$FL?$AAD?$AAI?$AAS?$AAP?$AA?$FN?$AA?$CL?$AA?$CL?$AAD?$AAi?$AAs?$AAp?$AA_?$AAi?$AAn?$AAi?$AAt?$AAi?$AAa?$AAl?$AAi?$AAz?$AAe?$AA_?$AAR?$AAG?$AAB?$AAI?$AAF?$AA?$CI?$AA?$CJ?$AA?6@ 100042b8     s3c6410_disp_lib:s3c6410_display_con.obj
 0001:00003300       ??_C@_1GC@IAHABNJP@?$AA?$FL?$AAD?$AAI?$AAS?$AAP?$AA?$FN?$AA?9?$AA?9?$AAD?$AAi?$AAs?$AAp?$AA_?$AAi?$AAn?$AAi?$AAt?$AAi?$AAa?$AAl?$AAi?$AAz?$AAe?$AA_?$AAR?$AAG?$AAB?$AAI?$AAF?$AA_?$AAw?$AAi@ 10004300     s3c6410_disp_lib:s3c6410_display_con.obj
 0001:00003368       ??_C@_1JM@JBMEAPMH@?$AA?$FL?$AAD?$AAI?$AAS?$AAP?$AA?3?$AAE?$AAR?$AAR?$AA?$FN?$AA?5?$AAD?$AAi?$AAs?$AAp?$AA_?$AAi?$AAn?$AAi?$AAt?$AAi?$AAa?$AAl?$AAi?$AAz?$AAe?$AA_?$AAR?$AAG?$AAB?$AAI?$AAF@ 10004368     s3c6410_disp_lib:s3c6410_display_con.obj
 0001:00003408       ??_C@_1FI@LJMFPFNP@?$AA?$FL?$AAD?$AAI?$AAS?$AAP?$AA?$FN?$AA?$CL?$AA?$CL?$AAD?$AAi?$AAs?$AAp?$AA_?$AAi?$AAn?$AAi?$AAt?$AAi?$AAa?$AAl?$AAi?$AAz?$AAe?$AA_?$AAR?$AAG?$AAB?$AAI?$AAF?$AA_?$AAw?$AAi@ 10004408     s3c6410_disp_lib:s3c6410_display_con.obj
 0001:00003460       ??_C@_1GE@PPDMEBKH@?$AA?$FL?$AAD?$AAI?$AAS?$AAP?$AA?$FN?$AA?9?$AA?9?$AAD?$AAi?$AAs?$AAp?$AA_?$AAi?$AAn?$AAi?$AAt?$AAi?$AAa?$AAl?$AAi?$AAz?$AAe?$AA_?$AAo?$AAu?$AAt?$AAp?$AAu?$AAt?$AA_?$AAi@ 10004460     s3c6410_disp_lib:s3c6410_display_con.obj
 0001:000034c8       ??_C@_1FA@JPOHKEFG@?$AA?$FL?$AAD?$AAI?$AAS?$AAP?$AA?3?$AAI?$AAN?$AAF?$AA?$FN?$AA?5?$AAD?$AAi?$AAs?$AAp?$AA_?$AAi?$AAn?$AAi?$AAt?$AAi?$AAa?$AAl?$AAi?$AAz?$AAe?$AA_?$AAp?$AAo?$AAr?$AAt?$AA_@ 100044c8     s3c6410_disp_lib:s3c6410_display_con.obj
 0001:00003518       ??_C@_1EG@FAEGBPPK@?$AA?$FL?$AAD?$AAI?$AAS?$AAP?$AA?3?$AAI?$AAN?$AAF?$AA?$FN?$AA?5?$AAD?$AAi?$AAs?$AAp?$AA_?$AAi?$AAn?$AAi?$AAt?$AAi?$AAa?$AAl?$AAi?$AAz?$AAe?$AA_?$AAR?$AAG?$AAB?$AAI?$AAF@ 10004518     s3c6410_disp_lib:s3c6410_display_con.obj
 0001:00003560       ??_C@_1LC@OKJOEMOF@?$AA?$FL?$AAD?$AAI?$AAS?$AAP?$AA?3?$AAE?$AAR?$AAR?$AA?$FN?$AA?5?$AAD?$AAi?$AAs?$AAp?$AA_?$AAi?$AAn?$AAi?$AAt?$AAi?$AAa?$AAl?$AAi?$AAz?$AAe?$AA_?$AAo?$AAu?$AAt?$AAp?$AAu@ 10004560     s3c6410_disp_lib:s3c6410_display_con.obj
 0001:00003618       ??_C@_1KG@OBBOBCFG@?$AA?$FL?$AAD?$AAI?$AAS?$AAP?$AA?3?$AAE?$AAR?$AAR?$AA?$FN?$AA?5?$AAD?$AAi?$AAs?$AAp?$AA_?$AAi?$AAn?$AAi?$AAt?$AAi?$AAa?$AAl?$AAi?$AAz?$AAe?$AA_?$AAo?$AAu?$AAt?$AAp?$AAu@ 10004618     s3c6410_disp_lib:s3c6410_display_con.obj
 0001:000036c0       ??_C@_1FO@BKENGAED@?$AA?$FL?$AAD?$AAI?$AAS?$AAP?$AA?$FN?$AA?$CL?$AA?$CL?$AAD?$AAi?$AAs?$AAp?$AA_?$AAi?$AAn?$AAi?$AAt?$AAi?$AAa?$AAl?$AAi?$AAz?$AAe?$AA_?$AAo?$AAu?$AAt?$AAp?$AAu?$AAt?$AA_?$AAi@ 100046c0     s3c6410_disp_lib:s3c6410_display_con.obj
 0001:00003720       ??_C@_0P@OLMFJJKE@MegaDisplay?57A?$AA@ 10004720     s3c6410_ldi_lib:s3c6410_ldi.obj
 0001:00003730       ??_C@_0P@OJIDCHPN@MegaDisplay?54A?$AA@ 10004730     s3c6410_ldi_lib:s3c6410_ldi.obj
 0001:00003740       ??_C@_0P@OMMMDBHI@MegaDisplay?53A?$AA@ 10004740     s3c6410_ldi_lib:s3c6410_ldi.obj
 0001:00003750       ??_C@_02IHOKFKFD@TV?$AA@   10004750     s3c6410_ldi_lib:s3c6410_ldi.obj
 0001:00003754       ??_C@_0N@MNHBCMKH@VGA_1024x768?$AA@ 10004754     s3c6410_ldi_lib:s3c6410_ldi.obj
 0001:00003764       ??_C@_0M@GJHCBNAO@VGA_800x600?$AA@ 10004764     s3c6410_ldi_lib:s3c6410_ldi.obj
 0001:00003770       ??_C@_0M@CMKNLCBM@VGA_640x480?$AA@ 10004770     s3c6410_ldi_lib:s3c6410_ldi.obj
 0001:0000377c       ??_C@_0BA@OAJNNLGN@MegaDisplay?55HD?$AA@ 1000477c     s3c6410_ldi_lib:s3c6410_ldi.obj
 0001:0000378c       ??_C@_0BA@PAOOJHPM@MegaDisplay?55SD?$AA@ 1000478c     s3c6410_ldi_lib:s3c6410_ldi.obj
 0001:0000379c       ??_C@_0O@MKHEOKMD@MegaDisplay?57?$AA@ 1000479c     s3c6410_ldi_lib:s3c6410_ldi.obj
 0001:000037ac       ??_C@_0O@OBFJLJAA@MegaDisplay?54?$AA@ 100047ac     s3c6410_ldi_lib:s3c6410_ldi.obj
 0001:000037bc       ??_C@_0O@KOBICPMH@MegaDisplay?53?$AA@ 100047bc     s3c6410_ldi_lib:s3c6410_ldi.obj
 0001:000037cc       ??_C@_04OKGDLNCL@NONE?$AA@ 100047cc     s3c6410_ldi_lib:s3c6410_ldi.obj
 0001:000037d4       ??_C@_06DJKJCCMC@LP3303?$AA@ 100047d4     s3c6410_ldi_lib:s3c6410_ldi.obj
 0001:000037dc       ??_C@_06LMLJGLPA@direct?$AA@ 100047dc     s3c6410_ldi_lib:s3c6410_ldi.obj
 0001:000037e4       ??_C@_08GOJFCIDL@SM8121AH?$AA@ 100047e4     s3c6410_ldi_lib:s3c6410_ldi.obj
 0001:00003880       ??_C@_1JC@BNPIEBII@?$AA?$FL?$AAP?$AAO?$AAS?$AAT?$AA?3?$AAE?$AAR?$AAR?$AA?$FN?$AA?5?$AAP?$AAo?$AAs?$AAt?$AA_?$AAi?$AAn?$AAi?$AAt?$AAi?$AAa?$AAl?$AAi?$AAz?$AAe?$AA_?$AAr?$AAe?$AAg?$AAi?$AAs@ 10004880     s3c6410_post_lib:s3c6410_post_proc.obj
 0001:00003918       ??_C@_1HE@CBHHCOKM@?$AA?$FL?$AAP?$AAO?$AAS?$AAT?$AA?3?$AAE?$AAR?$AAR?$AA?$FN?$AA?5?$AAP?$AAo?$AAs?$AAt?$AA_?$AAs?$AAe?$AAt?$AA_?$AAm?$AAo?$AAd?$AAe?$AA?$CI?$AA?$CJ?$AA?5?$AA?3?$AA?5?$AAU?$AAn?$AAk@ 10004918     s3c6410_post_lib:s3c6410_post_proc.obj
 0001:00003990       ??_C@_1GK@NOPPJOJF@?$AA?$FL?$AAP?$AAO?$AAS?$AAT?$AA?3?$AAE?$AAR?$AAR?$AA?$FN?$AA?5?$AAP?$AAo?$AAs?$AAt?$AA_?$AAs?$AAe?$AAt?$AA_?$AAm?$AAo?$AAd?$AAe?$AA?$CI?$AA?$CJ?$AA?5?$AA?3?$AA?5?$AAU?$AAn?$AAk@ 10004990     s3c6410_post_lib:s3c6410_post_proc.obj
 0001:00003a00       ??_C@_1HI@MIIIAFPN@?$AA?$FL?$AAP?$AAO?$AAS?$AAT?$AA?3?$AAE?$AAR?$AAR?$AA?$FN?$AA?5?$AAP?$AAo?$AAs?$AAt?$AA_?$AAs?$AAe?$AAt?$AA_?$AAm?$AAo?$AAd?$AAe?$AA?$CI?$AA?$CJ?$AA?5?$AA?3?$AA?5?$AAU?$AAn?$AAk@ 10004a00     s3c6410_post_lib:s3c6410_post_proc.obj
 0001:00003a78       ??_C@_1GO@FDFMLJGD@?$AA?$FL?$AAP?$AAO?$AAS?$AAT?$AA?3?$AAE?$AAR?$AAR?$AA?$FN?$AA?5?$AAP?$AAo?$AAs?$AAt?$AA_?$AAs?$AAe?$AAt?$AA_?$AAm?$AAo?$AAd?$AAe?$AA?$CI?$AA?$CJ?$AA?5?$AA?3?$AA?5?$AAU?$AAn?$AAk@ 10004a78     s3c6410_post_lib:s3c6410_post_proc.obj
 0001:00003ae8       ??_C@_1HI@BCJAKCLM@?$AA?$FL?$AAP?$AAO?$AAS?$AAT?$AA?3?$AAE?$AAR?$AAR?$AA?$FN?$AA?5?$AAP?$AAo?$AAs?$AAt?$AA_?$AAg?$AAe?$AAt?$AA_?$AAp?$AAr?$AAe?$AAs?$AAc?$AAa?$AAl?$AAe?$AAr?$AA_?$AAs?$AAh@ 10004ae8     s3c6410_post_lib:s3c6410_post_proc.obj
 0001:00003b60       ??_C@_1HA@MOPJAIE@?$AA?$FL?$AAP?$AAO?$AAS?$AAT?$AA?3?$AAE?$AAR?$AAR?$AA?$FN?$AA?5?$AAP?$AAo?$AAs?$AAt?$AA_?$AAs?$AAe?$AAt?$AA_?$AAd?$AAm?$AAa?$AA_?$AAa?$AAd?$AAd?$AAr?$AAe?$AAs?$AAs?$AA?$CI@ 10004b60     s3c6410_post_lib:s3c6410_post_proc.obj
 0001:00003bd0       ??_C@_1HK@POMJJABD@?$AA?$FL?$AAP?$AAO?$AAS?$AAT?$AA?3?$AAE?$AAR?$AAR?$AA?$FN?$AA?5?$AAP?$AAo?$AAs?$AAt?$AA_?$AAs?$AAe?$AAt?$AA_?$AAd?$AAm?$AAa?$AA_?$AAa?$AAd?$AAd?$AAr?$AAe?$AAs?$AAs?$AA?$CI@ 10004bd0     s3c6410_post_lib:s3c6410_post_proc.obj
 0001:00003c50       ??_C@_1JA@LFKEMJPJ@?$AA?$FL?$AAP?$AAO?$AAS?$AAT?$AA?3?$AAE?$AAR?$AAR?$AA?$FN?$AA?5?$AAP?$AAo?$AAs?$AAt?$AA_?$AAs?$AAe?$AAt?$AA_?$AAd?$AAe?$AAs?$AAt?$AAi?$AAn?$AAa?$AAt?$AAi?$AAo?$AAn?$AA_@ 10004c50     s3c6410_post_lib:s3c6410_post_proc.obj
 0001:00003ce0       ??_C@_1JK@IJBFGJML@?$AA?$FL?$AAP?$AAO?$AAS?$AAT?$AA?3?$AAE?$AAR?$AAR?$AA?$FN?$AA?5?$AAP?$AAo?$AAs?$AAt?$AA_?$AAs?$AAe?$AAt?$AA_?$AAn?$AAe?$AAx?$AAt?$AA_?$AAd?$AAe?$AAs?$AAt?$AAi?$AAn?$AAa@ 10004ce0     s3c6410_post_lib:s3c6410_post_proc.obj
 0001:00003d80       ??_C@_1JG@GJCKEDHJ@?$AA?$FL?$AAR?$AAO?$AAT?$AA?3?$AAE?$AAR?$AAR?$AA?$FN?$AA?5?$AAR?$AAo?$AAt?$AAa?$AAt?$AAo?$AAr?$AA_?$AAi?$AAn?$AAi?$AAt?$AAi?$AAa?$AAl?$AAi?$AAz?$AAe?$AA_?$AAr?$AAe?$AAg@ 10004d80     s3c6410_image_rotator_lib:s3c6410_image_rotator.obj
 0001:00003e18       ??_C@_1HO@OHIDGHFG@?$AA?$FL?$AAR?$AAO?$AAT?$AA?3?$AAE?$AAR?$AAR?$AA?$FN?$AA?5?$AAR?$AAo?$AAt?$AAa?$AAt?$AAo?$AAr?$AA_?$AAi?$AAn?$AAi?$AAt?$AAi?$AAa?$AAl?$AAi?$AAz?$AAe?$AA?$CI?$AA?$CJ?$AA?5?$AA?3@ 10004e18     s3c6410_image_rotator_lib:s3c6410_image_rotator.obj
 0001:00003e98       ??_C@_1HK@BPLCKCEP@?$AA?$FL?$AAR?$AAO?$AAT?$AA?3?$AAE?$AAR?$AAR?$AA?$FN?$AA?5?$AAR?$AAo?$AAt?$AAa?$AAt?$AAo?$AAr?$AA_?$AAi?$AAn?$AAi?$AAt?$AAi?$AAa?$AAl?$AAi?$AAz?$AAe?$AA?$CI?$AA?$CJ?$AA?5?$AA?3@ 10004e98     s3c6410_image_rotator_lib:s3c6410_image_rotator.obj
 0001:00003f18       ??_C@_1MC@GMNFIIGG@?$AA?$FL?$AAR?$AAO?$AAT?$AA?3?$AAE?$AAR?$AAR?$AA?$FN?$AA?5?$AAR?$AAo?$AAt?$AAa?$AAt?$AAo?$AAr?$AA_?$AAs?$AAe?$AAt?$AA_?$AAs?$AAo?$AAu?$AAr?$AAc?$AAe?$AA_?$AAb?$AAu?$AAf@ 10004f18     s3c6410_image_rotator_lib:s3c6410_image_rotator.obj
 0001:00003fe0       ??_C@_1NG@CCKDBILC@?$AA?$FL?$AAR?$AAO?$AAT?$AA?3?$AAE?$AAR?$AAR?$AA?$FN?$AA?5?$AAR?$AAo?$AAt?$AAa?$AAt?$AAo?$AAr?$AA_?$AAs?$AAe?$AAt?$AA_?$AAd?$AAe?$AAs?$AAt?$AAi?$AAn?$AAa?$AAt?$AAi?$AAo@ 10004fe0     s3c6410_image_rotator_lib:s3c6410_image_rotator.obj
 0001:000040b8       ??_C@_1JC@BIDBKDFI@?$AA?$FL?$AAT?$AAV?$AAS?$AAC?$AA?3?$AAE?$AAR?$AAR?$AA?$FN?$AA?5?$AAT?$AAV?$AAS?$AAC?$AA_?$AAi?$AAn?$AAi?$AAt?$AAi?$AAa?$AAl?$AAi?$AAz?$AAe?$AA_?$AAr?$AAe?$AAg?$AAi?$AAs@ 100050b8     s3c6410_tv_scaler_lib:s3c6410_tv_scaler.obj
 0001:00004150       ??_C@_1HI@EBIFIIMF@?$AA?$FL?$AAT?$AAV?$AAS?$AAC?$AA?3?$AAE?$AAR?$AAR?$AA?$FN?$AA?5?$AAT?$AAV?$AAS?$AAC?$AA_?$AAs?$AAe?$AAt?$AA_?$AAm?$AAo?$AAd?$AAe?$AA?$CI?$AA?$CJ?$AA?5?$AA?3?$AA?5?$AAU?$AAn?$AAk@ 10005150     s3c6410_tv_scaler_lib:s3c6410_tv_scaler.obj
 0001:000041c8       ??_C@_1GO@FJMFJCJ@?$AA?$FL?$AAT?$AAV?$AAS?$AAC?$AA?3?$AAE?$AAR?$AAR?$AA?$FN?$AA?5?$AAT?$AAV?$AAS?$AAC?$AA_?$AAs?$AAe?$AAt?$AA_?$AAm?$AAo?$AAd?$AAe?$AA?$CI?$AA?$CJ?$AA?5?$AA?3?$AA?5?$AAU?$AAn?$AAk@ 100051c8     s3c6410_tv_scaler_lib:s3c6410_tv_scaler.obj
 0001:00004238       ??_C@_1GK@HBABCHIF@?$AA?$FL?$AAT?$AAV?$AAS?$AAC?$AA?3?$AAE?$AAR?$AAR?$AA?$FN?$AA?5?$AAT?$AAV?$AAS?$AAC?$AA_?$AAs?$AAe?$AAt?$AA_?$AAm?$AAo?$AAd?$AAe?$AA?$CI?$AA?$CJ?$AA?5?$AA?3?$AA?5?$AAU?$AAn?$AAk@ 10005238     s3c6410_tv_scaler_lib:s3c6410_tv_scaler.obj
 0001:000042a8       ??_C@_1HE@LJBMHMHN@?$AA?$FL?$AAT?$AAV?$AAS?$AAC?$AA?3?$AAE?$AAR?$AAR?$AA?$FN?$AA?5?$AAT?$AAV?$AAS?$AAC?$AA_?$AAs?$AAe?$AAt?$AA_?$AAm?$AAo?$AAd?$AAe?$AA?$CI?$AA?$CJ?$AA?5?$AA?3?$AA?5?$AAU?$AAn?$AAk@ 100052a8     s3c6410_tv_scaler_lib:s3c6410_tv_scaler.obj
 0001:00004320       ??_C@_1HI@JLJNCPIE@?$AA?$FL?$AAT?$AAV?$AAS?$AAC?$AA?3?$AAE?$AAR?$AAR?$AA?$FN?$AA?5?$AAT?$AAV?$AAS?$AAC?$AA_?$AAg?$AAe?$AAt?$AA_?$AAp?$AAr?$AAe?$AAs?$AAc?$AAa?$AAl?$AAe?$AAr?$AA_?$AAs?$AAh@ 10005320     s3c6410_tv_scaler_lib:s3c6410_tv_scaler.obj
 0001:00004398       ??_C@_1HA@KGHDIDLD@?$AA?$FL?$AAT?$AAV?$AAS?$AAC?$AA?3?$AAE?$AAR?$AAR?$AA?$FN?$AA?5?$AAT?$AAV?$AAS?$AAC?$AA_?$AAs?$AAe?$AAt?$AA_?$AAd?$AAm?$AAa?$AA_?$AAa?$AAd?$AAd?$AAr?$AAe?$AAs?$AAs?$AA?$CI@ 10005398     s3c6410_tv_scaler_lib:s3c6410_tv_scaler.obj
 0001:00004408       ??_C@_1HK@HKFPFKHI@?$AA?$FL?$AAT?$AAV?$AAS?$AAC?$AA?3?$AAE?$AAR?$AAR?$AA?$FN?$AA?5?$AAT?$AAV?$AAS?$AAC?$AA_?$AAs?$AAe?$AAt?$AA_?$AAd?$AAm?$AAa?$AA_?$AAa?$AAd?$AAd?$AAr?$AAe?$AAs?$AAs?$AA?$CI@ 10005408     s3c6410_tv_scaler_lib:s3c6410_tv_scaler.obj
 0001:00004488       ??_C@_1IG@MFOJBLII@?$AA?$FL?$AAT?$AAV?$AAS?$AAC?$AA?3?$AAE?$AAR?$AAR?$AA?$FN?$AA?5?$AAT?$AAV?$AAS?$AAC?$AA_?$AAs?$AAe?$AAt?$AA_?$AAs?$AAo?$AAu?$AAr?$AAc?$AAe?$AA_?$AAb?$AAu?$AAf?$AAf?$AAe@ 10005488     s3c6410_tv_scaler_lib:s3c6410_tv_scaler.obj
 0001:00004510       ??_C@_1JA@GEDDIFDA@?$AA?$FL?$AAT?$AAV?$AAS?$AAC?$AA?3?$AAE?$AAR?$AAR?$AA?$FN?$AA?5?$AAT?$AAV?$AAS?$AAC?$AA_?$AAs?$AAe?$AAt?$AA_?$AAn?$AAe?$AAx?$AAt?$AA_?$AAs?$AAo?$AAu?$AAr?$AAc?$AAe?$AA_@ 10005510     s3c6410_tv_scaler_lib:s3c6410_tv_scaler.obj
 0001:000045a0       ??_C@_1JA@MEHIIIK@?$AA?$FL?$AAT?$AAV?$AAS?$AAC?$AA?3?$AAE?$AAR?$AAR?$AA?$FN?$AA?5?$AAT?$AAV?$AAS?$AAC?$AA_?$AAs?$AAe?$AAt?$AA_?$AAd?$AAe?$AAs?$AAt?$AAi?$AAn?$AAa?$AAt?$AAi?$AAo?$AAn?$AA_@ 100055a0     s3c6410_tv_scaler_lib:s3c6410_tv_scaler.obj
 0001:00004630       ??_C@_1JK@OFDAGIOF@?$AA?$FL?$AAT?$AAV?$AAS?$AAC?$AA?3?$AAE?$AAR?$AAR?$AA?$FN?$AA?5?$AAT?$AAV?$AAS?$AAC?$AA_?$AAs?$AAe?$AAt?$AA_?$AAn?$AAe?$AAx?$AAt?$AA_?$AAd?$AAe?$AAs?$AAt?$AAi?$AAn?$AAa@ 10005630     s3c6410_tv_scaler_lib:s3c6410_tv_scaler.obj
 0001:000046d0       ??_C@_1JG@IEJDDMBK@?$AA?$FL?$AAT?$AAV?$AAE?$AAn?$AAc?$AA?3?$AAE?$AAR?$AAR?$AA?$FN?$AA?5?$AAT?$AAV?$AAE?$AAn?$AAc?$AA_?$AAi?$AAn?$AAi?$AAt?$AAi?$AAa?$AAl?$AAi?$AAz?$AAe?$AA_?$AAr?$AAe?$AAg@ 100056d0     s3c6410_tv_encoder_lib:s3c6410_tv_encoder.obj
 0001:00004768       ??_C@_1HM@KOGPMGCP@?$AA?$FL?$AAT?$AAV?$AAE?$AAn?$AAc?$AA?3?$AAE?$AAR?$AAR?$AA?$FN?$AA?5?$AAT?$AAV?$AAE?$AAn?$AAc?$AA_?$AAs?$AAe?$AAt?$AA_?$AAo?$AAu?$AAt?$AAp?$AAu?$AAt?$AA_?$AAm?$AAo?$AAd@ 10005768     s3c6410_tv_encoder_lib:s3c6410_tv_encoder.obj
 0001:000047e8       ??_C@_1HE@EMJBGOBF@?$AA?$FL?$AAT?$AAV?$AAE?$AAn?$AAc?$AA?3?$AAE?$AAR?$AAR?$AA?$FN?$AA?5?$AAT?$AAV?$AAE?$AAn?$AAc?$AA_?$AAs?$AAe?$AAt?$AA_?$AAo?$AAu?$AAt?$AAp?$AAu?$AAt?$AA_?$AAm?$AAo?$AAd@ 100057e8     s3c6410_tv_encoder_lib:s3c6410_tv_encoder.obj
 0001:00004860       ??_C@_1HI@DGOCEEKC@?$AA?$FL?$AAT?$AAV?$AAE?$AAn?$AAc?$AA?3?$AAE?$AAR?$AAR?$AA?$FN?$AA?5?$AAT?$AAV?$AAE?$AAn?$AAc?$AA_?$AAs?$AAe?$AAt?$AA_?$AAv?$AAi?$AAd?$AAe?$AAo?$AA_?$AAs?$AAi?$AAz?$AAe@ 10005860     s3c6410_tv_encoder_lib:s3c6410_tv_encoder.obj
 0001:00004904       SVE_get_context            10005904 f   SVEngine.obj
 0001:00004950       SVE_get_power_context      10005950 f   SVEngine.obj
 0001:0000495c       SVE_map_device_address     1000595c f   SVEngine.obj
 0001:00004ac0       SVE_unmap_device_address   10005ac0 f   SVEngine.obj
 0001:00004bd8       SVE_initialize_context     10005bd8 f   SVEngine.obj
 0001:00004cfc       SVE_deinitialize_context   10005cfc f   SVEngine.obj
 0001:00004d8c       SVE_get_api_function_code  10005d8c f   SVEngine.obj
 0001:00004d98       SVE_get_driver_signature   10005d98 f   SVEngine.obj
 0001:00004dac       SVE_add_open_context       10005dac f   SVEngine.obj
 0001:00004ddc       SVE_remove_open_context    10005ddc f   SVEngine.obj
 0001:00004e84       SVE_deinitialize_video_engine 10005e84 f   SVEngine.obj
 0001:00004ea8       SVE_initialize_video_engine 10005ea8 f   SVEngine.obj
 0001:00005020       SVE_initialize_interrupt   10006020 f   Interrupt.obj
 0001:00005204       SVE_deinitialize_interrupt 10006204 f   Interrupt.obj
 0001:0000536c       SVE_deinitialize_thread    1000636c f   Interrupt.obj
 0001:000053e4       SVE_DisplayIntrThread      100063e4 f   Interrupt.obj
 0001:000054e8       SVE_PostIntrThread         100064e8 f   Interrupt.obj
 0001:00005570       SVE_RotatorIntrThread      10006570 f   Interrupt.obj
 0001:000055e4       SVE_TVScalerIntrThread     100065e4 f   Interrupt.obj
 0001:0000566c       SVE_wait_disp_cmd_done     1000666c f   Interrupt.obj
 0001:00005688       SVE_wait_post_cmd_done     10006688 f   Interrupt.obj
 0001:000056a4       SVE_wait_tvsc_cmd_done     100066a4 f   Interrupt.obj
 0001:000056c0       SVE_wait_rotator_finish    100066c0 f   Interrupt.obj
 0001:000056dc       SVE_initialize_thread      100066dc f   Interrupt.obj
 0001:000057c4       SVE_initialize_power_context 100067c4 f   Power.obj
 0001:000058a4       SVE_deinitialize_power_context 100068a4 f   Power.obj
 0001:000058a8       SVE_initialize_power_control 100068a8 f   Power.obj
 0001:00005900       SVE_deinitialize_power_control 10006900 f   Power.obj
 0001:0000591c       SVE_hw_clock_control       1000691c f   Power.obj
 0001:00005b10       SVE_hw_power_control       10006b10 f   Power.obj
 0001:00006060       SVE_video_engine_power_on  10007060 f   Power.obj
 0001:0000653c       SVE_video_engine_power_off 1000753c f   Power.obj
 0001:00006618       SVE_resource_request_FIMD_interface 10007618 f   ResourceAPI.obj
 0001:00006678       SVE_resource_release_FIMD_interface 10007678 f   ResourceAPI.obj
 0001:000066d0       SVE_resource_compare_FIMD_interface 100076d0 f   ResourceAPI.obj
 0001:00006704       SVE_resource_request_FIMD_window 10007704 f   ResourceAPI.obj
 0001:00006748       SVE_resource_release_FIMD_window 10007748 f   ResourceAPI.obj
 0001:00006780       SVE_resource_compare_FIMD_window 10007780 f   ResourceAPI.obj
 0001:000067b0       SVE_resource_request_Post  100077b0 f   ResourceAPI.obj
 0001:00006810       SVE_resource_release_Post  10007810 f   ResourceAPI.obj
 0001:00006868       SVE_resource_compare_Post  10007868 f   ResourceAPI.obj
 0001:00006890       SVE_resource_request_Rotator 10007890 f   ResourceAPI.obj
 0001:000068f0       SVE_resource_release_Rotator 100078f0 f   ResourceAPI.obj
 0001:00006948       SVE_resource_compare_Rotator 10007948 f   ResourceAPI.obj
 0001:00006970       SVE_resource_request_TVScaler_TVEncoder 10007970 f   ResourceAPI.obj
 0001:000069d4       SVE_resource_release_TVScaler_TVEncoder 100079d4 f   ResourceAPI.obj
 0001:00006a30       SVE_resource_compare_TVScaler_TVEncoder 10007a30 f   ResourceAPI.obj
 0001:00006a58       SVE_Resource_API_Proc      10007a58 f   ResourceAPI.obj
 0001:00006b78       SVE_DispCon_API_Proc       10007b78 f   DispConAPI.obj
 0001:000071ac       SVE_Post_API_Proc          100081ac f   PostAPI.obj
 0001:000076a8       SVE_LocalPath_API_Proc     100086a8 f   LocalPathAPI.obj
 0001:0000782c       SVE_Rotator_API_Proc       1000882c f   RotatorAPI.obj
 0001:00007a6c       SVE_TVScaler_API_Proc      10008a6c f   TVScalerAPI.obj
 0001:00007f68       SVE_TVEncoder_API_Proc     10008f68 f   TVEncoderAPI.obj
 0001:000080d8       DllEntry                   100090d8 f   video_driver.obj
 0001:000080f8       VDE_Init                   100090f8 f   video_driver.obj
 0001:0000811c       VDE_Deinit                 1000911c f   video_driver.obj
 0001:00008148       VDE_Open                   10009148 f   video_driver.obj
 0001:00008174       VDE_Close                  10009174 f   video_driver.obj
 0001:00008184       VDE_Read                   10009184 f   video_driver.obj
 0001:0000818c       VDE_Write                  1000918c f   video_driver.obj
 0001:00008194       VDE_Seek                   10009194 f   video_driver.obj
 0001:000081a4       VDE_IOControl              100091a4 f   video_driver.obj
 0001:00008c14       Disp_initialize_register_address 10009c14 f   s3c6410_disp_lib:s3c6410_display_con.obj
 0001:00008ccc       Disp_set_output_device_information 10009ccc f   s3c6410_disp_lib:s3c6410_display_con.obj
 0001:00008d28       Disp_set_output_TV_information 10009d28 f   s3c6410_disp_lib:s3c6410_display_con.obj
 0001:00008e0c       Disp_set_window_position   10009e0c f   s3c6410_disp_lib:s3c6410_display_con.obj
 0001:00009028       Disp_set_framebuffer       1000a028 f   s3c6410_disp_lib:s3c6410_display_con.obj
 0001:0000924c       Disp_envid_onoff           1000a24c f   s3c6410_disp_lib:s3c6410_display_con.obj
 0001:00009300       Disp_get_envid_status      1000a300 f   s3c6410_disp_lib:s3c6410_display_con.obj
 0001:00009348       Disp_window_onfoff         1000a348 f   s3c6410_disp_lib:s3c6410_display_con.obj
 0001:000094d4       Disp_local_path_off        1000a4d4 f   s3c6410_disp_lib:s3c6410_display_con.obj
 0001:00009590       Disp_set_color_key         1000a590 f   s3c6410_disp_lib:s3c6410_display_con.obj
 0001:00009734       Disp_set_alpha_blending    1000a734 f   s3c6410_disp_lib:s3c6410_display_con.obj
 0001:000098c0       Disp_set_frame_interrupt   1000a8c0 f   s3c6410_disp_lib:s3c6410_display_con.obj
 0001:00009974       Disp_enable_frame_interrupt 1000a974 f   s3c6410_disp_lib:s3c6410_display_con.obj
 0001:000099c0       Disp_disable_frame_interrupt 1000a9c0 f   s3c6410_disp_lib:s3c6410_display_con.obj
 0001:00009a1c       Disp_clear_interrupt_pending 1000aa1c f   s3c6410_disp_lib:s3c6410_display_con.obj
 0001:00009a74       Disp_get_line_count        1000aa74 f   s3c6410_disp_lib:s3c6410_display_con.obj
 0001:00009ab4       Disp_get_vertical_status   1000aab4 f   s3c6410_disp_lib:s3c6410_display_con.obj
 0001:00009ad0       Disp_get_win_num_from_win_mode 1000aad0 f   s3c6410_disp_lib:s3c6410_display_con.obj
 0001:0000a870       Disp_Check_Vsync_Value     1000b870 f   s3c6410_disp_lib:s3c6410_display_con.obj
 0001:0000a8a4       Disp_VSync_Enable          1000b8a4 f   s3c6410_disp_lib:s3c6410_display_con.obj
 0001:0000a8dc       Disp_GetFlipStatus         1000b8dc f   s3c6410_disp_lib:s3c6410_display_con.obj
 0001:0000a8ec       Disp_set_window_mode       1000b8ec f   s3c6410_disp_lib:s3c6410_display_con.obj
 0001:0000ad98       Disp_initialize_output_interface 1000bd98 f   s3c6410_disp_lib:s3c6410_display_con.obj
 0001:0000ae70       LDI_getDisplayName         1000be70 f   s3c6410_ldi_lib:s3c6410_ldi.obj
 0001:0000ae94       LDI_initialize_register_address 1000be94 f   s3c6410_ldi_lib:s3c6410_ldi.obj
 0001:0000aeb8       LDI_set_LCD_module_type    1000beb8 f   s3c6410_ldi_lib:s3c6410_ldi.obj
 0001:0000aed0       LDI_fill_output_device_information 1000bed0 f   s3c6410_ldi_lib:s3c6410_ldi.obj
 0001:0000af9c       Post_initialize_register_address 1000bf9c f   s3c6410_post_lib:s3c6410_post_proc.obj
 0001:0000afe8       Post_processing_start      1000bfe8 f   s3c6410_post_lib:s3c6410_post_proc.obj
 0001:0000b018       Post_processing_stop       1000c018 f   s3c6410_post_lib:s3c6410_post_proc.obj
 0001:0000b048       Post_autoload_disable      1000c048 f   s3c6410_post_lib:s3c6410_post_proc.obj
 0001:0000b064       Post_get_processing_state  1000c064 f   s3c6410_post_lib:s3c6410_post_proc.obj
 0001:0000b084       Post_enable_interrupt      1000c084 f   s3c6410_post_lib:s3c6410_post_proc.obj
 0001:0000b0b4       Post_disable_interrupt     1000c0b4 f   s3c6410_post_lib:s3c6410_post_proc.obj
 0001:0000b0e4       Post_clear_interrupt_pending 1000c0e4 f   s3c6410_post_lib:s3c6410_post_proc.obj
 0001:0000b7fc       Post_initialize            1000c7fc f   s3c6410_post_lib:s3c6410_post_proc.obj
 0001:0000b8f0       Post_set_source_buffer     1000c8f0 f   s3c6410_post_lib:s3c6410_post_proc.obj
 0001:0000bac0       Post_set_next_source_buffer 1000cac0 f   s3c6410_post_lib:s3c6410_post_proc.obj
 0001:0000bae0       Post_set_destination_buffer 1000cae0 f   s3c6410_post_lib:s3c6410_post_proc.obj
 0001:0000bcd4       Post_set_next_destination_buffer 1000ccd4 f   s3c6410_post_lib:s3c6410_post_proc.obj
 0001:0000bd28       Rotator_initialize_register_address 1000cd28 f   s3c6410_image_rotator_lib:s3c6410_image_rotator.obj
 0001:0000bd64       Rotator_initialize         1000cd64 f   s3c6410_image_rotator_lib:s3c6410_image_rotator.obj
 0001:0000be90       Rotator_set_source_buffer  1000ce90 f   s3c6410_image_rotator_lib:s3c6410_image_rotator.obj
 0001:0000bf04       Rotator_set_destination_buffer 1000cf04 f   s3c6410_image_rotator_lib:s3c6410_image_rotator.obj
 0001:0000bf78       Rotator_start              1000cf78 f   s3c6410_image_rotator_lib:s3c6410_image_rotator.obj
 0001:0000bf94       Rotator_stop               1000cf94 f   s3c6410_image_rotator_lib:s3c6410_image_rotator.obj
 0001:0000bfb0       Rotator_enable_interrupt   1000cfb0 f   s3c6410_image_rotator_lib:s3c6410_image_rotator.obj
 0001:0000bfcc       Rotator_disable_interrupt  1000cfcc f   s3c6410_image_rotator_lib:s3c6410_image_rotator.obj
 0001:0000bfe8       Rotator_clear_interrupt_pending 1000cfe8 f   s3c6410_image_rotator_lib:s3c6410_image_rotator.obj
 0001:0000c008       TVSC_initialize_register_address 1000d008 f   s3c6410_tv_scaler_lib:s3c6410_tv_scaler.obj
 0001:0000c054       TVSC_processing_start      1000d054 f   s3c6410_tv_scaler_lib:s3c6410_tv_scaler.obj
 0001:0000c084       TVSC_processing_stop       1000d084 f   s3c6410_tv_scaler_lib:s3c6410_tv_scaler.obj
 0001:0000c0b8       TVSC_autoload_disable      1000d0b8 f   s3c6410_tv_scaler_lib:s3c6410_tv_scaler.obj
 0001:0000c0d4       TVSC_get_processing_state  1000d0d4 f   s3c6410_tv_scaler_lib:s3c6410_tv_scaler.obj
 0001:0000c0f4       TVSC_enable_interrupt      1000d0f4 f   s3c6410_tv_scaler_lib:s3c6410_tv_scaler.obj
 0001:0000c124       TVSC_disable_interrupt     1000d124 f   s3c6410_tv_scaler_lib:s3c6410_tv_scaler.obj
 0001:0000c154       TVSC_clear_interrupt_pending 1000d154 f   s3c6410_tv_scaler_lib:s3c6410_tv_scaler.obj
 0001:0000c8b8       TVSC_initialize            1000d8b8 f   s3c6410_tv_scaler_lib:s3c6410_tv_scaler.obj
 0001:0000c940       TVSC_set_source_buffer     1000d940 f   s3c6410_tv_scaler_lib:s3c6410_tv_scaler.obj
 0001:0000c98c       TVSC_set_next_source_buffer 1000d98c f   s3c6410_tv_scaler_lib:s3c6410_tv_scaler.obj
 0001:0000c9d8       TVSC_set_destination_buffer 1000d9d8 f   s3c6410_tv_scaler_lib:s3c6410_tv_scaler.obj
 0001:0000ca2c       TVSC_set_next_destination_buffer 1000da2c f   s3c6410_tv_scaler_lib:s3c6410_tv_scaler.obj
 0001:0000ca80       TVEnc_initialize_register_address 1000da80 f   s3c6410_tv_encoder_lib:s3c6410_tv_encoder.obj
 0001:0000cad0       TVEnc_output_onoff         1000dad0 f   s3c6410_tv_encoder_lib:s3c6410_tv_encoder.obj
 0001:0000caf8       TVEnc_get_output_state     1000daf8 f   s3c6410_tv_encoder_lib:s3c6410_tv_encoder.obj
 0001:0000cd04       TVEnc_initialize           1000dd04 f   s3c6410_tv_encoder_lib:s3c6410_tv_encoder.obj
 0001:0000cd9c       NKDbgPrintfW               1000dd9c f   coredll:COREDLL.dll
 0001:0000cdac       CreateEventW               1000ddac f   coredll:COREDLL.dll
 0001:0000cdbc       InitializeCriticalSection  1000ddbc f   coredll:COREDLL.dll
 0001:0000cdcc       CloseHandle                1000ddcc f   coredll:COREDLL.dll
 0001:0000cddc       DeleteCriticalSection      1000dddc f   coredll:COREDLL.dll
 0001:0000cdec       KernelIoControl            1000ddec f   coredll:COREDLL.dll
 0001:0000cdfc       EventModify                1000ddfc f   coredll:COREDLL.dll
 0001:0000ce0c       InterruptInitialize        1000de0c f   coredll:COREDLL.dll
 0001:0000ce1c       InterruptDisable           1000de1c f   coredll:COREDLL.dll
 0001:0000ce2c       InterruptDone              1000de2c f   coredll:COREDLL.dll
 0001:0000ce3c       WaitForSingleObject        1000de3c f   coredll:COREDLL.dll
 0001:0000ce4c       CeSetThreadPriority        1000de4c f   coredll:COREDLL.dll
 0001:0000ce5c       CreateThread               1000de5c f   coredll:COREDLL.dll
 0001:0000ce6c       CreateFileW                1000de6c f   coredll:COREDLL.dll
 0001:0000ce7c       DeviceIoControl            1000de7c f   coredll:COREDLL.dll
 0001:0000ce8c       LeaveCriticalSection       1000de8c f   coredll:COREDLL.dll
 0001:0000ce9c       EnterCriticalSection       1000de9c f   coredll:COREDLL.dll
 0001:0000ceac       Sleep                      1000deac f   coredll:COREDLL.dll
 0001:0000cebc       __GetUserKData             1000debc f   coredll:COREDLL.dll
 0001:0000cecc       RegisterDbgZones           1000decc f   coredll:COREDLL.dll
 0001:0000cedc       GetDirectCallerProcessId   1000dedc f   coredll:COREDLL.dll
 0001:0000ceec       SetLastError               1000deec f   coredll:COREDLL.dll
 0001:0000cefc       CeSafeCopyMemory           1000defc f   coredll:COREDLL.dll
 0001:0000cf0c       MmMapIoSpace               1000df0c f   ceddk:CEDDK.dll
 0001:0000cf1c       MmUnmapIoSpace             1000df1c f   ceddk:CEDDK.dll
 0001:0000cf2c       _DllEntryCRTStartup        1000df2c f   corelib0:pegdentry.obj
 0001:0000cf74       __GSHandlerCheck_SEH       1000df74 f   corelib0:gshandlerseh.obj
 0001:0000cfc4       __security_init_cookie     1000dfc4 f   corelib0:seccinit.obj
 0001:0000d020       __security_check_cookie    1000e020 f   corelib0:armsecgs.obj
 0001:0000d034       __gsfailure                1000e034 f   corelib0:armsecgs.obj
 0001:0000d174       _cexit                     1000e174 f   corelib0:cexit.obj
 0001:0000d190       _initterm                  1000e190 f   corelib0:crt0dat.obj
 0001:0000d1c4       _cinit                     1000e1c4 f   corelib0:crt0dat.obj
 0001:0000d1f8       __GSHandlerCheckCommon     1000e1f8 f   corelib0:gshandler.obj
 0001:0000d234       memcpy                     1000e234 f   corelib1:COREDLL.dll
 0001:0000d244       memset                     1000e244 f   corelib1:COREDLL.dll
 0001:0000d254       __rt_udiv                  1000e254 f   corelib1:COREDLL.dll
 0001:0000d264       __utod                     1000e264 f   corelib1:COREDLL.dll
 0001:0000d274       __divd                     1000e274 f   corelib1:COREDLL.dll
 0001:0000d284       __dtou                     1000e284 f   corelib1:COREDLL.dll
 0001:0000d294       __C_specific_handler       1000e294 f   corelib1:COREDLL.dll
 0001:0000d2a4       __security_gen_cookie2     1000e2a4 f   corelib1:COREDLL.dll
 0001:0000d2b4       __report_gsfailure         1000e2b4 f   corelib1:COREDLL.dll
 0001:0000d2c4       free                       1000e2c4 f   corelib1:COREDLL.dll
 0001:0000d2d4       InterlockedExchange        1000e2d4 f   coredll:COREDLL.dll
 0001:0000d2e4       TerminateProcess           1000e2e4 f   coredll:COREDLL.dll
 0001:0000d390       __IMPORT_DESCRIPTOR_COREDLL 1000e390     coredll:COREDLL.dll
 0001:0000d3a4       __IMPORT_DESCRIPTOR_CEDDK  1000e3a4     ceddk:CEDDK.dll
 0001:0000d3b8       __NULL_IMPORT_DESCRIPTOR   1000e3b8     coredll:COREDLL.dll
 0002:00000000       __imp_MmMapIoSpace         1000f000     ceddk:CEDDK.dll
 0002:00000004       __imp_MmUnmapIoSpace       1000f004     ceddk:CEDDK.dll
 0002:00000008       \177CEDDK_NULL_THUNK_DATA  1000f008     ceddk:CEDDK.dll
 0002:0000000c       __imp_CloseHandle          1000f00c     coredll:COREDLL.dll
 0002:00000010       __imp_DeleteCriticalSection 1000f010     coredll:COREDLL.dll
 0002:00000014       __imp_KernelIoControl      1000f014     coredll:COREDLL.dll
 0002:00000018       __imp_EventModify          1000f018     coredll:COREDLL.dll
 0002:0000001c       __imp_InterruptInitialize  1000f01c     coredll:COREDLL.dll
 0002:00000020       __imp_InterruptDisable     1000f020     coredll:COREDLL.dll
 0002:00000024       __imp_InterruptDone        1000f024     coredll:COREDLL.dll
 0002:00000028       __imp_WaitForSingleObject  1000f028     coredll:COREDLL.dll
 0002:0000002c       __imp_CeSetThreadPriority  1000f02c     coredll:COREDLL.dll
 0002:00000030       __imp_CreateThread         1000f030     coredll:COREDLL.dll
 0002:00000034       __imp_InitializeCriticalSection 1000f034     coredll:COREDLL.dll
 0002:00000038       __imp_DeviceIoControl      1000f038     coredll:COREDLL.dll
 0002:0000003c       __imp_LeaveCriticalSection 1000f03c     coredll:COREDLL.dll
 0002:00000040       __imp_EnterCriticalSection 1000f040     coredll:COREDLL.dll
 0002:00000044       __imp_Sleep                1000f044     coredll:COREDLL.dll
 0002:00000048       __imp___GetUserKData       1000f048     coredll:COREDLL.dll
 0002:0000004c       __imp_RegisterDbgZones     1000f04c     coredll:COREDLL.dll
 0002:00000050       __imp_GetDirectCallerProcessId 1000f050     coredll:COREDLL.dll
 0002:00000054       __imp_SetLastError         1000f054     coredll:COREDLL.dll
 0002:00000058       __imp_CeSafeCopyMemory     1000f058     coredll:COREDLL.dll
 0002:0000005c       __imp_CreateEventW         1000f05c     coredll:COREDLL.dll
 0002:00000060       __imp_CreateFileW          1000f060     coredll:COREDLL.dll
 0002:00000064       __imp_NKDbgPrintfW         1000f064     coredll:COREDLL.dll
 0002:00000068       __imp_memcpy               1000f068     corelib1:COREDLL.dll
 0002:0000006c       __imp_memset               1000f06c     corelib1:COREDLL.dll
 0002:00000070       __imp___rt_udiv            1000f070     corelib1:COREDLL.dll
 0002:00000074       __imp___utod               1000f074     corelib1:COREDLL.dll
 0002:00000078       __imp___divd               1000f078     corelib1:COREDLL.dll
 0002:0000007c       __imp___dtou               1000f07c     corelib1:COREDLL.dll
 0002:00000080       __imp___C_specific_handler 1000f080     corelib1:COREDLL.dll
 0002:00000084       __imp___security_gen_cookie2 1000f084     corelib1:COREDLL.dll
 0002:00000088       __imp___report_gsfailure   1000f088     corelib1:COREDLL.dll
 0002:0000008c       __imp_free                 1000f08c     corelib1:COREDLL.dll
 0002:00000090       __imp_InterlockedExchange  1000f090     coredll:COREDLL.dll
 0002:00000094       __imp_TerminateProcess     1000f094     coredll:COREDLL.dll
 0002:00000098       \177COREDLL_NULL_THUNK_DATA 1000f098     coredll:COREDLL.dll
 0002:000000a0       dpCurSettings              1000f0a0     video_driver.obj
 0002:000004e4       g_flipCompleted            1000f4e4     s3c6410_disp_lib:s3c6410_display_con.obj
 0002:00000918       __security_cookie          1000f918     corelib0:seccinit.obj
 0002:0000091c       __security_cookie_complement 1000f91c     corelib0:seccinit.obj
 0002:0000117c       _exitflag                  1001017c     corelib0:cexit.obj
 0002:00001180       __onexitend                10010180     <common>
 0002:00001184       __onexitbegin              10010184     <common>
 0002:00001188       g_pcsExit                  10010188     <common>

 entry point at        0001:0000cf2c

 Static symbols

 0001:00009b38       Disp_initialize_port_RGBIF 1000ab38 f   s3c6410_disp_lib:s3c6410_display_con.obj
 0001:00009bfc       Disp_initialize_TVEnc      1000abfc f   s3c6410_disp_lib:s3c6410_display_con.obj
 0001:00009d0c       Disp_window0_initialize    1000ad0c f   s3c6410_disp_lib:s3c6410_display_con.obj
 0001:00009f28       Disp_window1_initialize    1000af28 f   s3c6410_disp_lib:s3c6410_display_con.obj
 0001:0000a13c       Disp_window2_initialize    1000b13c f   s3c6410_disp_lib:s3c6410_display_con.obj
 0001:0000a350       Disp_window3_initialize    1000b350 f   s3c6410_disp_lib:s3c6410_display_con.obj
 0001:0000a4b4       Disp_window4_initialize    1000b4b4 f   s3c6410_disp_lib:s3c6410_display_con.obj
 0001:0000a618       Disp_get_vclk_direction_divider 1000b618 f   s3c6410_disp_lib:s3c6410_display_con.obj
 0001:0000aa4c       Disp_initialize_RGBIF      1000ba4c f   s3c6410_disp_lib:s3c6410_display_con.obj
 0001:0000ab9c       Disp_initialize_RGBIF_withTVEnc 1000bb9c f   s3c6410_disp_lib:s3c6410_display_con.obj
 0001:0000b110       Post_set_mode              1000c110 f   s3c6410_post_lib:s3c6410_post_proc.obj
 0001:0000b30c       Post_update_condition      1000c30c f   s3c6410_post_lib:s3c6410_post_proc.obj
 0001:0000b4dc       Post_set_dma_address       1000c4dc f   s3c6410_post_lib:s3c6410_post_proc.obj
 0001:0000c180       TVSC_set_mode              1000d180 f   s3c6410_tv_scaler_lib:s3c6410_tv_scaler.obj
 0001:0000c3b0       TVSC_update_condition      1000d3b0 f   s3c6410_tv_scaler_lib:s3c6410_tv_scaler.obj
 0001:0000c580       TVSC_set_dma_address       1000d580 f   s3c6410_tv_scaler_lib:s3c6410_tv_scaler.obj
 0001:0000cb18       TVEnc_set_output_mode      1000db18 f   s3c6410_tv_encoder_lib:s3c6410_tv_encoder.obj
 0001:0000d078       doexit                     1000e078 f   corelib0:cexit.obj
