 s3c6410_disp

 Timestamp is 5125b29b (Thu Feb 21 13:37:31 2013)

 Preferred load address is 10000000

 Start         Length     Name                   Class
 0001:00000000 00000004H .CRT$XCA                CODE
 0001:00000004 00000014H .CRT$XCU                CODE
 0001:00000018 00000004H .CRT$XCZ                CODE
 0001:0000001c 00000004H .CRT$XIA                CODE
 0001:00000020 00000004H .CRT$XIZ                CODE
 0001:00000024 00000004H .CRT$XPA                CODE
 0001:00000028 00000004H .CRT$XPZ                CODE
 0001:0000002c 00000004H .CRT$XTA                CODE
 0001:00000030 00000004H .CRT$XTZ                CODE
 0001:00000040 0000aa7aH .rdata                  CODE
 0001:0000aabc 00000029H .rdata$debug            CODE
 0001:0000ab00 0003e828H .text                   CODE
 0001:00049328 00000088H .text$yc                CODE
 0001:000493b0 00000110H .xdata                  CODE
 0001:000494c0 00000028H .idata$2                CODE
 0001:000494e8 00000014H .idata$3                CODE
 0001:000494fc 00000144H .idata$4                CODE
 0001:00049640 00000016H .idata$6                CODE
 0001:00049660 0000005cH .edata                  CODE
 0002:00000000 00003a14H fastmem                 CODE
 0003:00000000 00000144H .idata$5                DATA
 0003:00000148 0000c518H .data                   DATA
 0003:0000c660 00003ef4H .bss                    DATA
 0004:00000000 000011e0H .pdata                  DATA

  Address         Publics by Value              Rva+Base       Lib:Object

 0000:00000000       ___safe_se_handler_table   00000000     <absolute>
 0000:00000000       ___safe_se_handler_count   00000000     <absolute>
 0001:00000000       __xc_a                     10001000     corelib0:crt0init.obj
 0001:00000018       __xc_z                     10001018     corelib0:crt0init.obj
 0001:0000001c       __xi_a                     1000101c     corelib0:crt0init.obj
 0001:00000020       __xi_z                     10001020     corelib0:crt0init.obj
 0001:00000024       __xp_a                     10001024     corelib0:crt0init.obj
 0001:00000028       __xp_z                     10001028     corelib0:crt0init.obj
 0001:0000002c       __xt_a                     1000102c     corelib0:crt0init.obj
 0001:00000030       __xt_z                     10001030     corelib0:crt0init.obj
 0001:00000060       ??_C@_1PK@PMPPGEAM@?$AAL?$AAV?$AA?3?$AA?$CF?$AAd?$AA?0?$AA?5?$AAH?$AAW?$AA?3?$AA?$CF?$AAd?$AA?0?$AA?5?$AAB?$AAi?$AAt?$AAB?$AAl?$AAt?$AA?3?$AA?$CF?$AAd?$AA?0?$AA?5?$AAL?$AAi?$AAn?$AAe?$AA?3?$AA?$CF?$AAd@ 10001060     display_main.obj
 0001:00000160       ??_C@_1EI@JFBAPJAO@?$AAS?$AA3?$AAC?$AA6?$AA4?$AA1?$AA0?$AAD?$AAi?$AAs?$AAp?$AA?3?$AA?3?$AAG?$AAe?$AAt?$AAP?$AAh?$AAy?$AAs?$AAi?$AAc?$AAa?$AAl?$AAV?$AAi?$AAd?$AAe?$AAo?$AAM?$AAe?$AAm@ 10001160     display_main.obj
 0001:000001a8       ??_C@_1CC@ENIONJME@?$AA?$FL?$AAD?$AAI?$AAS?$AAP?$AAD?$AAR?$AAV?$AA?$FN?$AA?5?$AA?$CF?$AAs?$AA?$CI?$AA?$CJ?$AA?6?$AA?$AN?$AA?$AA@ 100011a8     display_main.obj
 0001:000001d0       ??_C@_1EG@JACNMOHF@?$AAS?$AA3?$AAC?$AA6?$AA4?$AA1?$AA0?$AAD?$AAi?$AAs?$AAp?$AA?3?$AA?3?$AAG?$AAe?$AAt?$AAV?$AAi?$AAr?$AAt?$AAu?$AAa?$AAl?$AAV?$AAi?$AAd?$AAe?$AAo?$AAM?$AAe?$AAm?$AAo@ 100011d0     display_main.obj
 0001:00000218       ??_C@_1DA@JNLHECFL@?$AA?$FL?$AAD?$AAI?$AAS?$AAP?$AAD?$AAR?$AAV?$AA?$FN?$AA?5?$AA?9?$AA?9?$AA?$CF?$AAs?$AA?$CI?$AA?$CJ?$AA?5?$AA?$DN?$AA?5?$AA?$CF?$AAd?$AA?6?$AA?$AN?$AA?$AA@ 10001218     display_main.obj
 0001:00000248       ??_C@_1HK@KJGGMHOM@?$AA?$FL?$AAD?$AAI?$AAS?$AAP?$AAD?$AAR?$AAV?$AA?3?$AAE?$AAR?$AAR?$AA?$FN?$AA?5?$AAG?$AAe?$AAt?$AAR?$AAo?$AAt?$AAa?$AAt?$AAe?$AAM?$AAo?$AAd?$AAe?$AAF?$AAr?$AAo?$AAm?$AAR@ 10001248     display_main.obj
 0001:000002c4       ??_C@_1M@FIJHFMPA@?$AAA?$AAN?$AAG?$AAL?$AAE?$AA?$AA@ 100012c4     display_main.obj
 0001:000002d0       ??_C@_1CI@PNCEGBJC@?$AAS?$AAY?$AAS?$AAT?$AAE?$AAM?$AA?2?$AAG?$AAD?$AAI?$AA?2?$AAR?$AAO?$AAT?$AAA?$AAT?$AAI?$AAO?$AAN?$AA?$AA@ 100012d0     display_main.obj
 0001:000002f8       ??_C@_1EE@PIILDFOE@?$AAS?$AA3?$AAC?$AA6?$AA4?$AA1?$AA0?$AAD?$AAi?$AAs?$AAp?$AA?3?$AA?3?$AAG?$AAe?$AAt?$AAR?$AAo?$AAt?$AAa?$AAt?$AAe?$AAM?$AAo?$AAd?$AAe?$AAF?$AAr?$AAo?$AAm?$AAR?$AAe@ 100012f8     display_main.obj
 0001:0000033c       ??_C@_1CG@HAKODMGI@?$AA?$FL?$AAD?$AAI?$AAS?$AAP?$AAD?$AAR?$AAV?$AA?$FN?$AA?5?$AA?$CL?$AA?$CL?$AA?$CF?$AAs?$AA?$CI?$AA?$CJ?$AA?6?$AA?$AN?$AA?$AA@ 1000133c     display_main.obj
 0001:00000364       ??_C@_1DK@MPMHFKIB@?$AAS?$AA3?$AAC?$AA6?$AA4?$AA1?$AA0?$AAD?$AAi?$AAs?$AAp?$AA?3?$AA?3?$AAS?$AAe?$AAt?$AAR?$AAo?$AAt?$AAa?$AAt?$AAe?$AAP?$AAa?$AAr?$AAa?$AAm?$AAs?$AA?$AA@ 10001364     display_main.obj
 0001:000003a0       ??_C@_1EE@FCNHKLOC@?$AA?$FL?$AAD?$AAI?$AAS?$AAP?$AAD?$AAR?$AAV?$AA?3?$AAI?$AAN?$AAF?$AA?$FN?$AA?5?$AA?$CF?$AAs?$AA?$CI?$AA?$CJ?$AA?5?$AA?3?$AA?5?$AAA?$AAn?$AAg?$AAl?$AAe?$AA?5?$AA?$DN?$AA?5?$AA?$CF?$AAd?$AA?6@ 100013a0     display_main.obj
 0001:000003e4       ??_C@_1CG@CNEDOJAJ@?$AA?$FL?$AAD?$AAI?$AAS?$AAP?$AAD?$AAR?$AAV?$AA?$FN?$AA?5?$AA?9?$AA?9?$AA?$CF?$AAs?$AA?$CI?$AA?$CJ?$AA?6?$AA?$AN?$AA?$AA@ 100013e4     display_main.obj
 0001:00000410       ??_C@_1IA@CMKPOEIC@?$AA?$FL?$AAD?$AAI?$AAS?$AAP?$AAD?$AAR?$AAV?$AA?3?$AAE?$AAR?$AAR?$AA?$FN?$AA?5?$AAD?$AAy?$AAn?$AAR?$AAo?$AAt?$AAa?$AAt?$AAe?$AA?$CI?$AA?$CJ?$AA?5?$AA?3?$AA?5?$AAC?$AAa?$AAn?$AA?5@ 10001410     display_main.obj
 0001:00000490       ??_C@_1CO@FNCNPANJ@?$AAS?$AA3?$AAC?$AA6?$AA4?$AA1?$AA0?$AAD?$AAi?$AAs?$AAp?$AA?3?$AA?3?$AAD?$AAy?$AAn?$AAR?$AAo?$AAt?$AAa?$AAt?$AAe?$AA?$AA@ 10001490     display_main.obj
 0001:000004c0       ??_C@_1CK@FHILMNBG@?$AA?$FL?$AAD?$AAI?$AAS?$AAP?$AAD?$AAR?$AAV?$AA?$FN?$AA?5?$AA?$CL?$AA?$CL?$AA?$CF?$AAs?$AA?$CI?$AA?$CF?$AAd?$AA?$CJ?$AA?6?$AA?$AN?$AA?$AA@ 100014c0     display_main.obj
 0001:000004ec       ??_C@_1CC@JKIFCKFO@?$AA?$FL?$AAD?$AAI?$AAS?$AAP?$AAD?$AAR?$AAV?$AA?$FN?$AA?5?$AA?9?$AA?9?$AA?$CF?$AAs?$AA?6?$AA?$AN?$AA?$AA@ 100014ec     display_main.obj
 0001:00000510       ??_C@_1GC@JGNDMKHI@?$AA?$FL?$AAD?$AAI?$AAS?$AAP?$AAD?$AAR?$AAV?$AA?3?$AAE?$AAR?$AAR?$AA?$FN?$AA?5?$AA?$CF?$AAs?$AA?5?$AA?3?$AA?5?$AAS?$AAu?$AAr?$AAf?$AAa?$AAc?$AAe?$AAH?$AAe?$AAa?$AAp?$AA?$CI?$AA?$CJ@ 10001510     display_main.obj
 0001:00000578       ??_C@_1FG@OPIBDNPN@?$AA?$FL?$AAD?$AAI?$AAS?$AAP?$AAD?$AAR?$AAV?$AA?3?$AAI?$AAN?$AAF?$AA?$FN?$AA?5?$AAm?$AA_?$AAV?$AAi?$AAd?$AAe?$AAo?$AAM?$AAe?$AAm?$AAo?$AAr?$AAy?$AAS?$AAi?$AAz?$AAe?$AA?5@ 10001578     display_main.obj
 0001:000005d0       ??_C@_1GE@OIFNLHFI@?$AA?$FL?$AAD?$AAI?$AAS?$AAP?$AAD?$AAR?$AAV?$AA?3?$AAI?$AAN?$AAF?$AA?$FN?$AA?5?$AAm?$AA_?$AAV?$AAi?$AAd?$AAe?$AAo?$AAM?$AAe?$AAm?$AAo?$AAr?$AAy?$AAV?$AAi?$AAr?$AAt?$AAu@ 100015d0     display_main.obj
 0001:00000638       ??_C@_1GG@NJAHIKKM@?$AA?$FL?$AAD?$AAI?$AAS?$AAP?$AAD?$AAR?$AAV?$AA?3?$AAI?$AAN?$AAF?$AA?$FN?$AA?5?$AAm?$AA_?$AAV?$AAi?$AAd?$AAe?$AAo?$AAM?$AAe?$AAm?$AAo?$AAr?$AAy?$AAP?$AAh?$AAy?$AAs?$AAi@ 10001638     display_main.obj
 0001:000006a0       ??_C@_1LO@CNFIMKAK@?$AA?$FL?$AAD?$AAI?$AAS?$AAP?$AAD?$AAR?$AAV?$AA?3?$AAE?$AAR?$AAR?$AA?$FN?$AA?5?$AAA?$AAl?$AAl?$AAo?$AAc?$AAR?$AAe?$AAs?$AAo?$AAu?$AAr?$AAc?$AAe?$AA?$CI?$AA?$CJ?$AA?5?$AA?3?$AA?5@ 100016a0     display_main.obj
 0001:00000760       ??_C@_1KK@GFILAPFF@?$AA?$FL?$AAD?$AAI?$AAS?$AAP?$AAD?$AAR?$AAV?$AA?3?$AAE?$AAR?$AAR?$AA?$FN?$AA?5?$AAA?$AAl?$AAl?$AAo?$AAc?$AAR?$AAe?$AAs?$AAo?$AAu?$AAr?$AAc?$AAe?$AA?$CI?$AA?$CJ?$AA?5?$AA?3?$AA?5@ 10001760     display_main.obj
 0001:00000810       ??_C@_1JC@PIFLPEDN@?$AA?$FL?$AAD?$AAI?$AAS?$AAP?$AAD?$AAR?$AAV?$AA?3?$AAE?$AAR?$AAR?$AA?$FN?$AA?5?$AAD?$AAe?$AAv?$AAI?$AAn?$AAi?$AAt?$AAi?$AAa?$AAl?$AAi?$AAz?$AAe?$AA?$CI?$AA?$CJ?$AA?5?$AA?3?$AA?5@ 10001810     display_main.obj
 0001:000008a8       ??_C@_1JM@HMJEKIDE@?$AA?$FL?$AAD?$AAI?$AAS?$AAP?$AAD?$AAR?$AAV?$AA?3?$AAE?$AAR?$AAR?$AA?$FN?$AA?5?$AAD?$AAe?$AAv?$AAI?$AAn?$AAi?$AAt?$AAi?$AAa?$AAl?$AAi?$AAz?$AAe?$AA?$CI?$AA?$CJ?$AA?5?$AA?3?$AA?5@ 100018a8     display_main.obj
 0001:00000948       ??_C@_1HE@MANDPLIL@?$AA?$FL?$AAD?$AAI?$AAS?$AAP?$AAD?$AAR?$AAV?$AA?3?$AAE?$AAR?$AAR?$AA?$FN?$AA?5?$AAA?$AAl?$AAl?$AAo?$AAc?$AAR?$AAe?$AAs?$AAo?$AAu?$AAr?$AAc?$AAe?$AA?$CI?$AA?$CJ?$AA?5?$AA?3?$AA?5@ 10001948     display_main.obj
 0001:000009bc       ??_C@_1M@DKKMLCEH@?$AAV?$AAD?$AAE?$AA0?$AA?3?$AA?$AA@ 100019bc     display_main.obj
 0001:000009c8       ??_C@_1HC@PDEAOEJC@?$AA?$FL?$AAD?$AAI?$AAS?$AAP?$AAD?$AAR?$AAV?$AA?3?$AAE?$AAR?$AAR?$AA?$FN?$AA?5?$AA?9?$AA?9?$AA?$CF?$AAs?$AA?5?$AA?3?$AA?5?$AAF?$AAa?$AAi?$AAl?$AAe?$AAd?$AA?0?$AA?5?$AAi?$AAo?$AAP@ 100019c8     display_main.obj
 0001:00000a3c       ??_C@_1DG@MLPHHIOF@?$AAS?$AA3?$AAC?$AA6?$AA4?$AA1?$AA0?$AAD?$AAi?$AAs?$AAp?$AA?3?$AA?3?$AAA?$AAl?$AAl?$AAo?$AAc?$AAR?$AAe?$AAs?$AAo?$AAu?$AAr?$AAc?$AAe?$AA?$AA@ 10001a3c     display_main.obj
 0001:00000a74       ??_C@_1CC@INHKMEAI@?$AA?$FL?$AAD?$AAI?$AAS?$AAP?$AAD?$AAR?$AAV?$AA?$FN?$AA?5?$AA?$CL?$AA?$CL?$AA?$CF?$AAs?$AA?6?$AA?$AN?$AA?$AA@ 10001a74     display_main.obj
 0001:00000a98       ??_C@_1KO@NGMNOOPD@?$AA?$FL?$AAD?$AAI?$AAS?$AAP?$AAD?$AAR?$AAV?$AA?3?$AAE?$AAR?$AAR?$AA?$FN?$AA?5?$AAT?$AAV?$AAO?$AAu?$AAt?$AAA?$AAl?$AAl?$AAo?$AAc?$AAR?$AAe?$AAs?$AAo?$AAu?$AAr?$AAc?$AAe@ 10001a98     display_main.obj
 0001:00000b48       ??_C@_1EA@HLGCNGCL@?$AAS?$AA3?$AAC?$AA6?$AA4?$AA1?$AA0?$AAD?$AAi?$AAs?$AAp?$AA?3?$AA?3?$AAT?$AAV?$AAO?$AAu?$AAt?$AAA?$AAl?$AAl?$AAo?$AAc?$AAR?$AAe?$AAs?$AAo?$AAu?$AAr?$AAc?$AAe?$AA?$AA@ 10001b48     display_main.obj
 0001:00000b88       ??_C@_1LC@LGJGIAFD@?$AA?$FL?$AAD?$AAI?$AAS?$AAP?$AAD?$AAR?$AAV?$AA?3?$AAE?$AAR?$AAR?$AA?$FN?$AA?5?$AAT?$AAV?$AAO?$AAu?$AAt?$AAR?$AAe?$AAl?$AAe?$AAa?$AAs?$AAe?$AAR?$AAe?$AAs?$AAo?$AAu?$AAr@ 10001b88     display_main.obj
 0001:00000c40       ??_C@_1EE@EKBAKHKN@?$AAS?$AA3?$AAC?$AA6?$AA4?$AA1?$AA0?$AAD?$AAi?$AAs?$AAp?$AA?3?$AA?3?$AAT?$AAV?$AAO?$AAu?$AAt?$AAR?$AAe?$AAl?$AAe?$AAa?$AAs?$AAe?$AAR?$AAe?$AAs?$AAo?$AAu?$AAr?$AAc@ 10001c40     display_main.obj
 0001:00000c84       ??_C@_1M@BAKKPHMH@?$AAB?$AAK?$AAL?$AA1?$AA?3?$AA?$AA@ 10001c84     display_main.obj
 0001:00000c90       ??_C@_1IA@CIGMKDFO@?$AA?$FL?$AAD?$AAI?$AAS?$AAP?$AAD?$AAR?$AAV?$AA?3?$AAE?$AAR?$AAR?$AA?$FN?$AA?5?$AAD?$AAe?$AAv?$AAP?$AAo?$AAw?$AAe?$AAr?$AAO?$AAn?$AA?$CI?$AA?$CJ?$AA?5?$AA?3?$AA?5?$AAI?$AAO?$AAC@ 10001c90     display_main.obj
 0001:00000d10       ??_C@_1DA@KFDBENLD@?$AAS?$AA3?$AAC?$AA6?$AA4?$AA1?$AA0?$AAD?$AAi?$AAs?$AAp?$AA?3?$AA?3?$AAD?$AAe?$AAv?$AAP?$AAo?$AAw?$AAe?$AAr?$AAO?$AAn?$AA?$AA@ 10001d10     display_main.obj
 0001:00000d40       ??_C@_1KK@PHEPLBJO@?$AA?$FL?$AAD?$AAI?$AAS?$AAP?$AAD?$AAR?$AAV?$AA?3?$AAE?$AAR?$AAR?$AA?$FN?$AA?5?$AAD?$AAe?$AAv?$AAP?$AAo?$AAw?$AAe?$AAr?$AAO?$AAf?$AAf?$AA?$CI?$AA?$CJ?$AA?5?$AA?3?$AA?5?$AAI?$AAO@ 10001d40     display_main.obj
 0001:00000dec       ??_C@_1DC@DFJLEPNF@?$AAS?$AA3?$AAC?$AA6?$AA4?$AA1?$AA0?$AAD?$AAi?$AAs?$AAp?$AA?3?$AA?3?$AAD?$AAe?$AAv?$AAP?$AAo?$AAw?$AAe?$AAr?$AAO?$AAf?$AAf?$AA?$AA@ 10001dec     display_main.obj
 0001:00000e20       ??_C@_1KA@JEGMICB@?$AA?$FL?$AAD?$AAI?$AAS?$AAP?$AAD?$AAR?$AAV?$AA?3?$AAE?$AAR?$AAR?$AA?$FN?$AA?5?$AAD?$AAe?$AAv?$AAO?$AAu?$AAt?$AAp?$AAu?$AAt?$AAE?$AAn?$AAa?$AAb?$AAl?$AAe?$AAR?$AAG?$AAB@ 10001e20     display_main.obj
 0001:00000ec0       ??_C@_1KC@INKIEGPL@?$AA?$FL?$AAD?$AAI?$AAS?$AAP?$AAD?$AAR?$AAV?$AA?3?$AAE?$AAR?$AAR?$AA?$FN?$AA?5?$AAD?$AAe?$AAv?$AAO?$AAu?$AAt?$AAp?$AAu?$AAt?$AAE?$AAn?$AAa?$AAb?$AAl?$AAe?$AAR?$AAG?$AAB@ 10001ec0     display_main.obj
 0001:00000f68       ??_C@_1KM@ONMNDOMM@?$AA?$FL?$AAD?$AAI?$AAS?$AAP?$AAD?$AAR?$AAV?$AA?3?$AAE?$AAR?$AAR?$AA?$FN?$AA?5?$AAD?$AAe?$AAv?$AAO?$AAu?$AAt?$AAp?$AAu?$AAt?$AAE?$AAn?$AAa?$AAb?$AAl?$AAe?$AAR?$AAG?$AAB@ 10001f68     display_main.obj
 0001:00001018       ??_C@_1JO@NNFLLPIF@?$AA?$FL?$AAD?$AAI?$AAS?$AAP?$AAD?$AAR?$AAV?$AA?3?$AAE?$AAR?$AAR?$AA?$FN?$AA?5?$AAD?$AAe?$AAv?$AAO?$AAu?$AAt?$AAp?$AAu?$AAt?$AAE?$AAn?$AAa?$AAb?$AAl?$AAe?$AAR?$AAG?$AAB@ 10002018     display_main.obj
 0001:000010b8       ??_C@_1IC@MDLNEBDD@?$AA?$FL?$AAD?$AAI?$AAS?$AAP?$AAD?$AAR?$AAV?$AA?3?$AAE?$AAR?$AAR?$AA?$FN?$AA?5?$AAD?$AAe?$AAv?$AAO?$AAu?$AAt?$AAp?$AAu?$AAt?$AAE?$AAn?$AAa?$AAb?$AAl?$AAe?$AAR?$AAG?$AAB@ 100020b8     display_main.obj
 0001:00001140       ??_C@_1KA@LPDDOBAJ@?$AA?$FL?$AAD?$AAI?$AAS?$AAP?$AAD?$AAR?$AAV?$AA?3?$AAE?$AAR?$AAR?$AA?$FN?$AA?5?$AAD?$AAe?$AAv?$AAO?$AAu?$AAt?$AAp?$AAu?$AAt?$AAE?$AAn?$AAa?$AAb?$AAl?$AAe?$AAR?$AAG?$AAB@ 10002140     display_main.obj
 0001:000011e0       ??_C@_1EE@IGGGLKJC@?$AAS?$AA3?$AAC?$AA6?$AA4?$AA1?$AA0?$AAD?$AAi?$AAs?$AAp?$AA?3?$AA?3?$AAD?$AAe?$AAv?$AAO?$AAu?$AAt?$AAp?$AAu?$AAt?$AAE?$AAn?$AAa?$AAb?$AAl?$AAe?$AAR?$AAG?$AAB?$AAI@ 100021e0     display_main.obj
 0001:00001228       ??_C@_1GG@EBLIPLPG@?$AA?$FL?$AAD?$AAI?$AAS?$AAP?$AAD?$AAR?$AAV?$AA?$FN?$AA?5?$AA?9?$AA?9?$AAS?$AA3?$AAC?$AA6?$AA4?$AA1?$AA0?$AAD?$AAi?$AAs?$AAp?$AA?3?$AA?3?$AAD?$AAe?$AAv?$AAO?$AAu?$AAt?$AAp@ 10002228     display_main.obj
 0001:00001290       ??_C@_1KG@MHPBICGN@?$AA?$FL?$AAD?$AAI?$AAS?$AAP?$AAD?$AAR?$AAV?$AA?3?$AAE?$AAR?$AAR?$AA?$FN?$AA?5?$AAD?$AAe?$AAv?$AAO?$AAu?$AAt?$AAp?$AAu?$AAt?$AAD?$AAi?$AAs?$AAa?$AAb?$AAl?$AAe?$AAR?$AAG@ 10002290     display_main.obj
 0001:00001338       ??_C@_1EG@PMFEGBGO@?$AAS?$AA3?$AAC?$AA6?$AA4?$AA1?$AA0?$AAD?$AAi?$AAs?$AAp?$AA?3?$AA?3?$AAD?$AAe?$AAv?$AAO?$AAu?$AAt?$AAp?$AAu?$AAt?$AAD?$AAi?$AAs?$AAa?$AAb?$AAl?$AAe?$AAR?$AAG?$AAB@ 10002338     display_main.obj
 0001:00001380       ??_C@_1KI@IDNFAACP@?$AA?$FL?$AAD?$AAI?$AAS?$AAP?$AAD?$AAR?$AAV?$AA?3?$AAE?$AAR?$AAR?$AA?$FN?$AA?5?$AAD?$AAe?$AAv?$AAG?$AAe?$AAt?$AAV?$AAe?$AAr?$AAt?$AAi?$AAc?$AAa?$AAl?$AAS?$AAt?$AAa?$AAt@ 10002380     display_main.obj
 0001:00001428       ??_C@_1KC@COAGCJFP@?$AA?$FL?$AAD?$AAI?$AAS?$AAP?$AAD?$AAR?$AAV?$AA?3?$AAE?$AAR?$AAR?$AA?$FN?$AA?5?$AAD?$AAe?$AAv?$AAG?$AAe?$AAt?$AAV?$AAe?$AAr?$AAt?$AAi?$AAc?$AAa?$AAl?$AAS?$AAt?$AAa?$AAt@ 10002428     display_main.obj
 0001:000014d0       ??_C@_1JG@NOAHHNHC@?$AA?$FL?$AAD?$AAI?$AAS?$AAP?$AAD?$AAR?$AAV?$AA?3?$AAE?$AAR?$AAR?$AA?$FN?$AA?5?$AAD?$AAe?$AAv?$AAG?$AAe?$AAt?$AAS?$AAc?$AAa?$AAn?$AAL?$AAi?$AAn?$AAe?$AA?$CI?$AA?$CJ?$AA?5?$AA?3@ 100024d0     display_main.obj
 0001:00001568       ??_C@_1GI@LBPPMOKF@?$AA?$HL?$AA?$CF?$AA0?$AA8?$AAl?$AAX?$AA?9?$AA?$CF?$AA0?$AA4?$AAX?$AA?9?$AA?$CF?$AA0?$AA4?$AAX?$AA?9?$AA?$CF?$AA0?$AA2?$AAX?$AA?$CF?$AA0?$AA2?$AAX?$AA?9?$AA?$CF?$AA0?$AA2?$AAX?$AA?$CF?$AA0@ 10002568     display_main.obj
 0001:000015d0       ??_C@_1FK@OFEMGGKK@?$AA?$FL?$AAD?$AAI?$AAS?$AAP?$AAD?$AAR?$AAV?$AA?$FN?$AA?5?$AA?9?$AA?9?$AAA?$AAd?$AAv?$AAe?$AAr?$AAt?$AAi?$AAs?$AAe?$AAP?$AAo?$AAw?$AAe?$AAr?$AAI?$AAn?$AAt?$AAe?$AAr?$AAf@ 100025d0     display_main.obj
 0001:0000162c       ??_C@_1CE@LGAKADBG@?$AAD?$AAi?$AAs?$AAp?$AAl?$AAa?$AAy?$AAP?$AAo?$AAw?$AAe?$AAr?$AAC?$AAl?$AAa?$AAs?$AAs?$AA?$AA@ 1000262c     display_main.obj
 0001:00001650       ??_C@_1EO@BHDHHEGO@?$AA?$HL?$AAE?$AAB?$AA9?$AA1?$AAC?$AA7?$AAC?$AA9?$AA?9?$AA8?$AAB?$AAF?$AA6?$AA?9?$AA4?$AAa?$AA2?$AAd?$AA?9?$AA9?$AAA?$AAB?$AA8?$AA?9?$AA6?$AA9?$AA7?$AA2?$AA4?$AAE?$AAE@ 10002650     display_main.obj
 0001:000016a0       ??_C@_1CG@BEPCNIEH@?$AAS?$AAy?$AAs?$AAt?$AAe?$AAm?$AA?2?$AAG?$AAD?$AAI?$AA?2?$AAD?$AAr?$AAi?$AAv?$AAe?$AAr?$AAs?$AA?$AA@ 100026a0     display_main.obj
 0001:000016c8       ??_C@_1FA@IMFEDEIJ@?$AA?$FL?$AAD?$AAI?$AAS?$AAP?$AAD?$AAR?$AAV?$AA?$FN?$AA?5?$AA?$CL?$AA?$CL?$AAA?$AAd?$AAv?$AAe?$AAr?$AAt?$AAi?$AAs?$AAe?$AAP?$AAo?$AAw?$AAe?$AAr?$AAI?$AAn?$AAt?$AAe?$AAr?$AAf@ 100026c8     display_main.obj
 0001:00001718       ??_C@_1FC@HKPIDAJM@?$AA?$FL?$AAD?$AAI?$AAS?$AAP?$AAD?$AAR?$AAV?$AA?$FN?$AA?5?$AA?9?$AA?9?$AAP?$AAm?$AAT?$AAo?$AAV?$AAi?$AAd?$AAe?$AAo?$AAP?$AAo?$AAw?$AAe?$AAr?$AAS?$AAt?$AAa?$AAt?$AAe?$AA?$CI@ 10002718     display_main.obj
 0001:00001770       ??_C@_1HI@OLBOPJCH@?$AA?$FL?$AAD?$AAI?$AAS?$AAP?$AAD?$AAR?$AAV?$AA?3?$AAE?$AAR?$AAR?$AA?$FN?$AA?5?$AAP?$AAm?$AAT?$AAo?$AAV?$AAi?$AAd?$AAe?$AAo?$AAP?$AAo?$AAw?$AAe?$AAr?$AAS?$AAt?$AAa?$AAt@ 10002770     display_main.obj
 0001:000017e8       ??_C@_1EM@OPJBMBHD@?$AA?$FL?$AAD?$AAI?$AAS?$AAP?$AAD?$AAR?$AAV?$AA?$FN?$AA?5?$AA?$CL?$AA?$CL?$AAP?$AAm?$AAT?$AAo?$AAV?$AAi?$AAd?$AAe?$AAo?$AAP?$AAo?$AAw?$AAe?$AAr?$AAS?$AAt?$AAa?$AAt?$AAe?$AA?$CI@ 100027e8     display_main.obj
 0001:00001838       ??_C@_1FC@HCOFLBNE@?$AA?$FL?$AAD?$AAI?$AAS?$AAP?$AAD?$AAR?$AAV?$AA?$FN?$AA?5?$AA?9?$AA?9?$AAV?$AAi?$AAd?$AAe?$AAo?$AAT?$AAo?$AAP?$AAm?$AAP?$AAo?$AAw?$AAe?$AAr?$AAS?$AAt?$AAa?$AAt?$AAe?$AA?$CI@ 10002838     display_main.obj
 0001:00001890       ??_C@_1HO@MBNFAPKO@?$AA?$FL?$AAD?$AAI?$AAS?$AAP?$AAD?$AAR?$AAV?$AA?3?$AAE?$AAR?$AAR?$AA?$FN?$AA?5?$AAV?$AAi?$AAd?$AAe?$AAo?$AAT?$AAo?$AAP?$AAm?$AAP?$AAo?$AAw?$AAe?$AAr?$AAS?$AAt?$AAa?$AAt@ 10002890     display_main.obj
 0001:00001910       ??_C@_1EM@BADBPHGF@?$AA?$FL?$AAD?$AAI?$AAS?$AAP?$AAD?$AAR?$AAV?$AA?$FN?$AA?5?$AA?$CL?$AA?$CL?$AAV?$AAi?$AAd?$AAe?$AAo?$AAT?$AAo?$AAP?$AAm?$AAP?$AAo?$AAw?$AAe?$AAr?$AAS?$AAt?$AAa?$AAt?$AAe?$AA?$CI@ 10002910     display_main.obj
 0001:00001960       ??_C@_1GG@LOLPCEEE@?$AA?$FL?$AAD?$AAI?$AAS?$AAP?$AAD?$AAR?$AAV?$AA?3?$AAE?$AAR?$AAR?$AA?$FN?$AA?5?$AAG?$AAe?$AAt?$AAG?$AAa?$AAm?$AAe?$AAX?$AAI?$AAn?$AAf?$AAo?$AA?$CI?$AA?$CJ?$AA?5?$AA?3?$AA?5?$AAI@ 10002960     display_main.obj
 0001:000019c8       ??_C@_1DE@IDKIFIAL@?$AAS?$AA3?$AAC?$AA6?$AA4?$AA1?$AA0?$AAD?$AAi?$AAs?$AAp?$AA?3?$AA?3?$AAG?$AAe?$AAt?$AAG?$AAa?$AAm?$AAe?$AAX?$AAI?$AAn?$AAf?$AAo?$AA?$AA@ 100029c8     display_main.obj
 0001:00001a00       ??_C@_1HA@KIGNJOOC@?$AA?$FL?$AAD?$AAI?$AAS?$AAP?$AAD?$AAR?$AAV?$AA?3?$AAE?$AAR?$AAR?$AA?$FN?$AA?5?$AAG?$AAe?$AAt?$AAR?$AAa?$AAw?$AAF?$AAr?$AAa?$AAm?$AAe?$AAB?$AAu?$AAf?$AAf?$AAe?$AAr?$AA?$CI@ 10002a00     display_main.obj
 0001:00001a70       ??_C@_1LG@PKBCKBDN@?$AA?$FL?$AAD?$AAI?$AAS?$AAP?$AAD?$AAR?$AAV?$AA?3?$AAI?$AAN?$AAF?$AA?$FN?$AA?5?$AAG?$AAe?$AAt?$AAR?$AAa?$AAw?$AAF?$AAr?$AAa?$AAm?$AAe?$AAB?$AAu?$AAf?$AAf?$AAe?$AAr?$AA?$CI@ 10002a70     display_main.obj
 0001:00001b28       ??_C@_1DO@MOCKGKOE@?$AAS?$AA3?$AAC?$AA6?$AA4?$AA1?$AA0?$AAD?$AAi?$AAs?$AAp?$AA?3?$AA?3?$AAG?$AAe?$AAt?$AAR?$AAa?$AAw?$AAF?$AAr?$AAa?$AAm?$AAe?$AAB?$AAu?$AAf?$AAf?$AAe?$AAr?$AA?$AA@ 10002b28     display_main.obj
 0001:00001b68       ??_C@_1KA@NFHHIBIG@?$AA?$FL?$AAD?$AAI?$AAS?$AAP?$AAD?$AAR?$AAV?$AA?3?$AAE?$AAR?$AAR?$AA?$FN?$AA?5?$AAR?$AAe?$AAl?$AAe?$AAa?$AAs?$AAe?$AAR?$AAe?$AAs?$AAo?$AAu?$AAr?$AAc?$AAe?$AA?$CI?$AA?$CJ?$AA?5@ 10002b68     display_main.obj
 0001:00001c08       ??_C@_1JG@MCLLKBLG@?$AA?$FL?$AAD?$AAI?$AAS?$AAP?$AAD?$AAR?$AAV?$AA?3?$AAE?$AAR?$AAR?$AA?$FN?$AA?5?$AAR?$AAe?$AAl?$AAe?$AAa?$AAs?$AAe?$AAR?$AAe?$AAs?$AAo?$AAu?$AAr?$AAc?$AAe?$AA?$CI?$AA?$CJ?$AA?5@ 10002c08     display_main.obj
 0001:00001ca0       ??_C@_1DK@MIDDIDCB@?$AAS?$AA3?$AAC?$AA6?$AA4?$AA1?$AA0?$AAD?$AAi?$AAs?$AAp?$AA?3?$AA?3?$AAR?$AAe?$AAl?$AAe?$AAa?$AAs?$AAe?$AAR?$AAe?$AAs?$AAo?$AAu?$AAr?$AAc?$AAe?$AA?$AA@ 10002ca0     display_main.obj
 0001:00001ce0       ??_C@_1GG@LFDIJNMN@?$AA?$FL?$AAD?$AAI?$AAS?$AAP?$AAD?$AAR?$AAV?$AA?$FN?$AA?5?$AAS?$AAe?$AAt?$AAD?$AAi?$AAs?$AAp?$AAl?$AAa?$AAy?$AAP?$AAo?$AAw?$AAe?$AAr?$AAS?$AAt?$AAa?$AAt?$AAe?$AA?$CI?$AA?$CJ@ 10002ce0     display_main.obj
 0001:00001d48       ??_C@_1GE@GOICBMCH@?$AA?$FL?$AAD?$AAI?$AAS?$AAP?$AAD?$AAR?$AAV?$AA?$FN?$AA?5?$AAS?$AAe?$AAt?$AAD?$AAi?$AAs?$AAp?$AAl?$AAa?$AAy?$AAP?$AAo?$AAw?$AAe?$AAr?$AAS?$AAt?$AAa?$AAt?$AAe?$AA?$CI?$AA?$CJ@ 10002d48     display_main.obj
 0001:00001db0       ??_C@_1IA@HOIECCLN@?$AA?$FL?$AAD?$AAI?$AAS?$AAP?$AAD?$AAR?$AAV?$AA?$FN?$AA?5?$AAS?$AAe?$AAt?$AAD?$AAi?$AAs?$AAp?$AAl?$AAa?$AAy?$AAP?$AAo?$AAw?$AAe?$AAr?$AAS?$AAt?$AAa?$AAt?$AAe?$AA?$CI?$AA?$CJ@ 10002db0     display_main.obj
 0001:00001e30       ??_C@_1EE@KINLHEKG@?$AAS?$AA3?$AAC?$AA6?$AA4?$AA1?$AA0?$AAD?$AAi?$AAs?$AAp?$AA?3?$AA?3?$AAS?$AAe?$AAt?$AAD?$AAi?$AAs?$AAp?$AAl?$AAa?$AAy?$AAP?$AAo?$AAw?$AAe?$AAr?$AAS?$AAt?$AAa?$AAt@ 10002e30     display_main.obj
 0001:00001e78       ??_C@_1KE@DDPGKNHD@?$AA?$FL?$AAD?$AAI?$AAS?$AAP?$AAD?$AAR?$AAV?$AA_?$AAI?$AAN?$AAI?$AAT?$AA?$FN?$AA?5?$AAE?$AAr?$AAr?$AAo?$AAr?$AA?5?$AAg?$AAe?$AAt?$AAt?$AAi?$AAn?$AAg?$AA?5?$AAD?$AAi?$AAs@ 10002e78     display_main.obj
 0001:00001f20       ??_C@_1FI@EMJOKBIG@?$AA?$FL?$AAD?$AAI?$AAS?$AAP?$AAD?$AAR?$AAV?$AA_?$AAI?$AAN?$AAI?$AAT?$AA?$FN?$AA?5?$AAd?$AAi?$AAs?$AAp?$AAl?$AAa?$AAy?$AA?5?$AAd?$AAr?$AAi?$AAv?$AAe?$AAr?$AA?5?$AAd?$AAi@ 10002f20     display_main.obj
 0001:00001f78       ??_C@_1DG@DLJGCGJ@?$AAS?$AA3?$AAC?$AA6?$AA4?$AA1?$AA0?$AAD?$AAi?$AAs?$AAp?$AA?3?$AA?3?$AAD?$AAe?$AAv?$AAI?$AAn?$AAi?$AAt?$AAi?$AAa?$AAl?$AAi?$AAz?$AAe?$AA?$AA@ 10002f78     display_main.obj
 0001:00001fb0       ??_C@_1DA@DIEJJLNO@?$AA?$FL?$AAD?$AAI?$AAS?$AAP?$AAD?$AAR?$AAV?$AA_?$AAi?$AAn?$AAi?$AAt?$AA?$FN?$AA?5?$AA?$CL?$AA?$CL?$AA?$CF?$AAs?$AA?$CI?$AA?$CJ?$AA?6?$AA?$AN?$AA?$AA@ 10002fb0     display_main.obj
 0001:00001fe0       ??_C@_1GA@CMPDNIBA@?$AA?$FL?$AAD?$AAI?$AAS?$AAP?$AAD?$AAR?$AAV?$AA?3?$AAI?$AAN?$AAF?$AA?$FN?$AA?5?$AAE?$AAn?$AAa?$AAb?$AAl?$AAe?$AA?5?$AAN?$AAe?$AAw?$AA?5?$AAO?$AAu?$AAt?$AAp?$AAu?$AAt?$AA?5@ 10002fe0     display_main.obj
 0001:00002040       ??_C@_1JG@GBIMLFIC@?$AA?$FL?$AAD?$AAI?$AAS?$AAP?$AAD?$AAR?$AAV?$AA?3?$AAI?$AAN?$AAF?$AA?$FN?$AA?5?$AAD?$AAe?$AAv?$AAC?$AAh?$AAa?$AAn?$AAg?$AAe?$AAO?$AAu?$AAt?$AAp?$AAu?$AAt?$AAI?$AAn?$AAt@ 10003040     display_main.obj
 0001:000020d8       ??_C@_1JG@ECNJPHLG@?$AA?$FL?$AAD?$AAI?$AAS?$AAP?$AAD?$AAR?$AAV?$AA?3?$AAI?$AAN?$AAF?$AA?$FN?$AA?5?$AAD?$AAe?$AAv?$AAC?$AAh?$AAa?$AAn?$AAg?$AAe?$AAO?$AAu?$AAt?$AAp?$AAu?$AAt?$AAI?$AAn?$AAt@ 100030d8     display_main.obj
 0001:00002170       ??_C@_1NA@MHLHNCPH@?$AA?$FL?$AAD?$AAI?$AAS?$AAP?$AAD?$AAR?$AAV?$AA?3?$AAE?$AAR?$AAR?$AA?$FN?$AA?5?$AAD?$AAe?$AAv?$AAC?$AAh?$AAa?$AAn?$AAg?$AAe?$AAO?$AAu?$AAt?$AAp?$AAu?$AAt?$AAI?$AAn?$AAt@ 10003170     display_main.obj
 0001:00002240       ??_C@_1JI@CBEHEPBM@?$AA?$FL?$AAD?$AAI?$AAS?$AAP?$AAD?$AAR?$AAV?$AA?3?$AAI?$AAN?$AAF?$AA?$FN?$AA?5?$AAD?$AAe?$AAv?$AAC?$AAh?$AAa?$AAn?$AAg?$AAe?$AAO?$AAu?$AAt?$AAp?$AAu?$AAt?$AAI?$AAn?$AAt@ 10003240     display_main.obj
 0001:000022d8       ??_C@_1EM@PLKLLIHM@?$AAS?$AA3?$AAC?$AA6?$AA4?$AA1?$AA0?$AAD?$AAi?$AAs?$AAp?$AA?3?$AA?3?$AAD?$AAe?$AAv?$AAC?$AAh?$AAa?$AAn?$AAg?$AAe?$AAO?$AAu?$AAt?$AAp?$AAu?$AAt?$AAI?$AAn?$AAt?$AAe@ 100032d8     display_main.obj
 0001:00002328       ??_C@_1KK@JJAHCJIP@?$AAm?$AA_?$AAn?$AAS?$AAc?$AAr?$AAe?$AAe?$AAn?$AAW?$AAi?$AAd?$AAt?$AAh?$AA?3?$AA?$CF?$AAd?$AA?0?$AA?5?$AAm?$AA_?$AAn?$AAS?$AAc?$AAr?$AAe?$AAe?$AAn?$AAH?$AAe?$AAi?$AAg@ 10003328     display_main.obj
 0001:000023d8       ??_C@_1HA@IKINNJPN@?$AAP?$AAr?$AAi?$AAm?$AAa?$AAr?$AAy?$AA?5?$AAS?$AAc?$AAr?$AAe?$AAe?$AAn?$AAW?$AAi?$AAd?$AAt?$AAh?$AA?3?$AA?$CF?$AAd?$AA?0?$AA?5?$AAS?$AAc?$AAr?$AAe?$AAe?$AAn?$AAH?$AAe@ 100033d8     display_main.obj
 0001:00002448       ??_C@_1HK@DGKBNPLB@?$AA?$FL?$AAD?$AAI?$AAS?$AAP?$AAD?$AAR?$AAV?$AA?3?$AAE?$AAR?$AAR?$AA?$FN?$AA?5?$AA?$CF?$AAs?$AA?$CI?$AA?$CJ?$AA?5?$AA?3?$AA?5?$AAm?$AA_?$AAp?$AAP?$AAr?$AAi?$AAm?$AAa?$AAr?$AAy?$AAS@ 10003448     display_main.obj
 0001:000024c8       ??_C@_1FO@CNCHBHN@?$AA?$FL?$AAD?$AAI?$AAS?$AAP?$AAD?$AAR?$AAV?$AA?3?$AAE?$AAR?$AAR?$AA?$FN?$AA?5?$AA?$CF?$AAs?$AA?$CI?$AA?$CJ?$AA?5?$AA?3?$AA?5?$AAI?$AAn?$AAi?$AAt?$AAi?$AAa?$AAl?$AAi?$AAz?$AAe?$AAD@ 100034c8     display_main.obj
 0001:00002528       ??_C@_1IE@HEDMDFPH@?$AA?$FL?$AAD?$AAI?$AAS?$AAP?$AAD?$AAR?$AAV?$AA?3?$AAE?$AAR?$AAR?$AA?$FN?$AA?5?$AAI?$AAn?$AAi?$AAt?$AAi?$AAa?$AAl?$AAi?$AAz?$AAe?$AAI?$AAn?$AAt?$AAe?$AAr?$AAr?$AAu?$AAp@ 10003528     display_main.obj
 0001:000025b0       ??_C@_1HG@JJJCNGAN@?$AA?$FL?$AAD?$AAI?$AAS?$AAP?$AAD?$AAR?$AAV?$AA?3?$AAE?$AAR?$AAR?$AA?$FN?$AA?5?$AAI?$AAn?$AAi?$AAt?$AAi?$AAa?$AAl?$AAi?$AAz?$AAe?$AAI?$AAn?$AAt?$AAe?$AAr?$AAr?$AAu?$AAp@ 100035b0     display_main.obj
 0001:00002628       ??_C@_1HE@IEEFDHBK@?$AA?$FL?$AAD?$AAI?$AAS?$AAP?$AAD?$AAR?$AAV?$AA?3?$AAE?$AAR?$AAR?$AA?$FN?$AA?5?$AA?$CF?$AAs?$AA?$CI?$AA?$CJ?$AA?5?$AA?3?$AA?5?$AA2?$AAD?$AA?5?$AAA?$AAc?$AAc?$AAe?$AAl?$AAe?$AAr?$AAa@ 10003628     display_main.obj
 0001:000026a0       ??_C@_1FI@MJLHMGLJ@?$AA?$FL?$AAD?$AAI?$AAS?$AAP?$AAD?$AAR?$AAV?$AA?3?$AAE?$AAR?$AAR?$AA?$FN?$AA?5?$AA?$CF?$AAs?$AA?$CI?$AA?$CJ?$AA?5?$AA?3?$AA?5?$AAA?$AAl?$AAl?$AAo?$AAc?$AAR?$AAe?$AAs?$AAo?$AAu?$AAr@ 100036a0     display_main.obj
 0001:000026f8       ??_C@_1DC@KBBLBLDK@?$AAS?$AA3?$AAC?$AA6?$AA4?$AA1?$AA0?$AAD?$AAi?$AAs?$AAp?$AA?3?$AA?3?$AAS?$AA3?$AAC?$AA6?$AA4?$AA1?$AA0?$AAD?$AAi?$AAs?$AAp?$AA?$AA@ 100036f8     display_main.obj
 0001:0000272c       ??_C@_1CI@PCCJEDJ@?$AA?$FL?$AAD?$AAI?$AAS?$AAP?$AAD?$AAR?$AAV?$AA1?$AA?$FN?$AA?5?$AA?$CL?$AA?$CL?$AA?$CF?$AAs?$AA?$CI?$AA?$CJ?$AA?6?$AA?$AN?$AA?$AA@ 1000372c     display_main.obj
 0001:00002758       ??_C@_1JM@MPFAJAOO@?$AA?$FL?$AAD?$AAI?$AAS?$AAP?$AAD?$AAR?$AAV?$AA1?$AA?$FN?$AA?5?$AAE?$AAr?$AAr?$AAo?$AAr?$AA?5?$AAg?$AAe?$AAt?$AAt?$AAi?$AAn?$AAg?$AA?5?$AAD?$AAi?$AAs?$AAp?$AAl?$AAa?$AAy@ 10003758     display_main.obj
 0001:000027f8       ??_C@_1FA@OJFPBCMB@?$AA?$FL?$AAD?$AAI?$AAS?$AAP?$AAD?$AAR?$AAV?$AA1?$AA?$FN?$AA?5?$AAd?$AAi?$AAs?$AAp?$AAl?$AAa?$AAy?$AA?5?$AAd?$AAr?$AAi?$AAv?$AAe?$AAr?$AA?5?$AAd?$AAi?$AAs?$AAp?$AAl?$AAa@ 100037f8     display_main.obj
 0001:00002848       ??_7S3C6410Disp@@6B@       10003848     display_main.obj
 0001:00002988       ??_C@_1HM@DDPJMAPH@?$AA?$FL?$AAD?$AAI?$AAS?$AAP?$AAD?$AAR?$AAV?$AA?3?$AAE?$AAR?$AAR?$AA?$FN?$AA?5?$AAD?$AAe?$AAi?$AAn?$AAi?$AAt?$AAI?$AAn?$AAt?$AAe?$AAr?$AAr?$AAu?$AAp?$AAt?$AA?$CI?$AA?$CJ?$AA?5@ 10003988     display_main.obj
 0001:00002a04       ??_C@_1DE@BAGAPFLO@?$AAS?$AA3?$AAC?$AA6?$AA4?$AA1?$AA0?$AAD?$AAi?$AAs?$AAp?$AA?3?$AA?3?$AA?$HO?$AAS?$AA3?$AAC?$AA6?$AA4?$AA1?$AA0?$AAD?$AAi?$AAs?$AAp?$AA?$AA@ 10003a04     display_main.obj
 0001:00002a38       ??_C@_1II@JBKOFEOC@?$AA?$FL?$AAD?$AAI?$AAS?$AAP?$AAD?$AAR?$AAV?$AA?3?$AAE?$AAR?$AAR?$AA?$FN?$AA?5?$AAD?$AAr?$AAv?$AAE?$AAs?$AAc?$AAa?$AAp?$AAe?$AA?$CI?$AA?$CJ?$AA?5?$AA?3?$AA?5?$AAD?$AAR?$AAV?$AAE@ 10003a38     display_main.obj
 0001:00002ac0       ??_C@_1FG@ENKEKPDJ@?$AA?$FL?$AAD?$AAI?$AAS?$AAP?$AAD?$AAR?$AAV?$AA?$FN?$AA?5?$AAD?$AAr?$AAv?$AAE?$AAs?$AAc?$AAa?$AAp?$AAe?$AA?$CI?$AA?$CJ?$AA?5?$AA?3?$AA?5?$AAD?$AAR?$AAV?$AAE?$AAS?$AAC?$AA_?$AAG@ 10003ac0     display_main.obj
 0001:00002b18       ??_C@_1HO@GBECNCAK@?$AA?$FL?$AAD?$AAI?$AAS?$AAP?$AAD?$AAR?$AAV?$AA?3?$AAE?$AAR?$AAR?$AA?$FN?$AA?5?$AAD?$AAr?$AAv?$AAE?$AAs?$AAc?$AAa?$AAp?$AAe?$AA?$CI?$AA?$CJ?$AA?5?$AA?3?$AA?5?$AAI?$AAO?$AAC?$AAT@ 10003b18     display_main.obj
 0001:00002b98       ??_C@_1FE@FPHLFKMK@?$AA?$FL?$AAD?$AAI?$AAS?$AAP?$AAD?$AAR?$AAV?$AA?$FN?$AA?5?$AAD?$AAr?$AAv?$AAE?$AAs?$AAc?$AAa?$AAp?$AAe?$AA?$CI?$AA?$CJ?$AA?5?$AA?3?$AA?5?$AAI?$AAO?$AAC?$AAT?$AAL?$AA_?$AAP?$AAO@ 10003b98     display_main.obj
 0001:00002bf0       ??_C@_1HO@NEEIBKDD@?$AA?$FL?$AAD?$AAI?$AAS?$AAP?$AAD?$AAR?$AAV?$AA?3?$AAE?$AAR?$AAR?$AA?$FN?$AA?5?$AAD?$AAr?$AAv?$AAE?$AAs?$AAc?$AAa?$AAp?$AAe?$AA?$CI?$AA?$CJ?$AA?5?$AA?3?$AA?5?$AAI?$AAO?$AAC?$AAT@ 10003bf0     display_main.obj
 0001:00002c70       ??_C@_1GG@MKGGBJFL@?$AA?$FL?$AAD?$AAI?$AAS?$AAP?$AAD?$AAR?$AAV?$AA?3?$AAE?$AAR?$AAR?$AA?$FN?$AA?5?$AAD?$AAr?$AAv?$AAE?$AAs?$AAc?$AAa?$AAp?$AAe?$AA?$CI?$AA?$CJ?$AA?5?$AA?3?$AA?5?$AAI?$AAO?$AAC?$AAT@ 10003c70     display_main.obj
 0001:00002cd8       ??_C@_1FO@MLDGEENC@?$AA?$FL?$AAD?$AAI?$AAS?$AAP?$AAD?$AAR?$AAV?$AA?$FN?$AA?5?$AAD?$AAr?$AAv?$AAE?$AAs?$AAc?$AAa?$AAp?$AAe?$AA?$CI?$AA?$CJ?$AA?5?$AA?3?$AA?5?$AAI?$AAO?$AAC?$AAT?$AAL?$AA_?$AAP?$AAO@ 10003cd8     display_main.obj
 0001:00002d38       ??_C@_1FE@FAGFIMEJ@?$AA?$FL?$AAD?$AAI?$AAS?$AAP?$AAD?$AAR?$AAV?$AA?$FN?$AA?5?$AAD?$AAr?$AAv?$AAE?$AAs?$AAc?$AAa?$AAp?$AAe?$AA?$CI?$AA?$CJ?$AA?5?$AA?3?$AA?5?$AAI?$AAO?$AAC?$AAT?$AAL?$AA_?$AAP?$AAO@ 10003d38     display_main.obj
 0001:00002d90       ??_C@_1IC@HCHKHHNJ@?$AA?$FL?$AAD?$AAI?$AAS?$AAP?$AAD?$AAR?$AAV?$AA?3?$AAE?$AAR?$AAR?$AA?$FN?$AA?5?$AAD?$AAr?$AAv?$AAE?$AAs?$AAc?$AAa?$AAp?$AAe?$AA?$CI?$AA?$CJ?$AA?5?$AA?3?$AA?5?$AAI?$AAO?$AAC?$AAT@ 10003d90     display_main.obj
 0001:00002e18       ??_C@_1GK@LOOKHGIC@?$AA?$FL?$AAD?$AAI?$AAS?$AAP?$AAD?$AAR?$AAV?$AA?3?$AAE?$AAR?$AAR?$AA?$FN?$AA?5?$AAD?$AAr?$AAv?$AAE?$AAs?$AAc?$AAa?$AAp?$AAe?$AA?$CI?$AA?$CJ?$AA?5?$AA?3?$AA?5?$AAI?$AAO?$AAC?$AAT@ 10003e18     display_main.obj
 0001:00002e88       ??_C@_1FI@CDCDEDOC@?$AA?$FL?$AAD?$AAI?$AAS?$AAP?$AAD?$AAR?$AAV?$AA?$FN?$AA?5?$AAD?$AAr?$AAv?$AAE?$AAs?$AAc?$AAa?$AAp?$AAe?$AA?$CI?$AA?$CJ?$AA?5?$AA?3?$AA?5?$AAI?$AAO?$AAC?$AAT?$AAL?$AA_?$AAP?$AAO@ 10003e88     display_main.obj
 0001:00002ee0       ??_C@_1JA@PAGCOII@?$AA?$FL?$AAD?$AAI?$AAS?$AAP?$AAD?$AAR?$AAV?$AA?3?$AAE?$AAR?$AAR?$AA?$FN?$AA?5?$AAD?$AAr?$AAv?$AAE?$AAs?$AAc?$AAa?$AAp?$AAe?$AA?$CI?$AA?$CJ?$AA?5?$AA?3?$AA?5?$AAI?$AAO?$AAC?$AAT@ 10003ee0     display_main.obj
 0001:00002f70       ??_C@_1GG@LNLMMDKK@?$AA?$FL?$AAD?$AAI?$AAS?$AAP?$AAD?$AAR?$AAV?$AA?$FN?$AA?5?$AAD?$AAr?$AAv?$AAE?$AAs?$AAc?$AAa?$AAp?$AAe?$AA?$CI?$AA?$CJ?$AA?5?$AA?3?$AA?5?$AAI?$AAO?$AAC?$AAT?$AAL?$AA_?$AAP?$AAO@ 10003f70     display_main.obj
 0001:00002fd8       ??_C@_1GM@BBKEENCA@?$AA?$FL?$AAD?$AAI?$AAS?$AAP?$AAD?$AAR?$AAV?$AA?3?$AAE?$AAR?$AAR?$AA?$FN?$AA?5?$AAD?$AAr?$AAv?$AAE?$AAs?$AAc?$AAa?$AAp?$AAe?$AA?$CI?$AA?$CJ?$AA?5?$AA?3?$AA?5?$AAG?$AAE?$AAT?$AAP@ 10003fd8     display_main.obj
 0001:00003048       ??_C@_1FK@GNMDDKBE@?$AA?$FL?$AAD?$AAI?$AAS?$AAP?$AAD?$AAR?$AAV?$AA?$FN?$AA?5?$AAD?$AAr?$AAv?$AAE?$AAs?$AAc?$AAa?$AAp?$AAe?$AA?$CI?$AA?$CJ?$AA?5?$AA?3?$AA?5?$AAG?$AAE?$AAT?$AAP?$AAO?$AAW?$AAE?$AAR@ 10004048     display_main.obj
 0001:000030a8       ??_C@_1GM@EHJMGEMA@?$AA?$FL?$AAD?$AAI?$AAS?$AAP?$AAD?$AAR?$AAV?$AA?3?$AAE?$AAR?$AAR?$AA?$FN?$AA?5?$AAD?$AAr?$AAv?$AAE?$AAs?$AAc?$AAa?$AAp?$AAe?$AA?$CI?$AA?$CJ?$AA?5?$AA?3?$AA?5?$AAS?$AAE?$AAT?$AAP@ 100040a8     display_main.obj
 0001:00003118       ??_C@_1IE@FIPINIIN@?$AA?$FL?$AAD?$AAI?$AAS?$AAP?$AAD?$AAR?$AAV?$AA?3?$AAE?$AAR?$AAR?$AA?$FN?$AA?5?$AAD?$AAr?$AAv?$AAE?$AAs?$AAc?$AAa?$AAp?$AAe?$AA?$CI?$AA?$CJ?$AA?5?$AA?3?$AA?5?$AAS?$AAE?$AAT?$AAP@ 10004118     display_main.obj
 0001:000031a0       ??_C@_1FK@JHIAEKAB@?$AA?$FL?$AAD?$AAI?$AAS?$AAP?$AAD?$AAR?$AAV?$AA?$FN?$AA?5?$AAD?$AAr?$AAv?$AAE?$AAs?$AAc?$AAa?$AAp?$AAe?$AA?$CI?$AA?$CJ?$AA?5?$AA?3?$AA?5?$AAS?$AAE?$AAT?$AAP?$AAO?$AAW?$AAE?$AAR@ 100041a0     display_main.obj
 0001:00003200       ??_C@_1FI@OBAMDLHG@?$AA?$FL?$AAD?$AAI?$AAS?$AAP?$AAD?$AAR?$AAV?$AA?$FN?$AA?5?$AAD?$AAr?$AAv?$AAE?$AAs?$AAc?$AAa?$AAp?$AAe?$AA?$CI?$AA?$CJ?$AA?5?$AA?3?$AA?5?$AAG?$AAE?$AAT?$AAR?$AAA?$AAW?$AAF?$AAR@ 10004200     display_main.obj
 0001:00003258       ??_C@_1EI@GPHNHJED@?$AA?$FL?$AAD?$AAI?$AAS?$AAP?$AAD?$AAR?$AAV?$AA?$FN?$AA?5?$AAD?$AAr?$AAv?$AAE?$AAs?$AAc?$AAa?$AAp?$AAe?$AA?$CI?$AA?$CJ?$AA?5?$AA?3?$AA?5?$AAG?$AAE?$AAT?$AAG?$AAX?$AAI?$AAN?$AAF@ 10004258     display_main.obj
 0001:000032a0       ??_C@_1GG@BCPAMEHB@?$AA?$FL?$AAD?$AAI?$AAS?$AAP?$AAD?$AAR?$AAV?$AA?$FN?$AA?5?$AAD?$AAr?$AAv?$AAE?$AAs?$AAc?$AAa?$AAp?$AAe?$AA?$CI?$AA?$CJ?$AA?5?$AA?3?$AA?5?$AAD?$AAR?$AAV?$AAE?$AAS?$AAC?$AA_?$AAS@ 100042a0     display_main.obj
 0001:00003308       ??_C@_1GG@DGJGIEFA@?$AA?$FL?$AAD?$AAI?$AAS?$AAP?$AAD?$AAR?$AAV?$AA?$FN?$AA?5?$AAD?$AAr?$AAv?$AAE?$AAs?$AAc?$AAa?$AAp?$AAe?$AA?$CI?$AA?$CJ?$AA?5?$AA?3?$AA?5?$AAD?$AAR?$AAV?$AAE?$AAS?$AAC?$AA_?$AAG@ 10004308     display_main.obj
 0001:00003370       ??_C@_1HO@HLAIJEJC@?$AA?$FL?$AAD?$AAI?$AAS?$AAP?$AAD?$AAR?$AAV?$AA?3?$AAE?$AAR?$AAR?$AA?$FN?$AA?5?$AAD?$AAr?$AAv?$AAE?$AAs?$AAc?$AAa?$AAp?$AAe?$AA?$CI?$AA?$CJ?$AA?5?$AA?3?$AA?5?$AAQ?$AAU?$AAE?$AAR@ 10004370     display_main.obj
 0001:000033f0       ??_C@_1CO@GBEAMMDA@?$AAS?$AA3?$AAC?$AA6?$AA4?$AA1?$AA0?$AAD?$AAi?$AAs?$AAp?$AA?3?$AA?3?$AAD?$AAr?$AAv?$AAE?$AAs?$AAc?$AAa?$AAp?$AAe?$AA?$AA@ 100043f0     display_main.obj
 0001:00003420       ??_C@_1DC@JOKNGACI@?$AA?$FL?$AAD?$AAI?$AAS?$AAP?$AAD?$AAR?$AAV?$AA?$FN?$AA?5?$AA?9?$AA?9?$AA?$CF?$AAs?$AA?$CI?$AA0?$AAx?$AA?$CF?$AA0?$AA8?$AAx?$AA?$CJ?$AA?6?$AA?$AN?$AA?$AA@ 10004420     display_main.obj
 0001:00003458       ??_C@_1HC@CCINEAJB@?$AA?$FL?$AAD?$AAI?$AAS?$AAP?$AAD?$AAR?$AAV?$AA?3?$AAE?$AAR?$AAR?$AA?$FN?$AA?5?$AA?$CF?$AAs?$AA?$CI?$AA?$CJ?$AA?5?$AA?3?$AA?5?$AAI?$AAO?$AAC?$AAT?$AAL?$AA_?$AAS?$AAV?$AAE?$AA_?$AAR@ 10004458     ddoverlay.obj
 0001:000034d0       ??_C@_1HM@LLCLFNPG@?$AA?$FL?$AAD?$AAI?$AAS?$AAP?$AAD?$AAR?$AAV?$AA?3?$AAE?$AAR?$AAR?$AA?$FN?$AA?5?$AA?$CF?$AAs?$AA?$CI?$AA?$CJ?$AA?5?$AA?3?$AA?5?$AAI?$AAO?$AAC?$AAT?$AAL?$AA_?$AAS?$AAV?$AAE?$AA_?$AAR@ 100044d0     ddoverlay.obj
 0001:00003550       ??_C@_1EI@CPFFNGDA@?$AAS?$AA3?$AAC?$AA6?$AA4?$AA1?$AA0?$AAD?$AAi?$AAs?$AAp?$AA?3?$AA?3?$AAO?$AAv?$AAe?$AAr?$AAl?$AAa?$AAy?$AAR?$AAe?$AAl?$AAe?$AAa?$AAs?$AAe?$AAR?$AAe?$AAs?$AAo?$AAu@ 10004550     ddoverlay.obj
 0001:00003598       ??_C@_1FA@DIIDMFBB@?$AA?$FL?$AAD?$AAI?$AAS?$AAP?$AAD?$AAR?$AAV?$AA?$FN?$AA?5?$AA?9?$AA?9?$AAI?$AAn?$AAi?$AAt?$AAa?$AAl?$AAi?$AAz?$AAe?$AAO?$AAv?$AAe?$AAr?$AAl?$AAa?$AAy?$AAC?$AAo?$AAn?$AAt@ 10004598     ddoverlay.obj
 0001:000035e8       ??_C@_1FA@IOBKMPNL@?$AA?$FL?$AAD?$AAI?$AAS?$AAP?$AAD?$AAR?$AAV?$AA?$FN?$AA?5?$AA?$CL?$AA?$CL?$AAI?$AAn?$AAi?$AAt?$AAa?$AAl?$AAi?$AAz?$AAe?$AAO?$AAv?$AAe?$AAr?$AAl?$AAa?$AAy?$AAC?$AAo?$AAn?$AAt@ 100045e8     ddoverlay.obj
 0001:00003638       ??_C@_1EM@PMGIEPHF@?$AA?$FL?$AAD?$AAI?$AAS?$AAP?$AAD?$AAR?$AAV?$AA?$FN?$AA?5?$AA?9?$AA?9?$AAD?$AAe?$AAv?$AAO?$AAv?$AAe?$AAr?$AAl?$AAa?$AAy?$AAS?$AAe?$AAt?$AAP?$AAo?$AAs?$AAi?$AAt?$AAi?$AAo@ 10004638     ddoverlay.obj
 0001:00003688       ??_C@_1KI@DIJGALLP@?$AA?$FL?$AAD?$AAI?$AAS?$AAP?$AAD?$AAR?$AAV?$AA?3?$AAE?$AAR?$AAR?$AA?$FN?$AA?5?$AAD?$AAe?$AAv?$AAO?$AAv?$AAe?$AAr?$AAl?$AAa?$AAy?$AAS?$AAe?$AAt?$AAP?$AAo?$AAs?$AAi?$AAt@ 10004688     ddoverlay.obj
 0001:00003730       ??_C@_1EM@LEMLNCDD@?$AA?$FL?$AAD?$AAI?$AAS?$AAP?$AAD?$AAR?$AAV?$AA?$FN?$AA?5?$AA?$CL?$AA?$CL?$AAD?$AAe?$AAv?$AAO?$AAv?$AAe?$AAr?$AAl?$AAa?$AAy?$AAS?$AAe?$AAt?$AAP?$AAo?$AAs?$AAi?$AAt?$AAi?$AAo@ 10004730     ddoverlay.obj
 0001:00003780       ??_C@_1HO@OAEKJNLO@?$AA?$FL?$AAD?$AAI?$AAS?$AAP?$AAD?$AAR?$AAV?$AA?3?$AAE?$AAR?$AAR?$AA?$FN?$AA?5?$AA?$CF?$AAs?$AA?$CI?$AA?$CJ?$AA?5?$AA?3?$AA?5?$AAI?$AAO?$AAC?$AAT?$AAL?$AA_?$AAS?$AAV?$AAE?$AA_?$AAF@ 10004780     ddoverlay.obj
 0001:00003800       ??_C@_1KI@CBHILIJF@?$AA?$FL?$AAD?$AAI?$AAS?$AAP?$AAD?$AAR?$AAV?$AA?3?$AAE?$AAR?$AAR?$AA?$FN?$AA?5?$AAD?$AAe?$AAv?$AAO?$AAv?$AAe?$AAr?$AAl?$AAa?$AAy?$AAS?$AAe?$AAt?$AAP?$AAo?$AAs?$AAi?$AAt@ 10004800     ddoverlay.obj
 0001:000038a8       ??_C@_1DM@CKJIIGFA@?$AAS?$AA3?$AAC?$AA6?$AA4?$AA1?$AA0?$AAD?$AAi?$AAs?$AAp?$AA?3?$AA?3?$AAD?$AAe?$AAv?$AAO?$AAv?$AAe?$AAr?$AAl?$AAa?$AAy?$AAE?$AAn?$AAa?$AAb?$AAl?$AAe?$AA?$AA@ 100048a8     ddoverlay.obj
 0001:000038e8       ??_C@_1EE@EKEOCMKM@?$AA?$FL?$AAD?$AAI?$AAS?$AAP?$AAD?$AAR?$AAV?$AA?$FN?$AA?5?$AA?9?$AA?9?$AAD?$AAe?$AAv?$AAO?$AAv?$AAe?$AAr?$AAl?$AAa?$AAy?$AAD?$AAi?$AAs?$AAa?$AAb?$AAl?$AAe?$AA?$CI?$AA?$CJ?$AA?6@ 100048e8     ddoverlay.obj
 0001:00003930       ??_C@_1JO@FDINBEBD@?$AA?$FL?$AAD?$AAI?$AAS?$AAP?$AAD?$AAR?$AAV?$AA?3?$AAE?$AAR?$AAR?$AA?$FN?$AA?5?$AAD?$AAe?$AAv?$AAO?$AAv?$AAe?$AAr?$AAl?$AAa?$AAy?$AAD?$AAi?$AAs?$AAa?$AAb?$AAl?$AAe?$AA?$CI@ 10004930     ddoverlay.obj
 0001:000039d0       ??_C@_1KG@PKLCLMK@?$AA?$FL?$AAD?$AAI?$AAS?$AAP?$AAD?$AAR?$AAV?$AA?3?$AAE?$AAR?$AAR?$AA?$FN?$AA?5?$AAD?$AAe?$AAv?$AAO?$AAv?$AAe?$AAr?$AAl?$AAa?$AAy?$AAS?$AAe?$AAt?$AAP?$AAo?$AAs?$AAi?$AAt@ 100049d0     ddoverlay.obj
 0001:00003a78       ??_C@_1DO@EAKMOGCD@?$AAS?$AA3?$AAC?$AA6?$AA4?$AA1?$AA0?$AAD?$AAi?$AAs?$AAp?$AA?3?$AA?3?$AAD?$AAe?$AAv?$AAO?$AAv?$AAe?$AAr?$AAl?$AAa?$AAy?$AAD?$AAi?$AAs?$AAa?$AAb?$AAl?$AAe?$AA?$AA@ 10004a78     ddoverlay.obj
 0001:00003ab8       ??_C@_1LA@OMFAEENN@?$AA?$FL?$AAD?$AAI?$AAS?$AAP?$AAD?$AAR?$AAV?$AA?3?$AAE?$AAR?$AAR?$AA?$FN?$AA?5?$AAD?$AAe?$AAv?$AAO?$AAv?$AAe?$AAr?$AAl?$AAa?$AAy?$AAB?$AAl?$AAe?$AAn?$AAd?$AAD?$AAi?$AAs@ 10004ab8     ddoverlay.obj
 0001:00003b68       ??_C@_1LG@BIFDCABM@?$AA?$FL?$AAD?$AAI?$AAS?$AAP?$AAD?$AAR?$AAV?$AA?3?$AAE?$AAR?$AAR?$AA?$FN?$AA?5?$AAD?$AAe?$AAv?$AAO?$AAv?$AAe?$AAr?$AAl?$AAa?$AAy?$AAB?$AAl?$AAe?$AAn?$AAd?$AAD?$AAi?$AAs@ 10004b68     ddoverlay.obj
 0001:00003c20       ??_C@_1EK@KGLHJ@?$AA?$FL?$AAD?$AAI?$AAS?$AAP?$AAD?$AAR?$AAV?$AA?$FN?$AA?5?$AAD?$AAe?$AAv?$AAO?$AAv?$AAe?$AAr?$AAl?$AAa?$AAy?$AAB?$AAl?$AAe?$AAn?$AAd?$AAD?$AAi?$AAs?$AAa?$AAb?$AAl?$AAe@ 10004c20     ddoverlay.obj
 0001:00003c70       ??_C@_1LE@CEANIILF@?$AA?$FL?$AAD?$AAI?$AAS?$AAP?$AAD?$AAR?$AAV?$AA?3?$AAE?$AAR?$AAR?$AA?$FN?$AA?5?$AAD?$AAe?$AAv?$AAO?$AAv?$AAe?$AAr?$AAl?$AAa?$AAy?$AAS?$AAe?$AAt?$AAC?$AAo?$AAl?$AAo?$AAr@ 10004c70     ddoverlay.obj
 0001:00003d28       ??_C@_1EI@ECDGHGLD@?$AA?$FL?$AAD?$AAI?$AAS?$AAP?$AAD?$AAR?$AAV?$AA?$FN?$AA?5?$AAD?$AAe?$AAv?$AAO?$AAv?$AAe?$AAr?$AAl?$AAa?$AAy?$AAS?$AAe?$AAt?$AAC?$AAo?$AAl?$AAo?$AAr?$AAK?$AAe?$AAy?$AA?$CI@ 10004d28     ddoverlay.obj
 0001:00003d70       ??_C@_1KI@FFMMPENL@?$AA?$FL?$AAD?$AAI?$AAS?$AAP?$AAD?$AAR?$AAV?$AA?3?$AAE?$AAR?$AAR?$AA?$FN?$AA?5?$AAD?$AAe?$AAv?$AAO?$AAv?$AAe?$AAr?$AAl?$AAa?$AAy?$AAS?$AAe?$AAt?$AAA?$AAl?$AAp?$AAh?$AAa@ 10004d70     ddoverlay.obj
 0001:00003e18       ??_C@_1EC@NKAHOCJA@?$AA?$FL?$AAD?$AAI?$AAS?$AAP?$AAD?$AAR?$AAV?$AA?$FN?$AA?5?$AAD?$AAe?$AAv?$AAO?$AAv?$AAe?$AAr?$AAl?$AAa?$AAy?$AAS?$AAe?$AAt?$AAA?$AAl?$AAp?$AAh?$AAa?$AA?$CI?$AA?$CJ?$AA?6?$AA?$AN@ 10004e18     ddoverlay.obj
 0001:00003e60       ??_C@_1EA@LOBEOIMN@?$AA?$FL?$AAD?$AAI?$AAS?$AAP?$AAD?$AAR?$AAV?$AA?3?$AAE?$AAR?$AAR?$AA?$FN?$AA?5?$AA?9?$AA?9?$AA?$CF?$AAs?$AA?$CI?$AA?$CJ?$AA?5?$AA?3?$AA?5?$AAF?$AAa?$AAi?$AAl?$AAe?$AAd?$AA?6?$AA?$AN?$AA?$AA@ 10004e60     ddoverlay.obj
 0001:00003ea0       ??_C@_1HC@LCLNNDLB@?$AA?$FL?$AAD?$AAI?$AAS?$AAP?$AAD?$AAR?$AAV?$AA?3?$AAE?$AAR?$AAR?$AA?$FN?$AA?5?$AA?$CF?$AAs?$AA?$CI?$AA?$CJ?$AA?5?$AA?3?$AA?5?$AAI?$AAO?$AAC?$AAT?$AAL?$AA_?$AAS?$AAV?$AAE?$AA_?$AAR@ 10004ea0     ddoverlay.obj
 0001:00003f18       ??_C@_1HM@GNGLAFJM@?$AA?$FL?$AAD?$AAI?$AAS?$AAP?$AAD?$AAR?$AAV?$AA?3?$AAE?$AAR?$AAR?$AA?$FN?$AA?5?$AA?$CF?$AAs?$AA?$CI?$AA?$CJ?$AA?5?$AA?3?$AA?5?$AAI?$AAO?$AAC?$AAT?$AAL?$AA_?$AAS?$AAV?$AAE?$AA_?$AAR@ 10004f18     ddoverlay.obj
 0001:00003f98       ??_C@_1EE@DAPKFLPG@?$AAS?$AA3?$AAC?$AA6?$AA4?$AA1?$AA0?$AAD?$AAi?$AAs?$AAp?$AA?3?$AA?3?$AAO?$AAv?$AAe?$AAr?$AAl?$AAa?$AAy?$AAA?$AAl?$AAl?$AAo?$AAc?$AAR?$AAe?$AAs?$AAo?$AAu?$AAr?$AAc@ 10004f98     ddoverlay.obj
 0001:00003fdc       ??_C@_1DI@EFGJDFCC@?$AAO?$AAv?$AAe?$AAr?$AAl?$AAa?$AAy?$AAS?$AAe?$AAt?$AAP?$AAo?$AAs?$AAi?$AAt?$AAi?$AAo?$AAn?$AA?$CI?$AA?$CF?$AAd?$AA?0?$AA?$CF?$AAd?$AA?$CJ?$AA?6?$AA?$AN?$AA?$AA@ 10004fdc     ddoverlay.obj
 0001:00004014       ??_C@_1DG@OOCACEMM@?$AAS?$AA3?$AAC?$AA6?$AA4?$AA1?$AA0?$AAD?$AAi?$AAs?$AAp?$AA?3?$AA?3?$AAO?$AAv?$AAe?$AAr?$AAl?$AAa?$AAy?$AAE?$AAn?$AAa?$AAb?$AAl?$AAe?$AA?$AA@ 10005014     ddoverlay.obj
 0001:0000404c       ??_C@_1DI@KFIACFEJ@?$AAS?$AA3?$AAC?$AA6?$AA4?$AA1?$AA0?$AAD?$AAi?$AAs?$AAp?$AA?3?$AA?3?$AAO?$AAv?$AAe?$AAr?$AAl?$AAa?$AAy?$AAD?$AAi?$AAs?$AAa?$AAb?$AAl?$AAe?$AA?$AA@ 1000504c     ddoverlay.obj
 0001:00004088       ??_C@_1KM@GILCILCH@?$AA?$FL?$AAD?$AAI?$AAS?$AAP?$AAD?$AAR?$AAV?$AA?3?$AAE?$AAR?$AAR?$AA?$FN?$AA?5?$AAD?$AAe?$AAv?$AAS?$AAe?$AAt?$AAV?$AAi?$AAs?$AAi?$AAb?$AAl?$AAe?$AAS?$AAu?$AAr?$AAf?$AAa@ 10005088     ddoverlay.obj
 0001:00004138       ??_C@_1II@CIJICCPF@?$AA?$FL?$AAD?$AAI?$AAS?$AAP?$AAD?$AAR?$AAV?$AA?3?$AAE?$AAR?$AAR?$AA?$FN?$AA?5?$AA?$CF?$AAs?$AA?$CI?$AA?$CJ?$AA?5?$AA?3?$AA?5?$AAI?$AAO?$AAC?$AAT?$AAL?$AA_?$AAS?$AAV?$AAE?$AA_?$AAF@ 10005138     ddoverlay.obj
 0001:000041c0       ??_C@_1KM@OILFHLFE@?$AA?$FL?$AAD?$AAI?$AAS?$AAP?$AAD?$AAR?$AAV?$AA?3?$AAE?$AAR?$AAR?$AA?$FN?$AA?5?$AAD?$AAe?$AAv?$AAO?$AAv?$AAe?$AAr?$AAl?$AAa?$AAy?$AAI?$AAn?$AAi?$AAt?$AAi?$AAa?$AAl?$AAi@ 100051c0     ddoverlay.obj
 0001:00004270       ??_C@_1EE@JPPIKHEO@?$AAS?$AA3?$AAC?$AA6?$AA4?$AA1?$AA0?$AAD?$AAi?$AAs?$AAp?$AA?3?$AA?3?$AAD?$AAe?$AAv?$AAS?$AAe?$AAt?$AAV?$AAi?$AAs?$AAi?$AAb?$AAl?$AAe?$AAS?$AAu?$AAr?$AAf?$AAa?$AAc@ 10005270     ddoverlay.obj
 0001:000042b8       ??_C@_1EK@HFANKOCL@?$AA?$FL?$AAD?$AAI?$AAS?$AAP?$AAD?$AAR?$AAV?$AA?3?$AAE?$AAR?$AAR?$AA?$FN?$AA?5?$AA?$CF?$AAs?$AA?$CI?$AA?$CJ?$AA?5?$AA?3?$AA?5?$AAp?$AAS?$AAu?$AAr?$AAf?$AA?5?$AAi?$AAs?$AA?5?$AAN?$AAU@ 100052b8     ddoverlay.obj
 0001:00004308       ??_C@_1EK@LDKDKKBK@?$AA?$FL?$AAD?$AAI?$AAS?$AAP?$AAD?$AAR?$AAV?$AA?$FN?$AA?5?$AA?9?$AA?9?$AAD?$AAe?$AAv?$AAO?$AAv?$AAe?$AAr?$AAl?$AAa?$AAy?$AAI?$AAn?$AAi?$AAt?$AAi?$AAa?$AAl?$AAi?$AAz?$AAe@ 10005308     ddoverlay.obj
 0001:00004358       ??_C@_1KM@CPHKCDAI@?$AA?$FL?$AAD?$AAI?$AAS?$AAP?$AAD?$AAR?$AAV?$AA?3?$AAE?$AAR?$AAR?$AA?$FN?$AA?5?$AAD?$AAe?$AAv?$AAO?$AAv?$AAe?$AAr?$AAl?$AAa?$AAy?$AAI?$AAn?$AAi?$AAt?$AAi?$AAa?$AAl?$AAi@ 10005358     ddoverlay.obj
 0001:00004408       ??_C@_1KC@NLLKMPLM@?$AA?$FL?$AAD?$AAI?$AAS?$AAP?$AAD?$AAR?$AAV?$AA?3?$AAE?$AAR?$AAR?$AA?$FN?$AA?5?$AAD?$AAe?$AAv?$AAO?$AAv?$AAe?$AAr?$AAl?$AAa?$AAy?$AAI?$AAn?$AAi?$AAt?$AAi?$AAa?$AAl?$AAi@ 10005408     ddoverlay.obj
 0001:000044b0       ??_C@_1KI@FCHLHFCG@?$AA?$FL?$AAD?$AAI?$AAS?$AAP?$AAD?$AAR?$AAV?$AA?3?$AAE?$AAR?$AAR?$AA?$FN?$AA?5?$AAD?$AAe?$AAv?$AAO?$AAv?$AAe?$AAr?$AAl?$AAa?$AAy?$AAI?$AAn?$AAi?$AAt?$AAi?$AAa?$AAl?$AAi@ 100054b0     ddoverlay.obj
 0001:00004558       ??_C@_1JO@JALDLKOF@?$AA?$FL?$AAD?$AAI?$AAS?$AAP?$AAD?$AAR?$AAV?$AA?3?$AAE?$AAR?$AAR?$AA?$FN?$AA?5?$AAD?$AAe?$AAv?$AAO?$AAv?$AAe?$AAr?$AAl?$AAa?$AAy?$AAI?$AAn?$AAi?$AAt?$AAi?$AAa?$AAl?$AAi@ 10005558     ddoverlay.obj
 0001:000045f8       ??_C@_1GE@FMIAFIFH@?$AA?$FL?$AAD?$AAD?$AAH?$AAA?$AAL?$AA?$FN?$AA?5?$AAD?$AAe?$AAv?$AAO?$AAv?$AAe?$AAr?$AAl?$AAa?$AAy?$AAI?$AAn?$AAi?$AAt?$AAi?$AAa?$AAl?$AAi?$AAz?$AAe?$AA?$CI?$AA?$CJ?$AA?5?$AA?3@ 100055f8     ddoverlay.obj
 0001:00004660       ??_C@_1GG@BJPCAIAH@?$AA?$FL?$AAD?$AAD?$AAH?$AAA?$AAL?$AA?$FN?$AA?5?$AAD?$AAe?$AAv?$AAO?$AAv?$AAe?$AAr?$AAl?$AAa?$AAy?$AAI?$AAn?$AAi?$AAt?$AAi?$AAa?$AAl?$AAi?$AAz?$AAe?$AA?$CI?$AA?$CJ?$AA?5?$AA?3@ 10005660     ddoverlay.obj
 0001:000046c8       ??_C@_1EK@BJKFFBMB@?$AA?$FL?$AAD?$AAI?$AAS?$AAP?$AAD?$AAR?$AAV?$AA?$FN?$AA?5?$AA?$CL?$AA?$CL?$AAD?$AAe?$AAv?$AAO?$AAv?$AAe?$AAr?$AAl?$AAa?$AAy?$AAI?$AAn?$AAi?$AAt?$AAi?$AAa?$AAl?$AAi?$AAz?$AAe@ 100056c8     ddoverlay.obj
 0001:00004718       ??_C@_1EE@OODCBJGG@?$AA?$FL?$AAD?$AAI?$AAS?$AAP?$AAD?$AAR?$AAV?$AA?$FN?$AA?5?$AA?9?$AA?9?$AAD?$AAe?$AAv?$AAR?$AAe?$AAc?$AAo?$AAv?$AAe?$AAr?$AAO?$AAv?$AAe?$AAr?$AAl?$AAa?$AAy?$AA?$CI?$AA?$CJ?$AA?6@ 10005718     ddoverlay.obj
 0001:00004760       ??_C@_1EE@LIFCCMIF@?$AA?$FL?$AAD?$AAI?$AAS?$AAP?$AAD?$AAR?$AAV?$AA?$FN?$AA?5?$AA?$CL?$AA?$CL?$AAD?$AAe?$AAv?$AAR?$AAe?$AAc?$AAo?$AAv?$AAe?$AAr?$AAO?$AAv?$AAe?$AAr?$AAl?$AAa?$AAy?$AA?$CI?$AA?$CJ?$AA?6@ 10005760     ddoverlay.obj
 0001:000047a8       ??_C@_1II@FKIGMEED@?$AA?$FL?$AAD?$AAI?$AAS?$AAP?$AAD?$AAR?$AAV?$AA?3?$AAE?$AAR?$AAR?$AA?$FN?$AA?5?$AAO?$AAv?$AAe?$AAr?$AAl?$AAa?$AAy?$AAI?$AAn?$AAi?$AAt?$AAi?$AAa?$AAl?$AAi?$AAz?$AAe?$AA?$CI@ 100057a8     ddoverlay.obj
 0001:00004830       ??_C@_1IM@HIGGBDBI@?$AA?$FL?$AAD?$AAD?$AAH?$AAA?$AAL?$AA?3?$AAI?$AAN?$AAF?$AA?$FN?$AA?5?$AAO?$AAv?$AAe?$AAr?$AAl?$AAa?$AAy?$AAI?$AAn?$AAi?$AAt?$AAi?$AAa?$AAl?$AAi?$AAz?$AAe?$AA?$CI?$AA?$CJ?$AA?5@ 10005830     ddoverlay.obj
 0001:000048c0       ??_C@_1KC@IGIGMJGB@?$AA?$FL?$AAD?$AAr?$AAv?$AAG?$AAe?$AAt?$AAM?$AAa?$AAs?$AAk?$AAs?$AA?$FN?$AA?5?$AAE?$AAr?$AAr?$AAo?$AAr?$AA?5?$AAg?$AAe?$AAt?$AAt?$AAi?$AAn?$AAg?$AA?5?$AAD?$AAi?$AAs?$AAp@ 100058c0     dispmode.obj
 0001:00004968       ??_C@_1FG@PDDHMHJM@?$AA?9?$AA?9?$AA?9?$AA?9?$AA?9?$AA?9?$AA?9?$AA?9?$AA?9?$AA?9?$AA?9?$AA?9?$AA?9?$AA?9?$AAd?$AAi?$AAs?$AAp?$AAl?$AAa?$AAy?$AA?5?$AAd?$AAr?$AAi?$AAv?$AAe?$AAr?$AA?5?$AAd?$AAi?$AAs@ 10005968     dispmode.obj
 0001:000049c0       ??_C@_1HO@KIPEEMFO@?$AA?$FL?$AAD?$AAI?$AAS?$AAP?$AAD?$AAR?$AAV?$AA?3?$AAE?$AAR?$AAR?$AA?$FN?$AA?5?$AA?$CF?$AAs?$AA?$CI?$AA?$CJ?$AA?5?$AA?3?$AA?5?$AAm?$AAo?$AAd?$AAe?$AAI?$AAd?$AA?5?$AA?$DN?$AA?5?$AA?$CF?$AAd@ 100059c0     dispmode.obj
 0001:00004a40       ??_C@_1CK@JFIAMBAP@?$AAS?$AA3?$AAC?$AA6?$AA4?$AA1?$AA0?$AAD?$AAi?$AAs?$AAp?$AA?3?$AA?3?$AAS?$AAe?$AAt?$AAM?$AAo?$AAd?$AAe?$AA?$AA@ 10005a40     dispmode.obj
 0001:00004a70       ??_C@_1JA@CIAKDMFD@?$AA?$FL?$AAD?$AAI?$AAS?$AAP?$AAD?$AAR?$AAV?$AA?3?$AAE?$AAR?$AAR?$AA?$FN?$AA?5?$AAG?$AAe?$AAt?$AAM?$AAo?$AAd?$AAe?$AAI?$AAn?$AAf?$AAo?$AA?$CI?$AA?$CJ?$AA?5?$AA?3?$AA?5?$AAm?$AAo@ 10005a70     dispmode.obj
 0001:00004b00       ??_C@_1JE@JDAEDNKE@?$AA?$FL?$AAD?$AAI?$AAS?$AAP?$AAD?$AAR?$AAV?$AA?3?$AAE?$AAR?$AAR?$AA?$FN?$AA?5?$AAG?$AAe?$AAt?$AAM?$AAo?$AAd?$AAe?$AAI?$AAn?$AAf?$AAo?$AAE?$AAx?$AA?$CI?$AA?$CJ?$AA?5?$AA?3?$AA?5@ 10005b00     dispmode.obj
 0001:00004b98       ??_C@_1JO@HACHOHLA@?$AA?$FL?$AAD?$AAS?$AAP?$AAL?$AA_?$AAM?$AAO?$AAD?$AAE?$AA?$FN?$AA?5?$AAE?$AAr?$AAr?$AAo?$AAr?$AA?5?$AAg?$AAe?$AAt?$AAt?$AAi?$AAn?$AAg?$AA?5?$AAD?$AAi?$AAs?$AAp?$AAl?$AAa@ 10005b98     dispmode.obj
 0001:00004c38       ??_C@_1FC@ENLFEKAI@?$AA?$FL?$AAD?$AAS?$AAP?$AAL?$AA_?$AAM?$AAO?$AAD?$AAE?$AA?$FN?$AA?5?$AAd?$AAi?$AAs?$AAp?$AAl?$AAa?$AAy?$AA?5?$AAd?$AAr?$AAi?$AAv?$AAe?$AAr?$AA?5?$AAd?$AAi?$AAs?$AAp?$AAl@ 10005c38     dispmode.obj
 0001:00004c90       ??_C@_1HK@EOFHCEII@?$AA?$FL?$AAD?$AAI?$AAS?$AAP?$AAD?$AAR?$AAV?$AA?3?$AAE?$AAR?$AAR?$AA?$FN?$AA?5?$AAW?$AAr?$AAa?$AAp?$AAp?$AAe?$AAd?$AAE?$AAm?$AAu?$AAl?$AAa?$AAt?$AAe?$AAd?$AAL?$AAi?$AAn@ 10005c90     line.obj
 0001:00004d10       ??_C@_1GE@GKEBNBEE@?$AAA?$AAL?$AAi?$AAn?$AAe?$AA?3?$AA?$CI?$AA?$CF?$AAd?$AA?0?$AA?$CF?$AAd?$AA?$CJ?$AA?5?$AA?$CL?$AA?5?$AAm?$AA?$CI?$AA?$CF?$AAd?$AA?$CJ?$AA?0?$AA?5?$AAn?$AA?$CI?$AA?$CF?$AAd?$AA?$CJ?$AA?0?$AA?5?$AAc?$AAP@ 10005d10     line.obj
 0001:00004d78       ??_C@_1EO@FCCHDLB@?$AAd?$AAw?$AAB?$AAa?$AAs?$AAe?$AA?3?$AA0?$AAx?$AA?$CF?$AAx?$AA?0?$AA?5?$AAm?$AA_?$AAi?$AAR?$AAo?$AAt?$AAa?$AAt?$AAe?$AA?3?$AA?$CF?$AAd?$AA?0?$AA?5?$AAD?$AAs?$AAt?$AAR?$AAo@ 10005d78     line.obj
 0001:00004dc8       ??_C@_1DK@PLAODEBE@?$AAC?$AAl?$AAi?$AAp?$AAF?$AAo?$AAr?$AAL?$AAi?$AAn?$AAe?$AA?3?$AA?$CI?$AA?$CF?$AAd?$AA?0?$AA?$CF?$AAd?$AA?$CJ?$AA?$HO?$AA?$CI?$AA?$CF?$AAd?$AA?0?$AA?$CF?$AAd?$AA?$CJ?$AA?6?$AA?$AA@ 10005dc8     line.obj
 0001:00004e08       ??_C@_1EC@CMKLBFED@?$AAx?$AAP?$AAo?$AAs?$AAi?$AAt?$AAi?$AAv?$AAe?$AA?5?$AA?3?$AA?5?$AA?$CF?$AAd?$AA?0?$AA?5?$AAy?$AAP?$AAo?$AAs?$AAi?$AAt?$AAi?$AAv?$AAe?$AA?5?$AA?3?$AA?5?$AA?$CF?$AAd?$AA?$AN?$AA?6@ 10005e08     hwblt.obj
 0001:00004e50       ??_C@_1JG@NKIDEDLP@?$AAB?$AAl?$AAe?$AAn?$AAd?$AAF?$AAu?$AAn?$AAc?$AAt?$AAi?$AAo?$AAn?$AA?5?$AA?3?$AA?5?$AAO?$AAp?$AA?$CI?$AA?$CF?$AAd?$AA?$CJ?$AA?0?$AA?5?$AAF?$AAl?$AAa?$AAg?$AA?$CI?$AA?$CF?$AAd?$AA?$CJ@ 10005e50     hwblt.obj
 0001:00004ee8       ??_C@_1DA@IFPNHGKA@?$AAR?$AAO?$AAP?$AA?5?$AA?3?$AA?5?$AA0?$AAx?$AA?$CF?$AA0?$AAx?$AA?0?$AA?5?$AAi?$AAM?$AAo?$AAd?$AAe?$AA?3?$AA?$CF?$AAd?$AA?$AN?$AA?6?$AA?$AA@ 10005ee8     hwblt.obj
 0001:00004f18       ??_C@_1DK@KPKOLIIA@?$AAC?$AAl?$AAi?$AAp?$AAR?$AAe?$AAg?$AAi?$AAo?$AAn?$AA?5?$AA?$CI?$AA?$CF?$AAd?$AA?0?$AA?$CF?$AAd?$AA?$CJ?$AA?$HO?$AA?$CI?$AA?$CF?$AAd?$AA?0?$AA?$CF?$AAd?$AA?$CJ?$AA?$AN?$AA?6?$AA?$AA@ 10005f18     hwblt.obj
 0001:00004f58       ??_C@_1NA@LMFNLLNP@?$AAD?$AAs?$AAt?$AA?3?$AA0?$AAx?$AA?$CF?$AAx?$AA?5?$AAD?$AAs?$AAt?$AAB?$AA?5?$AA0?$AAx?$AA?$CF?$AAx?$AA?0?$AA?5?$AA?5?$AAS?$AAu?$AAr?$AAf?$AA?$CI?$AAW?$AA?3?$AA?$CF?$AAd?$AA?0?$AAH@ 10005f58     hwblt.obj
 0001:00005028       ??_C@_1MO@FIFENGHN@?$AAS?$AAr?$AAc?$AA?3?$AA0?$AAx?$AA?$CF?$AAx?$AA?5?$AAS?$AAr?$AAc?$AAB?$AA?5?$AA0?$AAx?$AA?$CF?$AAx?$AA?0?$AA?5?$AAS?$AAu?$AAr?$AAf?$AA?$CI?$AAW?$AA?3?$AA?$CF?$AAd?$AA?0?$AAH?$AA?3@ 10006028     hwblt.obj
 0001:000050f8       ??_C@_1BM@EKFHMNLE@?$AAS?$AAi?$AAm?$AAp?$AAl?$AAe?$AAB?$AAi?$AAt?$AAB?$AAl?$AAt?$AA?6?$AA?$AA@ 100060f8     hwblt.obj
 0001:00005114       ??_C@_1DI@ILGMOPHM@?$AAB?$AA?5?$AAL?$AAR?$AAS?$AAW?$AAA?$AAP?$AA?3?$AA?$CF?$AAd?$AA?0?$AA?$CF?$AAd?$AA?0?$AA?$CF?$AAd?$AA?0?$AA?$CF?$AAd?$AA?0?$AA?$CF?$AAd?$AA?0?$AA?$CF?$AAd?$AA?6?$AA?$AA@ 10006114     hwblt.obj
 0001:0000514c       ??_C@_1DI@HHLPGOFO@?$AAB?$AA?5?$AAT?$AAB?$AAS?$AAW?$AAA?$AAP?$AA?3?$AA?$CF?$AAd?$AA?0?$AA?$CF?$AAd?$AA?0?$AA?$CF?$AAd?$AA?0?$AA?$CF?$AAd?$AA?0?$AA?$CF?$AAd?$AA?0?$AA?$CF?$AAd?$AA?6?$AA?$AA@ 1000614c     hwblt.obj
 0001:00005188       ??_C@_1EA@GONFHPPP@?$AAR?$AA?3?$AA?$CF?$AAd?$AA?0?$AA?5?$AAD?$AAR?$AA?3?$AA?$CF?$AAd?$AA?0?$AA?5?$AAD?$AAS?$AAT?$AA?$CI?$AA?$CF?$AAd?$AA?0?$AA?$CF?$AAd?$AA?0?$AA?$CF?$AAd?$AA?0?$AA?$CF?$AAd?$AA?$CJ?$AA?$AN?$AA?6?$AA?$AA@ 10006188     hwblt.obj
 0001:000051c8       ??_C@_1CO@CLINCEGJ@?$AA?$CI?$AA?$CF?$AAd?$AA?0?$AA?$CF?$AAd?$AA?$CJ?$AA?$HO?$AA?$CI?$AA?$CF?$AAd?$AA?0?$AA?$CF?$AAd?$AA?$CJ?$AA?5?$AA?$CF?$AAd?$AA?0?$AA?$CF?$AAd?$AA?6?$AA?$AA@ 100061c8     hwblt.obj
 0001:000051f8       ??_C@_1DE@PFJFGIAI@?$AAB?$AAX?$AA?5?$AAT?$AAA?$AAS?$AAW?$AAA?$AAP?$AA?3?$AA?$CF?$AAd?$AA?0?$AA?$CF?$AAd?$AA?0?$AA?$CF?$AAd?$AA?0?$AA?$CF?$AAd?$AA?0?$AA?$CF?$AAd?$AA?6?$AA?$AA@ 100061f8     hwblt.obj
 0001:0000522c       ??_C@_1DE@ILONCAKO@?$AAB?$AAX?$AA?5?$AAT?$AAB?$AAS?$AAW?$AAA?$AAP?$AA?3?$AA?$CF?$AAd?$AA?0?$AA?$CF?$AAd?$AA?0?$AA?$CF?$AAd?$AA?0?$AA?$CF?$AAd?$AA?0?$AA?$CF?$AAd?$AA?6?$AA?$AA@ 1000622c     hwblt.obj
 0001:00005260       ??_C@_1DG@CPILIMLG@?$AAB?$AAi?$AAt?$AAB?$AAl?$AAt?$AA?5?$AAX?$AA?9?$AAa?$AAx?$AAi?$AAs?$AA?5?$AAf?$AAl?$AAi?$AAp?$AA?3?$AA?5?$AAR?$AA?3?$AA?$CF?$AAd?$AA?$AN?$AA?6?$AA?$AA@ 10006260     hwblt.obj
 0001:00005298       ??_C@_1DE@HBKEHBPJ@?$AAB?$AAY?$AA?5?$AAT?$AAA?$AAS?$AAW?$AAA?$AAP?$AA?3?$AA?$CF?$AAd?$AA?0?$AA?$CF?$AAd?$AA?0?$AA?$CF?$AAd?$AA?0?$AA?$CF?$AAd?$AA?0?$AA?$CF?$AAd?$AA?6?$AA?$AA@ 10006298     hwblt.obj
 0001:000052cc       ??_C@_1DE@PNMDJFP@?$AAB?$AAY?$AA?5?$AAT?$AAB?$AAS?$AAW?$AAA?$AAP?$AA?3?$AA?$CF?$AAd?$AA?0?$AA?$CF?$AAd?$AA?0?$AA?$CF?$AAd?$AA?0?$AA?$CF?$AAd?$AA?0?$AA?$CF?$AAd?$AA?6?$AA?$AA@ 100062cc     hwblt.obj
 0001:00005300       ??_C@_1DG@IAMPBOPB@?$AAB?$AAi?$AAt?$AAB?$AAl?$AAt?$AA?5?$AAY?$AA?9?$AAa?$AAx?$AAi?$AAs?$AA?5?$AAf?$AAl?$AAi?$AAp?$AA?3?$AA?5?$AAR?$AA?3?$AA?$CF?$AAd?$AA?$AN?$AA?6?$AA?$AA@ 10006300     hwblt.obj
 0001:00005338       ??_C@_1FK@CLFKDMBF@?$AAt?$AA_?$AAr?$AAe?$AAc?$AAt?$AA?0?$AAj?$AAu?$AAs?$AAt?$AAb?$AAi?$AAt?$AAb?$AAl?$AAt?$AAf?$AAl?$AAi?$AAp?$AA?$CI?$AA?$CF?$AAd?$AA?0?$AA?$CF?$AAd?$AA?$CJ?$AA?$HO?$AA?$CI?$AA?$CF?$AAd@ 10006338     hwblt.obj
 0001:00005394       ??_C@_1BM@INPCAHNB@?$AAX?$AAY?$AA?5?$AAF?$AAl?$AAi?$AAp?$AA?5?$AAR?$AA?3?$AA?$CF?$AAd?$AA?6?$AA?$AA@ 10006394     hwblt.obj
 0001:000053b0       ??_C@_1DC@ELNKMMKJ@?$AA?6?$AAS?$AAt?$AAr?$AAe?$AAt?$AAc?$AAh?$AA?5?$AAn?$AAo?$AA?5?$AAf?$AAl?$AAi?$AAp?$AA?3?$AA?5?$AAR?$AA?3?$AA?$CF?$AAd?$AA?$AN?$AA?6?$AA?$AA@ 100063b0     hwblt.obj
 0001:000053e4       ??_C@_1DK@EBAKDPLM@?$AAS?$AA?5?$AAN?$AAO?$AAN?$AAS?$AAW?$AAA?$AAP?$AA?3?$AA?$CF?$AAd?$AA?0?$AA?$CF?$AAd?$AA?0?$AA?$CF?$AAd?$AA?0?$AA?$CF?$AAd?$AA?0?$AA?$CF?$AAd?$AA?0?$AA?$CF?$AAd?$AA?6?$AA?$AA@ 100063e4     hwblt.obj
 0001:00005420       ??_C@_1DO@HHCPDAPC@?$AAS?$AA?5?$AAB?$AAZ?$AAN?$AAO?$AAN?$AAS?$AAW?$AAA?$AAP?$AA?3?$AA?$CF?$AAd?$AA?0?$AA?$CF?$AAd?$AA?0?$AA?$CF?$AAd?$AA?0?$AA?$CF?$AAd?$AA?0?$AA?$CF?$AAd?$AA?0?$AA?$CF?$AAd?$AA?6?$AA?$AA@ 10006420     hwblt.obj
 0001:00005460       ??_C@_1DO@JLIHKOEK@?$AAS?$AA?5?$AAB?$AAR?$AAN?$AAO?$AAN?$AAS?$AAW?$AAA?$AAP?$AA?3?$AA?$CF?$AAd?$AA?0?$AA?$CF?$AAd?$AA?0?$AA?$CF?$AAd?$AA?0?$AA?$CF?$AAd?$AA?0?$AA?$CF?$AAd?$AA?0?$AA?$CF?$AAd?$AA?6?$AA?$AA@ 10006460     hwblt.obj
 0001:000054a0       ??_C@_1DI@JENJMHJK@?$AAS?$AA?5?$AAL?$AAR?$AAS?$AAW?$AAA?$AAP?$AA?3?$AA?$CF?$AAd?$AA?0?$AA?$CF?$AAd?$AA?0?$AA?$CF?$AAd?$AA?0?$AA?$CF?$AAd?$AA?0?$AA?$CF?$AAd?$AA?0?$AA?$CF?$AAd?$AA?6?$AA?$AA@ 100064a0     hwblt.obj
 0001:000054d8       ??_C@_1IK@JGIENLCN@?$AAS?$AAc?$AAr?$AAa?$AAt?$AAc?$AAh?$AAB?$AAa?$AAs?$AAe?$AAA?$AAd?$AAd?$AAr?$AA?5?$AA?3?$AA?5?$AA0?$AAx?$AA?$CF?$AAx?$AA?0?$AA?5?$AAO?$AAf?$AAf?$AAs?$AAe?$AAt?$AA?3?$AA?$CF@ 100064d8     hwblt.obj
 0001:00005564       ??_C@_1DI@DPCIGKOK@?$AAS?$AA?5?$AAT?$AAA?$AAS?$AAW?$AAA?$AAP?$AA?3?$AA?$CF?$AAd?$AA?0?$AA?$CF?$AAd?$AA?0?$AA?$CF?$AAd?$AA?0?$AA?$CF?$AAd?$AA?0?$AA?$CF?$AAd?$AA?0?$AA?$CF?$AAd?$AA?6?$AA?$AA@ 10006564     hwblt.obj
 0001:0000559c       ??_C@_1DI@GIAKEGLI@?$AAS?$AA?5?$AAT?$AAB?$AAS?$AAW?$AAA?$AAP?$AA?3?$AA?$CF?$AAd?$AA?0?$AA?$CF?$AAd?$AA?0?$AA?$CF?$AAd?$AA?0?$AA?$CF?$AAd?$AA?0?$AA?$CF?$AAd?$AA?0?$AA?$CF?$AAd?$AA?6?$AA?$AA@ 1000659c     hwblt.obj
 0001:000055d4       ??_C@_1DA@MPNBCBCF@?$AAS?$AAc?$AAr?$AAa?$AAt?$AAc?$AAh?$AAB?$AAa?$AAs?$AAe?$AAA?$AAd?$AAd?$AAr?$AA?5?$AA?3?$AA?5?$AA0?$AAx?$AA?$CF?$AAx?$AA?6?$AA?$AA@ 100065d4     hwblt.obj
 0001:00005604       ??_C@_1DI@DGPIPGMI@?$AAS?$AAt?$AAr?$AAe?$AAt?$AAc?$AAh?$AA?5?$AAX?$AA?9?$AAa?$AAx?$AAi?$AAs?$AA?5?$AAf?$AAl?$AAi?$AAp?$AA?3?$AA?5?$AAR?$AA?3?$AA?$CF?$AAd?$AA?$AN?$AA?6?$AA?$AA@ 10006604     hwblt.obj
 0001:0000563c       ??_C@_1DI@JJLMGEIP@?$AAS?$AAt?$AAr?$AAe?$AAt?$AAc?$AAh?$AA?5?$AAY?$AA?9?$AAa?$AAx?$AAi?$AAs?$AA?5?$AAf?$AAl?$AAi?$AAp?$AA?3?$AA?5?$AAR?$AA?3?$AA?$CF?$AAd?$AA?$AN?$AA?6?$AA?$AA@ 1000663c     hwblt.obj
 0001:00005674       ??_C@_1DK@DJGIEDHO@?$AAS?$AA?5?$AA0?$AA?0?$AA1?$AA8?$AA0?$AA?5?$AAA?$AAS?$AAW?$AAA?$AAP?$AA?5?$AA?3?$AA?5?$AA?$CF?$AAd?$AA?0?$AA?$CF?$AAd?$AA?0?$AA?$CF?$AAd?$AA?0?$AA?$CF?$AAd?$AA?6?$AA?$AA@ 10006674     hwblt.obj
 0001:000056b0       ??_C@_1DK@BFDMIAN@?$AAS?$AA?5?$AA0?$AA?0?$AA1?$AA8?$AA0?$AA?5?$AAB?$AAS?$AAW?$AAA?$AAP?$AA?5?$AA?3?$AA?5?$AA?$CF?$AAd?$AA?0?$AA?$CF?$AAd?$AA?0?$AA?$CF?$AAd?$AA?0?$AA?$CF?$AAd?$AA?6?$AA?$AA@ 100066b0     hwblt.obj
 0001:000056f0       ??_C@_1FA@PLMJAGLG@?$AAt?$AAr?$AAy?$AA?5?$AAt?$AAo?$AA?5?$AAr?$AAe?$AAd?$AAi?$AAr?$AAe?$AAc?$AAt?$AA?5?$AAt?$AAo?$AA?5?$AAS?$AAW?$AA?5?$AAE?$AAm?$AAu?$AAl?$AAa?$AAt?$AAe?$AAd?$AA?5?$AAB@ 100066f0     hwblt.obj
 0001:00005740       ??_C@_1JC@IOJNHHJJ@?$AAM?$AAa?$AAy?$AAb?$AAe?$AA?5?$AAT?$AAh?$AAe?$AAr?$AAe?$AA?8?$AAs?$AA?5?$AAn?$AAo?$AA?5?$AAs?$AAu?$AAf?$AAf?$AAi?$AAc?$AAi?$AAe?$AAn?$AAt?$AA?5?$AAv?$AAi?$AAd?$AAe@ 10006740     hwblt.obj
 0001:000057d8       ??_C@_1FE@LKEJAIMD@?$AAS?$AAc?$AAr?$AAa?$AAt?$AAc?$AAh?$AA?5?$AAS?$AAu?$AAr?$AAf?$AAa?$AAc?$AAe?$AA?5?$AAA?$AAl?$AAl?$AAo?$AAc?$AAa?$AAt?$AAi?$AAo?$AAn?$AA?5?$AAi?$AAs?$AA?5?$AAf?$AAa@ 100067d8     hwblt.obj
 0001:00005830       ??_C@_1FI@JOCKKJJL@?$AAt?$AA_?$AAr?$AAe?$AAc?$AAt?$AA?0?$AAr?$AAe?$AAa?$AAl?$AAs?$AAt?$AAr?$AAe?$AAt?$AAc?$AAh?$AA?3?$AA?5?$AA?$CI?$AA?$CF?$AAd?$AA?0?$AA?$CF?$AAd?$AA?$CJ?$AA?$HO?$AA?$CI?$AA?$CF?$AAd?$AA?0@ 10006830     hwblt.obj
 0001:00005888       ??_C@_1JE@KHOFOBHD@?$AAH?$AAW?$AAB?$AAi?$AAt?$AAB?$AAl?$AAt?$AA?5?$AAS?$AAr?$AAc?$AA?$CI?$AA?$CF?$AAd?$AA?0?$AA?$CF?$AAd?$AA?$CJ?$AA?$HO?$AA?$CI?$AA?$CF?$AAd?$AA?0?$AA?$CF?$AAd?$AA?$CJ?$AA?3?$AA?$CF?$AAd?$AA?0?$AA?5@ 10006888     hwblt.obj
 0001:0000591c       ??_C@_1CE@DLFHODHF@?$AAI?$AAl?$AAl?$AAe?$AAg?$AAa?$AAl?$AA?5?$AAS?$AAu?$AAr?$AAf?$AAa?$AAc?$AAe?$AA?6?$AA?$AN?$AA?$AA@ 1000691c     blt.obj
 0001:00005940       ??_C@_1BI@OPKCEEB@?$AAS?$AAR?$AAC?$AAI?$AAN?$AAV?$AAE?$AAR?$AAT?$AA?$AN?$AA?6?$AA?$AA@ 10006940     blt.obj
 0001:00005958       ??_C@_1BC@MBCMANKE@?$AAS?$AAR?$AAC?$AAA?$AAN?$AAD?$AA?$AN?$AA?6?$AA?$AA@ 10006958     blt.obj
 0001:0000596c       ??_C@_1BE@EDIAEAMM@?$AAS?$AAR?$AAC?$AAC?$AAO?$AAP?$AAY?$AA?$AN?$AA?6?$AA?$AA@ 1000696c     blt.obj
 0001:00005980       ??_C@_1BG@HJPFDAHD@?$AAS?$AAR?$AAC?$AAP?$AAA?$AAI?$AAN?$AAT?$AA?$AN?$AA?6?$AA?$AA@ 10006980     blt.obj
 0001:00005998       ??_C@_1LM@BOJKBMP@?$AAS?$AAr?$AAc?$AAF?$AAo?$AAr?$AAm?$AAa?$AAt?$AA?3?$AA?$CF?$AAd?$AA?0?$AA?5?$AAB?$AAl?$AAe?$AAn?$AAd?$AAF?$AAu?$AAn?$AAc?$AAt?$AAi?$AAo?$AAn?$AA?5?$AA?3?$AA?5?$AA0?$AAx@ 10006998     blt.obj
 0001:00005a58       ??_C@_1GC@NFBKBBIJ@?$AAA?$AAl?$AAp?$AAh?$AAa?$AAB?$AAl?$AAe?$AAn?$AAd?$AA?5?$AAB?$AAi?$AAt?$AAB?$AAl?$AAt?$AA?5?$AAw?$AAi?$AAt?$AAh?$AA?5?$AAH?$AAW?$AA?5?$AAr?$AAe?$AAq?$AAu?$AAe?$AAs@ 10006a58     blt.obj
 0001:00005ac0       ??_C@_1FG@JFEIMLGE@?$AA2?$AAD?$AA?5?$AAH?$AAW?$AA?5?$AAd?$AAo?$AAe?$AAs?$AA?5?$AAn?$AAo?$AAt?$AA?5?$AAs?$AAu?$AAp?$AAp?$AAo?$AAr?$AAt?$AA?5?$AAt?$AAh?$AAi?$AAs?$AA?5?$AAc?$AAo?$AAl?$AAo@ 10006ac0     blt.obj
 0001:00005b18       ??_C@_1CM@BGJECLIA@?$AAC?$AAh?$AAe?$AAc?$AAk?$AA?5?$AAH?$AAW?$AA?5?$AAS?$AAu?$AAc?$AAc?$AAe?$AAs?$AAs?$AA?3?$AA?$CF?$AAd?$AA?$AN?$AA?6?$AA?$AA@ 10006b18     blt_alpha.obj
 0001:00005b44       ??_C@_1CA@LOCFEICE@?$AAR?$AAe?$AAr?$AAo?$AAt?$AAa?$AAt?$AAe?$AA?5?$AAR?$AAe?$AAc?$AAt?$AA?$AN?$AA?6?$AA?$AA@ 10006b44     blt_alpha.obj
 0001:00005b64       ??_C@_1BO@MAFFNHAO@?$AAR?$AAe?$AAc?$AAo?$AAv?$AAe?$AAr?$AA?5?$AAR?$AAe?$AAc?$AAt?$AA?$AN?$AA?6?$AA?$AA@ 10006b64     blt_alpha.obj
 0001:00005b88       ??_C@_1IK@DGJIDBPG@?$AAD?$AAs?$AAt?$AAS?$AAc?$AAr?$AAa?$AAt?$AAc?$AAh?$AA?3?$AA0?$AAx?$AA?$CF?$AAx?$AA?0?$AA?5?$AAO?$AAr?$AAi?$AAD?$AAs?$AAt?$AAB?$AAu?$AAf?$AAf?$AAe?$AAr?$AA?3?$AA0?$AAx@ 10006b88     blt_alpha.obj
 0001:00005c18       ??_C@_1EM@KAEMJDEM@?$AAR?$AAe?$AAl?$AAe?$AAa?$AAs?$AAe?$AA?5?$AAD?$AAe?$AAs?$AAt?$AAi?$AAn?$AAa?$AAt?$AAi?$AAo?$AAn?$AA?5?$AAS?$AAc?$AAr?$AAa?$AAt?$AAc?$AAh?$AA?5?$AAS?$AAu?$AAr?$AAf@ 10006c18     blt_alpha.obj
 0001:00005c68       ??_C@_1EM@MMOMNEGL@?$AAS?$AAo?$AAu?$AAr?$AAc?$AAe?$AA?5?$AAS?$AAc?$AAr?$AAa?$AAt?$AAc?$AAh?$AA?5?$AAS?$AAu?$AAr?$AAf?$AAa?$AAc?$AAe?$AA?5?$AAi?$AAs?$AA?5?$AAd?$AAe?$AAs?$AAt?$AAr?$AAo@ 10006c68     blt_alpha.obj
 0001:00005cb8       ??_C@_1EA@PMGEDFLI@?$AAD?$AAe?$AAl?$AAe?$AAt?$AAe?$AA?5?$AAS?$AAo?$AAu?$AAr?$AAc?$AAe?$AA?5?$AAS?$AAc?$AAr?$AAa?$AAt?$AAc?$AAh?$AA?5?$AAS?$AAu?$AAr?$AAf?$AAa?$AAc?$AAe?$AA?$AN?$AA?6?$AA?$AA@ 10006cb8     blt_alpha.obj
 0001:00005cf8       ??_C@_1EC@GKAOIMPJ@?$AAR?$AAe?$AAl?$AAe?$AAa?$AAs?$AAe?$AA?5?$AAS?$AAo?$AAu?$AAr?$AAc?$AAe?$AA?5?$AAS?$AAc?$AAr?$AAa?$AAt?$AAc?$AAh?$AA?5?$AAS?$AAu?$AAr?$AAf?$AAa?$AAc?$AAe?$AA?$AN?$AA?6@ 10006cf8     blt_alpha.obj
 0001:00005d3c       ??_C@_1CE@OPKFBEBK@?$AAH?$AAW?$AAB?$AAi?$AAt?$AAB?$AAl?$AAt?$AA?5?$AAF?$AAa?$AAi?$AAl?$AAe?$AAd?$AA?$AN?$AA?6?$AA?$AA@ 10006d3c     blt_alpha.obj
 0001:00005d60       ??_C@_1BO@HKIEKAIP@?$AAP?$AAe?$AAr?$AAP?$AAi?$AAx?$AAe?$AAl?$AAM?$AAo?$AAd?$AAe?$AA?$AN?$AA?6?$AA?$AA@ 10006d60     blt_alpha.obj
 0001:00005d80       ??_C@_1BG@ILBANJLM@?$AAC?$AAo?$AAn?$AAs?$AAt?$AAa?$AAn?$AAt?$AA?$AN?$AA?6?$AA?$AA@ 10006d80     blt_alpha.obj
 0001:00005d98       ??_C@_1BK@DOAPIHMN@?$AAF?$AAa?$AAd?$AAi?$AAn?$AAg?$AAM?$AAo?$AAd?$AAe?$AA?$AN?$AA?6?$AA?$AA@ 10006d98     blt_alpha.obj
 0001:00005db8       ??_C@_1EO@BAPDDCDO@?$AAD?$AAT?$AAB?$AAa?$AAs?$AAe?$AA?3?$AA0?$AAx?$AA?$CF?$AAx?$AA?0?$AA?5?$AAV?$AAe?$AAr?$AAt?$AA?3?$AA?$CF?$AAd?$AA?0?$AA?5?$AAH?$AAo?$AAr?$AAi?$AA?3?$AA?$CF?$AAd?$AA?0?$AA?5?$AAC@ 10006db8     blt_alpha.obj
 0001:00005e08       ??_C@_1FA@NHNLDEAG@?$AAD?$AAT?$AAV?$AAB?$AAa?$AAs?$AAe?$AA?3?$AA0?$AAx?$AA?$CF?$AAx?$AA?0?$AA?5?$AAV?$AAe?$AAr?$AAt?$AA?3?$AA?$CF?$AAd?$AA?0?$AA?5?$AAH?$AAo?$AAr?$AAi?$AA?3?$AA?$CF?$AAd?$AA?0?$AA?5@ 10006e08     blt_alpha.obj
 0001:00005e58       ??_C@_1HA@MLLCLOKD@?$AAO?$AAf?$AAf?$AAs?$AAc?$AAr?$AAe?$AAe?$AAn?$AA?5?$AAB?$AAi?$AAt?$AAB?$AAl?$AAt?$AA?5?$AAD?$AAs?$AAt?$AA?5?$AAi?$AAn?$AA?5?$AAV?$AAi?$AAd?$AAe?$AAo?$AAM?$AAe?$AAm@ 10006e58     blt_alpha.obj
 0001:00005ec8       ??_C@_1EO@ENLKJILE@?$AAS?$AAB?$AAB?$AAa?$AAs?$AAe?$AA?3?$AA0?$AAx?$AA?$CF?$AAx?$AA?0?$AA?5?$AAV?$AAe?$AAr?$AAt?$AA?3?$AA?$CF?$AAd?$AA?0?$AA?5?$AAH?$AAo?$AAr?$AAi?$AA?3?$AA?$CF?$AAd?$AA?0?$AA?5?$AAC@ 10006ec8     blt_alpha.obj
 0001:00005f18       ??_C@_1FA@JKCFHLHM@?$AAS?$AAT?$AAV?$AAB?$AAa?$AAs?$AAe?$AA?3?$AA0?$AAx?$AA?$CF?$AAx?$AA?0?$AA?5?$AAV?$AAe?$AAr?$AAt?$AA?3?$AA?$CF?$AAd?$AA?0?$AA?5?$AAH?$AAo?$AAr?$AAi?$AA?3?$AA?$CF?$AAd?$AA?0?$AA?5@ 10006f18     blt_alpha.obj
 0001:00005f68       ??_C@_1HA@HEMILKEG@?$AAO?$AAf?$AAf?$AAs?$AAc?$AAr?$AAe?$AAe?$AAn?$AA?5?$AAB?$AAi?$AAt?$AAB?$AAl?$AAt?$AA?5?$AAS?$AAr?$AAc?$AA?5?$AAi?$AAn?$AA?5?$AAV?$AAi?$AAd?$AAe?$AAo?$AAM?$AAe?$AAm@ 10006f68     blt_alpha.obj
 0001:00005fd8       ??_C@_1FK@LHFLHHFH@?$AAO?$AAn?$AAs?$AAc?$AAr?$AAe?$AAe?$AAn?$AA?5?$AAC?$AAa?$AAc?$AAh?$AAe?$AAd?$AAB?$AAi?$AAt?$AAB?$AAl?$AAt?$AA?3?$AAA?$AAd?$AAd?$AAr?$AA?3?$AA0?$AAx?$AA?$CF?$AAx?$AA?0@ 10006fd8     blt_alpha.obj
 0001:00006038       ??_C@_1HA@LJGHEKMM@?$AAS?$AAc?$AAr?$AAa?$AAt?$AAc?$AAh?$AA?5?$AAS?$AAu?$AAr?$AAf?$AAa?$AAc?$AAe?$AA?5?$AAA?$AAl?$AAl?$AAo?$AAc?$AAa?$AAt?$AAi?$AAo?$AAn?$AA?5?$AAi?$AAs?$AA?5?$AAf?$AAa@ 10007038     blt_alpha.obj
 0001:000060a8       ??_C@_1II@OHEIAJLB@?$AA?$FL?$AAD?$AAI?$AAS?$AAP?$AAD?$AAR?$AAV?$AA?$FN?$AA?5?$AA?$CF?$AAs?$AA?$CI?$AA?$CJ?$AA?5?$AA?3?$AA?5?$AAo?$AAf?$AAf?$AAs?$AAe?$AAt?$AA?5?$AAi?$AAn?$AA?5?$AAv?$AAi?$AAd?$AAe?$AAo@ 100070a8     surf.obj
 0001:00006130       ??_C@_1DC@MAKJOAO@?$AAS?$AA3?$AAC?$AA6?$AA4?$AA1?$AA0?$AAS?$AAu?$AAr?$AAf?$AA?3?$AA?3?$AAS?$AA3?$AAC?$AA6?$AA4?$AA1?$AA0?$AAS?$AAu?$AAr?$AAf?$AA?$AA@ 10007130     surf.obj
 0001:00006168       ??_C@_1GE@OBJFDKAO@?$AA?$FL?$AAD?$AAI?$AAS?$AAP?$AAD?$AAR?$AAV?$AA?$FN?$AA?5?$AA?$CF?$AAs?$AA?$CI?$AA?5?$AA?$CF?$AAd?$AAx?$AA?$CF?$AAd?$AA?5?$AAs?$AAt?$AAr?$AAi?$AAd?$AAe?$AA?3?$AA?$CF?$AAd?$AA?5?$AAF?$AAM@ 10007168     surf.obj
 0001:000061d0       ??_7S3C6410Surf@@6B@       100071d0     surf.obj
 0001:00006218       ??_C@_1CE@MIKJJLKP@?$AAP?$AAA?$AAC?$AAS?$AAu?$AAr?$AAf?$AA?3?$AA?3?$AA?$HO?$AAP?$AAA?$AAC?$AAS?$AAu?$AAr?$AAf?$AA?$AA@ 10007218     surf.obj
 0001:00006240       ??_C@_1FE@IGIDFGLM@?$AA?6?$AA?$CF?$AAs?$AA?$CI?$AA?$CJ?$AA?3?$AA?5?$AAs?$AAi?$AAz?$AAe?$AA?3?$AA?5?$AA?$CF?$AAd?$AA?0?$AA?5?$AAV?$AAA?$AA?3?$AA?5?$AA0?$AAx?$AA?$CF?$AA0?$AA8?$AAx?$AA?0?$AA?5?$AAP?$AAA?$AA?3@ 10007240     surf.obj
 0001:00006298       ??_C@_1EK@MJJOONFD@?$AA?6?$AAP?$AAA?$AAC?$AAS?$AAu?$AAr?$AAf?$AAa?$AAc?$AAe?$AA?5?$AAd?$AAe?$AAa?$AAl?$AAl?$AAo?$AAc?$AAa?$AAt?$AAi?$AAo?$AAn?$AA?5?$AAi?$AAs?$AA?5?$AAf?$AAa?$AAi?$AAl@ 10007298     surf.obj
 0001:000062e8       ??_C@_1FO@BEANACBN@?$AA?6?$AAP?$AAA?$AAC?$AAS?$AAu?$AAr?$AAf?$AAa?$AAc?$AAe?$AA?5?$AAu?$AAn?$AAm?$AAa?$AAp?$AA?5?$AAf?$AAr?$AAo?$AAm?$AA?5?$AAc?$AAa?$AAl?$AAl?$AAe?$AAr?$AA?5?$AAp?$AAr@ 100072e8     surf.obj
 0001:00006348       ??_7PACSurf@@6B@           10007348     surf.obj
 0001:00006390       ??_C@_1GE@LPNFDAJO@?$AA?$FL?$AAD?$AAI?$AAS?$AAP?$AAD?$AAR?$AAV?$AA?3?$AAE?$AAR?$AAR?$AA?$FN?$AA?5?$AA?$CF?$AAs?$AA?$CI?$AA?$CJ?$AA?5?$AA?3?$AA?5?$AAS?$AAu?$AAr?$AAf?$AAa?$AAc?$AAe?$AAH?$AAe?$AAa?$AAp@ 10007390     surf.obj
 0001:000063f8       ??_C@_1GG@PBAIDKAC@?$AA?$FL?$AAD?$AAI?$AAS?$AAP?$AAD?$AAR?$AAV?$AA?3?$AAE?$AAR?$AAR?$AA?$FN?$AA?5?$AA?$CF?$AAs?$AA?$CI?$AA?$CJ?$AA?5?$AA?3?$AA?5?$AAC?$AAr?$AAe?$AAa?$AAt?$AAe?$AA?5?$AAS?$AA3?$AAC?$AA6@ 100073f8     surf.obj
 0001:00006460       ??_C@_1FC@DPIHAPMF@?$AA?$FL?$AAD?$AAI?$AAS?$AAP?$AAD?$AAR?$AAV?$AA?$FN?$AA?5?$AA?$CF?$AAs?$AA?$CI?$AA?$CJ?$AA?5?$AA?3?$AA?5?$AAA?$AAl?$AAl?$AAo?$AAc?$AAa?$AAt?$AAe?$AAd?$AA?5?$AAP?$AAA?$AA?5?$AA?$DN?$AA?5@ 10007460     surf.obj
 0001:000064b4       ??_C@_1DO@EBBJGGKI@?$AAS?$AA3?$AAC?$AA6?$AA4?$AA1?$AA0?$AAD?$AAi?$AAs?$AAp?$AA?3?$AA?3?$AAA?$AAl?$AAl?$AAo?$AAc?$AAS?$AAu?$AAr?$AAf?$AAa?$AAc?$AAe?$AAV?$AAi?$AAd?$AAe?$AAo?$AA?$AA@ 100074b4     surf.obj
 0001:000064f8       ??_C@_1EG@FJCCDEEG@?$AAE?$AAR?$AAR?$AAO?$AAR?$AA?0?$AA?5?$AAI?$AAn?$AAv?$AAa?$AAl?$AAi?$AAd?$AA?5?$AAS?$AAu?$AAr?$AAf?$AAa?$AAc?$AAe?$AAH?$AAe?$AAa?$AAp?$AA?5?$AAA?$AAd?$AAd?$AAr?$AAe@ 100074f8     surf.obj
 0001:00006540       ??_C@_1DE@DKOHDNOJ@?$AAS?$AA3?$AAC?$AA6?$AA4?$AA1?$AA0?$AAS?$AAu?$AAr?$AAf?$AA?3?$AA?3?$AA?$HO?$AAS?$AA3?$AAC?$AA6?$AA4?$AA1?$AA0?$AAS?$AAu?$AAr?$AAf?$AA?$AA@ 10007540     surf.obj
 0001:00006578       ??_C@_1HM@LNIHOHI@?$AA?$AN?$AA?6?$AA?$FL?$AAD?$AAI?$AAS?$AAP?$AAD?$AAR?$AAV?$AA?$FN?$AA?5?$AA?$CF?$AAs?$AA?$CI?$AA?$CJ?$AA?5?$AA?3?$AA?5?$AAH?$AAe?$AAa?$AAp?$AA?5?$AA0?$AAx?$AA?$CF?$AA0?$AA8?$AAx?$AA?5?$AAA@ 10007578     surf.obj
 0001:000065f8       ??_C@_1MC@DKFHDBNJ@?$AA?$FL?$AAD?$AAI?$AAS?$AAP?$AAD?$AAR?$AAV?$AA?3?$AAE?$AAR?$AAR?$AA?$FN?$AA?5?$AAP?$AAA?$AAC?$AA?5?$AAS?$AAu?$AAr?$AAf?$AA?3?$AA?5?$AAA?$AAl?$AAl?$AAo?$AAc?$AAP?$AAh?$AAy@ 100075f8     surf.obj
 0001:000066c0       ??_C@_1KM@NBLHANDJ@?$AA?6?$AA?$CF?$AAs?$AA?$CI?$AA?$CJ?$AA?3?$AA?5?$AAs?$AAi?$AAz?$AAe?$AA?5?$AA?3?$AA?5?$AA?$CF?$AAd?$AA?0?$AA?5?$AAP?$AAA?$AAC?$AA?5?$AAS?$AAu?$AAr?$AAf?$AA?5?$AAP?$AAA?$AA?5?$AAB?$AAa@ 100076c0     surf.obj
 0001:00006770       ??_C@_1IA@FNBOEGGP@?$AA?$FL?$AAD?$AAI?$AAS?$AAP?$AAD?$AAR?$AAV?$AA?3?$AAE?$AAR?$AAR?$AA?$FN?$AA?5?$AAM?$AAa?$AAp?$AAp?$AAi?$AAn?$AAg?$AA?5?$AAP?$AAA?$AAC?$AA?5?$AAS?$AAu?$AAr?$AAf?$AA?5?$AAt@ 10007770     surf.obj
 0001:000067f0       ??_C@_1CC@LCAGJHDG@?$AAP?$AAA?$AAC?$AAS?$AAu?$AAr?$AAf?$AA?3?$AA?3?$AAP?$AAA?$AAC?$AAS?$AAu?$AAr?$AAf?$AA?$AA@ 100077f0     surf.obj
 0001:00006818       ??_C@_1FM@GOLCDHLD@?$AA?$FL?$AAD?$AAI?$AAS?$AAP?$AAD?$AAR?$AAV?$AA?$FN?$AA?5?$AA?5?$AA?$CF?$AAs?$AA?$CI?$AA?$CF?$AAd?$AAx?$AA?$CF?$AAd?$AA?0?$AA?5?$AA?$CF?$AAd?$AA?0?$AA?5?$AAF?$AAM?$AAT?$AA?3?$AA?$CF?$AAd?$AA?0@ 10007818     surf.obj
 0001:00006878       ??_C@_1MC@BJHAGKBJ@?$AA?$FL?$AAD?$AAI?$AAS?$AAP?$AAD?$AAR?$AAV?$AA?3?$AAE?$AAR?$AAR?$AA?$FN?$AA?5?$AAA?$AAl?$AAl?$AAo?$AAc?$AAS?$AAu?$AAr?$AAf?$AAa?$AAc?$AAe?$AA?$CI?$AA?$CJ?$AA?5?$AA?3?$AA?5?$AAP@ 10007878     surf.obj
 0001:00006940       ??_C@_1ME@ONIGLNMH@?$AA?$FL?$AAD?$AAI?$AAS?$AAP?$AAD?$AAR?$AAV?$AA?3?$AAE?$AAR?$AAR?$AA?$FN?$AA?5?$AAA?$AAl?$AAl?$AAo?$AAc?$AAS?$AAu?$AAr?$AAf?$AAa?$AAc?$AAe?$AA?$CI?$AA?$CJ?$AA?5?$AA?3?$AA?5?$AAP@ 10007940     surf.obj
 0001:00006a04       ??_C@_1DM@KBNJCDCP@?$AAS?$AA3?$AAC?$AA6?$AA4?$AA1?$AA0?$AAD?$AAi?$AAs?$AAp?$AA?3?$AA?3?$AAA?$AAl?$AAl?$AAo?$AAc?$AAS?$AAu?$AAr?$AAf?$AAa?$AAc?$AAe?$AAP?$AAA?$AAC?$AAS?$AA?$AA@ 10007a04     surf.obj
 0001:00006a40       ??_C@_1GE@BBMBJFFH@?$AA?$FL?$AAD?$AAI?$AAS?$AAP?$AAD?$AAR?$AAV?$AA?$FN?$AA?5?$AA?$CF?$AAs?$AA?$CI?$AA?5?$AA?$CF?$AAd?$AAx?$AA?$CF?$AAd?$AA?5?$AAF?$AAM?$AAT?$AA?3?$AA?$CF?$AAd?$AA?5?$AAs?$AAt?$AAr?$AAi?$AAd@ 10007a40     surf.obj
 0001:00006aa8       ??_C@_1HC@DFFBHLCE@?$AA?$FL?$AAD?$AAI?$AAS?$AAP?$AAD?$AAR?$AAV?$AA?3?$AAE?$AAR?$AAR?$AA?$FN?$AA?5?$AAA?$AAl?$AAl?$AAo?$AAc?$AAS?$AAu?$AAr?$AAf?$AAa?$AAc?$AAe?$AA?$CI?$AA?$CJ?$AA?5?$AA?3?$AA?5?$AAS@ 10007aa8     surf.obj
 0001:00006b20       ??_C@_1EK@CCNFFBIP@?$AA?$FL?$AAD?$AAI?$AAS?$AAP?$AAD?$AAR?$AAV?$AA?3?$AAE?$AAR?$AAR?$AA?$FN?$AA?5?$AA?$CF?$AAs?$AA?$CI?$AA?$CJ?$AA?5?$AA?3?$AA?5?$AAO?$AAU?$AAT?$AA?5?$AAO?$AAF?$AA?5?$AAM?$AAE?$AAM?$AAO@ 10007b20     surf.obj
 0001:00006b70       ??_C@_1MI@DNACDEBH@?$AA?$FL?$AAD?$AAI?$AAS?$AAP?$AAD?$AAR?$AAV?$AA?3?$AAE?$AAR?$AAR?$AA?$FN?$AA?5?$AAA?$AAl?$AAl?$AAo?$AAc?$AAS?$AAu?$AAr?$AAf?$AAa?$AAc?$AAe?$AA?$CI?$AA?$CJ?$AA?5?$AA?3?$AA?5?$AAC@ 10007b70     surf.obj
 0001:00006c38       ??_C@_1DE@GADBNKMD@?$AAS?$AA3?$AAC?$AA6?$AA4?$AA1?$AA0?$AAD?$AAi?$AAs?$AAp?$AA?3?$AA?3?$AAA?$AAl?$AAl?$AAo?$AAc?$AAS?$AAu?$AAr?$AAf?$AAa?$AAc?$AAe?$AA?$AA@ 10007c38     surf.obj
 0001:00006c70       ??_C@_1FE@HFFOIDLB@?$AA?$FL?$AAD?$AAI?$AAS?$AAP?$AAD?$AAR?$AAV?$AA?$FN?$AA?5?$AA?$CF?$AAs?$AA?$CI?$AA?5?$AA?$CF?$AAd?$AAx?$AA?$CF?$AAd?$AA?5?$AAF?$AAM?$AAT?$AA?3?$AA?$CF?$AAd?$AA?5?$AAf?$AAl?$AAa?$AAg?$AAs@ 10007c70     surf.obj
 0001:00006cc8       ??_C@_1HM@KJLCGIKF@?$AA?$FL?$AAD?$AAI?$AAS?$AAP?$AAD?$AAR?$AAV?$AA?$FN?$AA?5?$AA?$CF?$AAs?$AA?$CI?$AA?$CJ?$AA?5?$AA?3?$AA?5?$AAH?$AAW?$AA?5?$AAa?$AAc?$AAc?$AAe?$AAl?$AAe?$AAr?$AAa?$AAt?$AAi?$AAo?$AAn@ 10007cc8     surf.obj
 0001:00006d48       ??_C@_1IK@FGMECLDH@?$AA?$FL?$AAD?$AAI?$AAS?$AAP?$AAD?$AAR?$AAV?$AA?$FN?$AA?5?$AA?$CF?$AAs?$AA?$CI?$AA?$CJ?$AA?5?$AA?3?$AA?5?$AAA?$AAl?$AAl?$AAo?$AAc?$AAa?$AAt?$AAe?$AAd?$AA?5?$AAS?$AAY?$AAS?$AAT?$AAE@ 10007d48     surf.obj
 0001:00006dd8       ??_C@_1ME@MPFKNGAL@?$AA?$FL?$AAD?$AAI?$AAS?$AAP?$AAD?$AAR?$AAV?$AA?3?$AAW?$AAA?$AAR?$AAN?$AA?$FN?$AA?5?$AA?$CF?$AAs?$AA?$CI?$AA?$CJ?$AA?5?$AA?3?$AA?5?$AAs?$AAu?$AAr?$AAf?$AAa?$AAc?$AAe?$AA?5?$AAs?$AAi@ 10007dd8     surf.obj
 0001:00006ea0       ??_C@_1GE@JNBOHJNK@?$AA?$FL?$AAD?$AAI?$AAS?$AAP?$AAD?$AAR?$AAV?$AA?3?$AAE?$AAR?$AAR?$AA?$FN?$AA?5?$AA?$CF?$AAs?$AA?$CI?$AA?$CJ?$AA?5?$AA?3?$AA?5?$AAA?$AAl?$AAl?$AAo?$AAc?$AAS?$AAu?$AAr?$AAf?$AAa?$AAc@ 10007ea0     surf.obj
 0001:00006f08       ??_C@_1GI@BIIJAMPC@?$AA?$FL?$AAD?$AAI?$AAS?$AAP?$AAD?$AAR?$AAV?$AA?$FN?$AA?5?$AA?$CF?$AAs?$AA?$CI?$AA?5?$AA?$CF?$AAd?$AAx?$AA?$CF?$AAd?$AA?5?$AAF?$AAM?$AAT?$AA?3?$AA?$CF?$AAd?$AA?5?$AAP?$AAF?$AAM?$AAT?$AA?3@ 10007f08     surf.obj
 0001:00006f70       ??_C@_1DK@OLOPGEIJ@?$AA?$FL?$AAD?$AAD?$AAH?$AAA?$AAL?$AA?$FN?$AA?5?$AA?9?$AA?9?$AAb?$AAu?$AAi?$AAl?$AAd?$AAD?$AAD?$AAH?$AAA?$AAL?$AAI?$AAn?$AAf?$AAo?$AA?$CI?$AA?$CJ?$AA?$AN?$AA?6?$AA?$AA@ 10007f70     halcaps.obj
 0001:00006fb0       ??_C@_1HG@EGNPBDEF@?$AA?$FL?$AAD?$AAD?$AAH?$AAA?$AAL?$AA?3?$AAI?$AAN?$AAF?$AA?$FN?$AA?5?$AAb?$AAu?$AAi?$AAl?$AAd?$AAD?$AAD?$AAH?$AAA?$AAL?$AAI?$AAn?$AAf?$AAo?$AA?$CI?$AA?$CJ?$AA?5?$AA?3?$AA?5?$AA?5@ 10007fb0     halcaps.obj
 0001:00007028       ??_C@_1GO@KHAKDAEG@?$AA?$FL?$AAD?$AAD?$AAH?$AAA?$AAL?$AA?3?$AAI?$AAN?$AAF?$AA?$FN?$AA?5?$AAb?$AAu?$AAi?$AAl?$AAd?$AAD?$AAD?$AAH?$AAA?$AAL?$AAI?$AAn?$AAf?$AAo?$AA?$CI?$AA?$CJ?$AA?5?$AA?3?$AA?5?$AA?5@ 10008028     halcaps.obj
 0001:00007098       ??_C@_1DK@MOOBBDHP@?$AA?$FL?$AAD?$AAD?$AAH?$AAA?$AAL?$AA?$FN?$AA?5?$AA?$CL?$AA?$CL?$AAb?$AAu?$AAi?$AAl?$AAd?$AAD?$AAD?$AAH?$AAA?$AAL?$AAI?$AAn?$AAf?$AAo?$AA?$CI?$AA?$CJ?$AA?$AN?$AA?6?$AA?$AA@ 10008098     halcaps.obj
 0001:000070d4       ??_C@_1CC@GECOFPBP@?$AA?$FL?$AAD?$AAD?$AAH?$AAA?$AAL?$AA?$FN?$AA?5?$AA?9?$AA?9?$AA?$CF?$AAs?$AA?$CI?$AA?$CJ?$AA?6?$AA?$AN?$AA?$AA@ 100080d4     haldd.obj
 0001:000070f8       ??_C@_1BO@OFIMELOL@?$AAH?$AAa?$AAl?$AAG?$AAe?$AAt?$AAS?$AAc?$AAa?$AAn?$AAL?$AAi?$AAn?$AAe?$AA?$AA@ 100080f8     haldd.obj
 0001:00007118       ??_C@_1CC@DJMDIKHO@?$AA?$FL?$AAD?$AAD?$AAH?$AAA?$AAL?$AA?$FN?$AA?5?$AA?$CL?$AA?$CL?$AA?$CF?$AAs?$AA?$CI?$AA?$CJ?$AA?6?$AA?$AN?$AA?$AA@ 10008118     haldd.obj
 0001:0000713c       ??_C@_1DO@ILEPFLKC@?$AA?$FL?$AAD?$AAD?$AAH?$AAA?$AAL?$AA?$FN?$AA?5?$AA?9?$AA?9?$AAH?$AAa?$AAl?$AAG?$AAe?$AAt?$AAD?$AAr?$AAi?$AAv?$AAe?$AAr?$AAI?$AAn?$AAf?$AAo?$AA?$CI?$AA?$CJ?$AA?6?$AA?$AN?$AA?$AA@ 1000813c     haldd.obj
 0001:0000717c       ??_C@_1DG@HEBEDJNF@?$AA?$FL?$AAD?$AAD?$AAH?$AAA?$AAL?$AA?3?$AAE?$AAR?$AAR?$AA?$FN?$AA?5?$AAU?$AAn?$AAk?$AAn?$AAo?$AAw?$AAn?$AA?5?$AAG?$AAU?$AAI?$AAD?$AA?6?$AA?$AN?$AA?$AA@ 1000817c     haldd.obj
 0001:000071b4       ??_C@_1DO@KMHLJFMF@?$AA?$FL?$AAD?$AAD?$AAH?$AAA?$AAL?$AA?$FN?$AA?5?$AA?$CL?$AA?$CL?$AAH?$AAa?$AAl?$AAG?$AAe?$AAt?$AAD?$AAr?$AAi?$AAv?$AAe?$AAr?$AAI?$AAn?$AAf?$AAo?$AA?$CI?$AA?$CJ?$AA?6?$AA?$AN?$AA?$AA@ 100081b4     haldd.obj
 0001:000071f8       ??_C@_1GM@CDFINMO@?$AA?$FL?$AAD?$AAD?$AAH?$AAA?$AAL?$AA?3?$AAE?$AAR?$AAR?$AA?$FN?$AA?5?$AAH?$AAa?$AAl?$AAC?$AAr?$AAe?$AAa?$AAt?$AAe?$AAS?$AAu?$AAr?$AAf?$AAa?$AAc?$AAe?$AA?$CI?$AA?$CJ?$AA?5?$AA?3@ 100081f8     halsurf.obj
 0001:00007268       ??_C@_1EG@JAOPLKBG@?$AA?$FL?$AAD?$AAD?$AAH?$AAA?$AAL?$AA?$FN?$AA?5?$AAH?$AAa?$AAl?$AAC?$AAa?$AAn?$AAC?$AAr?$AAe?$AAa?$AAt?$AAe?$AAS?$AAu?$AAr?$AAf?$AAa?$AAc?$AAe?$AA?$CI?$AA?$CJ?$AA?5?$AAO?$AAK@ 10008268     halsurf.obj
 0001:000072b0       ??_C@_1HE@FEIFLK@?$AA?$FL?$AAD?$AAD?$AAH?$AAA?$AAL?$AA?3?$AAE?$AAR?$AAR?$AA?$FN?$AA?5?$AAH?$AAa?$AAl?$AAC?$AAa?$AAn?$AAC?$AAr?$AAe?$AAa?$AAt?$AAe?$AAS?$AAu?$AAr?$AAf?$AAa?$AAc?$AAe?$AA?$CI@ 100082b0     halsurf.obj
 0001:00007324       ??_C@_1BM@MEDBDOHO@?$AAD?$AAi?$AAf?$AAf?$AAP?$AAi?$AAx?$AAe?$AAl?$AA?3?$AA?$CF?$AAd?$AA?6?$AA?$AA@ 10008324     halsurf.obj
 0001:00007340       ??_C@_1KM@KJKJFFEG@?$AA?$FL?$AAD?$AAD?$AAH?$AAA?$AAL?$AA?3?$AAE?$AAR?$AAR?$AA?$FN?$AA?5?$AAH?$AAa?$AAl?$AAC?$AAa?$AAn?$AAC?$AAr?$AAe?$AAa?$AAt?$AAe?$AAS?$AAu?$AAr?$AAf?$AAa?$AAc?$AAe?$AA?$CI@ 10008340     halsurf.obj
 0001:000073f0       ??_C@_1KM@FGDCGPLA@?$AA?$FL?$AAD?$AAD?$AAH?$AAA?$AAL?$AA?3?$AAE?$AAR?$AAR?$AA?$FN?$AA?5?$AAH?$AAa?$AAl?$AAC?$AAa?$AAn?$AAC?$AAr?$AAe?$AAa?$AAt?$AAe?$AAS?$AAu?$AAr?$AAf?$AAa?$AAc?$AAe?$AA?$CI@ 100083f0     halsurf.obj
 0001:000074a0       ??_C@_1HK@CFOBJHMN@?$AAH?$AAa?$AAl?$AAC?$AAa?$AAn?$AAC?$AAr?$AAe?$AAa?$AAt?$AAe?$AAS?$AAu?$AAr?$AAf?$AAa?$AAc?$AAe?$AA?4?$AA?5?$AAd?$AAw?$AAC?$AAa?$AAp?$AAs?$AA?5?$AA?3?$AA?5?$AA0?$AAx@ 100084a0     halsurf.obj
 0001:00007520       ??_C@_1HG@BNIANEMH@?$AA?$FL?$AAD?$AAD?$AAH?$AAA?$AAL?$AA?3?$AAE?$AAR?$AAR?$AA?$FN?$AA?5?$AAH?$AAa?$AAl?$AAF?$AAl?$AAi?$AAp?$AA?$CI?$AA?$CJ?$AA?5?$AA?3?$AA?5?$AAD?$AAD?$AAF?$AAL?$AAI?$AAP?$AA_?$AAI@ 10008520     halsurf.obj
 0001:00007598       ??_C@_1HA@OLKHNMMN@?$AA?$FL?$AAD?$AAD?$AAH?$AAA?$AAL?$AA?3?$AAE?$AAR?$AAR?$AA?$FN?$AA?5?$AAH?$AAa?$AAl?$AAS?$AAe?$AAt?$AAC?$AAo?$AAl?$AAo?$AAr?$AAK?$AAe?$AAy?$AA?$CI?$AA?$CJ?$AA?5?$AA?3?$AA?5?$AAS@ 10008598     halsurf.obj
 0001:00007608       ??_C@_1JO@CDKCOKME@?$AA?$FL?$AAD?$AAD?$AAH?$AAA?$AAL?$AA?3?$AAE?$AAR?$AAR?$AA?$FN?$AA?5?$AAH?$AAa?$AAl?$AAS?$AAe?$AAt?$AAC?$AAo?$AAl?$AAo?$AAr?$AAK?$AAe?$AAy?$AA?$CI?$AA?$CJ?$AA?5?$AA?3?$AA?5?$AAC@ 10008608     halsurf.obj
 0001:000076a8       ??_C@_1HE@GEOCENAN@?$AA?$FL?$AAD?$AAD?$AAH?$AAA?$AAL?$AA?3?$AAE?$AAR?$AAR?$AA?$FN?$AA?5?$AAH?$AAa?$AAl?$AAS?$AAe?$AAt?$AAC?$AAo?$AAl?$AAo?$AAr?$AAK?$AAe?$AAy?$AA?$CI?$AA?$CJ?$AA?5?$AA?3?$AA?5?$AAI@ 100086a8     halsurf.obj
 0001:00007720       ??_C@_1IG@NNFEDINK@?$AA?$FL?$AAD?$AAD?$AAH?$AAA?$AAL?$AA?3?$AAE?$AAR?$AAR?$AA?$FN?$AA?5?$AAH?$AAa?$AAl?$AAS?$AAe?$AAt?$AAC?$AAo?$AAl?$AAo?$AAr?$AAK?$AAe?$AAy?$AA?$CI?$AA?$CJ?$AA?5?$AA?3?$AA?5?$AAC@ 10008720     halsurf.obj
 0001:000077a8       ??_C@_1NG@CDOFBNCN@?$AA?$FL?$AAD?$AAD?$AAH?$AAA?$AAL?$AA?3?$AAE?$AAR?$AAR?$AA?$FN?$AA?5?$AAH?$AAa?$AAl?$AAU?$AAp?$AAd?$AAa?$AAt?$AAe?$AAO?$AAv?$AAe?$AAr?$AAl?$AAa?$AAy?$AA?$CI?$AA?$CJ?$AA?5?$AA?3@ 100087a8     halsurf.obj
 0001:00007880       ??_C@_1HM@PNODLLBE@?$AA?$FL?$AAD?$AAD?$AAH?$AAA?$AAL?$AA?3?$AAE?$AAR?$AAR?$AA?$FN?$AA?5?$AAH?$AAa?$AAl?$AAU?$AAp?$AAd?$AAa?$AAt?$AAe?$AAO?$AAv?$AAe?$AAr?$AAl?$AAa?$AAy?$AA?$CI?$AA?$CJ?$AA?5?$AA?3@ 10008880     halsurf.obj
 0001:00007900       ??_C@_1JE@CCGPOAJB@?$AA?$FL?$AAD?$AAD?$AAH?$AAA?$AAL?$AA?3?$AAE?$AAR?$AAR?$AA?$FN?$AA?5?$AAH?$AAa?$AAl?$AAU?$AAp?$AAd?$AAa?$AAt?$AAe?$AAO?$AAv?$AAe?$AAr?$AAl?$AAa?$AAy?$AA?$CI?$AA?$CJ?$AA?5?$AA?3@ 10008900     halsurf.obj
 0001:00007998       ??_C@_1FO@OPAPOFPE@?$AA?$FL?$AAD?$AAI?$AAS?$AAP?$AAD?$AAR?$AAV?$AA?$FN?$AA?5?$AA?9?$AA?9?$AAS?$AA3?$AAC?$AA6?$AA4?$AA1?$AA0?$AAD?$AAi?$AAs?$AAp?$AA?3?$AA?3?$AAD?$AAe?$AAv?$AAO?$AAu?$AAt?$AAp@ 10008998     tvcontrol.obj
 0001:000079f8       ??_C@_1JK@ENKMGHEI@?$AA?$FL?$AAD?$AAI?$AAS?$AAP?$AAD?$AAR?$AAV?$AA?3?$AAE?$AAR?$AAR?$AA?$FN?$AA?5?$AAD?$AAe?$AAv?$AAO?$AAu?$AAt?$AAp?$AAu?$AAt?$AAE?$AAn?$AAa?$AAb?$AAl?$AAe?$AAT?$AAV?$AA?$CI@ 100089f8     tvcontrol.obj
 0001:00007a98       ??_C@_1JM@HPPOGMIG@?$AA?$FL?$AAD?$AAI?$AAS?$AAP?$AAD?$AAR?$AAV?$AA?3?$AAE?$AAR?$AAR?$AA?$FN?$AA?5?$AAD?$AAe?$AAv?$AAO?$AAu?$AAt?$AAp?$AAu?$AAt?$AAE?$AAn?$AAa?$AAb?$AAl?$AAe?$AAT?$AAV?$AA?$CI@ 10008a98     tvcontrol.obj
 0001:00007b38       ??_C@_1KG@JJANOJGI@?$AA?$FL?$AAD?$AAI?$AAS?$AAP?$AAD?$AAR?$AAV?$AA?3?$AAE?$AAR?$AAR?$AA?$FN?$AA?5?$AAD?$AAe?$AAv?$AAO?$AAu?$AAt?$AAp?$AAu?$AAt?$AAE?$AAn?$AAa?$AAb?$AAl?$AAe?$AAT?$AAV?$AA?$CI@ 10008b38     tvcontrol.obj
 0001:00007be0       ??_C@_1JI@FBCAPPIH@?$AA?$FL?$AAD?$AAI?$AAS?$AAP?$AAD?$AAR?$AAV?$AA?3?$AAE?$AAR?$AAR?$AA?$FN?$AA?5?$AAD?$AAe?$AAv?$AAO?$AAu?$AAt?$AAp?$AAu?$AAt?$AAE?$AAn?$AAa?$AAb?$AAl?$AAe?$AAT?$AAV?$AA?$CI@ 10008be0     tvcontrol.obj
 0001:00007c78       ??_C@_1HM@KCPOHJBA@?$AA?$FL?$AAD?$AAI?$AAS?$AAP?$AAD?$AAR?$AAV?$AA?3?$AAE?$AAR?$AAR?$AA?$FN?$AA?5?$AAD?$AAe?$AAv?$AAO?$AAu?$AAt?$AAp?$AAu?$AAt?$AAE?$AAn?$AAa?$AAb?$AAl?$AAe?$AAT?$AAV?$AA?$CI@ 10008c78     tvcontrol.obj
 0001:00007cf8       ??_C@_1JI@PPEFLBHF@?$AA?$FL?$AAD?$AAI?$AAS?$AAP?$AAD?$AAR?$AAV?$AA?3?$AAE?$AAR?$AAR?$AA?$FN?$AA?5?$AAD?$AAe?$AAv?$AAO?$AAu?$AAt?$AAp?$AAu?$AAt?$AAE?$AAn?$AAa?$AAb?$AAl?$AAe?$AAT?$AAV?$AA?$CI@ 10008cf8     tvcontrol.obj
 0001:00007d90       ??_C@_1KC@NGICEGIF@?$AA?$FL?$AAD?$AAI?$AAS?$AAP?$AAD?$AAR?$AAV?$AA?3?$AAE?$AAR?$AAR?$AA?$FN?$AA?5?$AAD?$AAe?$AAv?$AAO?$AAu?$AAt?$AAp?$AAu?$AAt?$AAE?$AAn?$AAa?$AAb?$AAl?$AAe?$AAT?$AAV?$AA?$CI@ 10008d90     tvcontrol.obj
 0001:00007e38       ??_C@_1KC@PMLJNHEC@?$AA?$FL?$AAD?$AAI?$AAS?$AAP?$AAD?$AAR?$AAV?$AA?3?$AAE?$AAR?$AAR?$AA?$FN?$AA?5?$AAD?$AAe?$AAv?$AAO?$AAu?$AAt?$AAp?$AAu?$AAt?$AAE?$AAn?$AAa?$AAb?$AAl?$AAe?$AAT?$AAV?$AA?$CI@ 10008e38     tvcontrol.obj
 0001:00007ee0       ??_C@_1JE@GFEFJPJM@?$AA?$FL?$AAD?$AAI?$AAS?$AAP?$AAD?$AAR?$AAV?$AA?3?$AAE?$AAR?$AAR?$AA?$FN?$AA?5?$AAD?$AAe?$AAv?$AAO?$AAu?$AAt?$AAp?$AAu?$AAt?$AAE?$AAn?$AAa?$AAb?$AAl?$AAe?$AAT?$AAV?$AA?$CI@ 10008ee0     tvcontrol.obj
 0001:00007f78       ??_C@_1JO@DMDFEJHB@?$AA?$FL?$AAD?$AAI?$AAS?$AAP?$AAD?$AAR?$AAV?$AA?3?$AAE?$AAR?$AAR?$AA?$FN?$AA?5?$AAD?$AAe?$AAv?$AAO?$AAu?$AAt?$AAp?$AAu?$AAt?$AAE?$AAn?$AAa?$AAb?$AAl?$AAe?$AAT?$AAV?$AA?$CI@ 10008f78     tvcontrol.obj
 0001:00008018       ??_C@_1FO@IDOFENBH@?$AA?$FL?$AAD?$AAI?$AAS?$AAP?$AAD?$AAR?$AAV?$AA?$FN?$AA?5?$AA?$CL?$AA?$CL?$AAS?$AA3?$AAC?$AA6?$AA4?$AA1?$AA0?$AAD?$AAi?$AAs?$AAp?$AA?3?$AA?3?$AAD?$AAe?$AAv?$AAO?$AAu?$AAt?$AAp@ 10009018     tvcontrol.obj
 0001:00008078       ??_C@_1GA@DCELCFJ@?$AA?$FL?$AAD?$AAI?$AAS?$AAP?$AAD?$AAR?$AAV?$AA?$FN?$AA?5?$AA?9?$AA?9?$AAS?$AA3?$AAC?$AA6?$AA4?$AA1?$AA0?$AAD?$AAi?$AAs?$AAp?$AA?3?$AA?3?$AAD?$AAe?$AAv?$AAO?$AAu?$AAt?$AAp@ 10009078     tvcontrol.obj
 0001:000080d8       ??_C@_1JM@HOOHAPGD@?$AA?$FL?$AAD?$AAI?$AAS?$AAP?$AAD?$AAR?$AAV?$AA?3?$AAE?$AAR?$AAR?$AA?$FN?$AA?5?$AAD?$AAe?$AAv?$AAO?$AAu?$AAt?$AAp?$AAu?$AAt?$AAD?$AAi?$AAs?$AAa?$AAb?$AAl?$AAe?$AAT?$AAV@ 100090d8     tvcontrol.obj
 0001:00008178       ??_C@_1KA@KBICLPBB@?$AA?$FL?$AAD?$AAI?$AAS?$AAP?$AAD?$AAR?$AAV?$AA?3?$AAE?$AAR?$AAR?$AA?$FN?$AA?5?$AAD?$AAe?$AAv?$AAO?$AAu?$AAt?$AAp?$AAu?$AAt?$AAD?$AAi?$AAs?$AAa?$AAb?$AAl?$AAe?$AAT?$AAV@ 10009178     tvcontrol.obj
 0001:00008218       ??_C@_1GA@KOHKFFEG@?$AA?$FL?$AAD?$AAI?$AAS?$AAP?$AAD?$AAR?$AAV?$AA?$FN?$AA?5?$AA?$CL?$AA?$CL?$AAS?$AA3?$AAC?$AA6?$AA4?$AA1?$AA0?$AAD?$AAi?$AAs?$AAp?$AA?3?$AA?3?$AAD?$AAe?$AAv?$AAO?$AAu?$AAt?$AAp@ 10009218     tvcontrol.obj
 0001:00008278       ??_C@_1GE@MCLFJDLK@?$AA?$FL?$AAD?$AAI?$AAS?$AAP?$AAD?$AAR?$AAV?$AA?$FN?$AA?5?$AA?9?$AA?9?$AAS?$AA3?$AAC?$AA6?$AA4?$AA1?$AA0?$AAD?$AAi?$AAs?$AAp?$AA?3?$AA?3?$AAD?$AAe?$AAv?$AAO?$AAu?$AAt?$AAp@ 10009278     tvcontrol.obj
 0001:000082e0       ??_C@_1KM@FPNCLDKF@?$AA?$FL?$AAD?$AAI?$AAS?$AAP?$AAD?$AAR?$AAV?$AA?3?$AAE?$AAR?$AAR?$AA?$FN?$AA?5?$AAD?$AAe?$AAv?$AAO?$AAu?$AAt?$AAp?$AAu?$AAt?$AAE?$AAn?$AAa?$AAb?$AAl?$AAe?$AAT?$AAV?$AAD@ 100092e0     tvcontrol.obj
 0001:00008390       ??_C@_1KC@DLBFIFP@?$AA?$FL?$AAD?$AAI?$AAS?$AAP?$AAD?$AAR?$AAV?$AA?3?$AAE?$AAR?$AAR?$AA?$FN?$AA?5?$AAD?$AAe?$AAv?$AAO?$AAu?$AAt?$AAp?$AAu?$AAt?$AAE?$AAn?$AAa?$AAb?$AAl?$AAe?$AAT?$AAV?$AAD@ 10009390     tvcontrol.obj
 0001:00008438       ??_C@_1KI@PFBGAEID@?$AA?$FL?$AAD?$AAI?$AAS?$AAP?$AAD?$AAR?$AAV?$AA?3?$AAE?$AAR?$AAR?$AA?$FN?$AA?5?$AAD?$AAe?$AAv?$AAO?$AAu?$AAt?$AAp?$AAu?$AAt?$AAE?$AAn?$AAa?$AAb?$AAl?$AAe?$AAT?$AAV?$AAD@ 10009438     tvcontrol.obj
 0001:000084e0       ??_C@_1MK@NLEEJPEP@?$AA?$FL?$AAD?$AAI?$AAS?$AAP?$AAD?$AAR?$AAV?$AA?3?$AAE?$AAR?$AAR?$AA?$FN?$AA?5?$AAD?$AAe?$AAv?$AAO?$AAu?$AAt?$AAp?$AAu?$AAt?$AAE?$AAn?$AAa?$AAb?$AAl?$AAe?$AAT?$AAV?$AAD@ 100094e0     tvcontrol.obj
 0001:000085b0       ??_C@_1GE@OKDNLNNJ@?$AA?$FL?$AAD?$AAI?$AAS?$AAP?$AAD?$AAR?$AAV?$AA?$FN?$AA?5?$AA?$CL?$AA?$CL?$AAS?$AA3?$AAC?$AA6?$AA4?$AA1?$AA0?$AAD?$AAi?$AAs?$AAp?$AA?3?$AA?3?$AAD?$AAe?$AAv?$AAO?$AAu?$AAt?$AAp@ 100095b0     tvcontrol.obj
 0001:00008618       ??_C@_1GG@DKMPIDKK@?$AA?$FL?$AAD?$AAI?$AAS?$AAP?$AAD?$AAR?$AAV?$AA?$FN?$AA?5?$AA?9?$AA?9?$AAS?$AA3?$AAC?$AA6?$AA4?$AA1?$AA0?$AAD?$AAi?$AAs?$AAp?$AA?3?$AA?3?$AAD?$AAe?$AAv?$AAO?$AAu?$AAt?$AAp@ 10009618     tvcontrol.obj
 0001:00008680       ??_C@_1KC@IKFJGGA@?$AA?$FL?$AAD?$AAI?$AAS?$AAP?$AAD?$AAR?$AAV?$AA?3?$AAE?$AAR?$AAR?$AA?$FN?$AA?5?$AAD?$AAe?$AAv?$AAO?$AAu?$AAt?$AAp?$AAu?$AAt?$AAD?$AAi?$AAs?$AAa?$AAb?$AAl?$AAe?$AAT?$AAV@ 10009680     tvcontrol.obj
 0001:00008728       ??_C@_1GG@KIMJJOIJ@?$AA?$FL?$AAD?$AAI?$AAS?$AAP?$AAD?$AAR?$AAV?$AA?$FN?$AA?5?$AA?$CL?$AA?$CL?$AAS?$AA3?$AAC?$AA6?$AA4?$AA1?$AA0?$AAD?$AAi?$AAs?$AAp?$AA?3?$AA?3?$AAD?$AAe?$AAv?$AAO?$AAu?$AAt?$AAp@ 10009728     tvcontrol.obj
 0001:00008790       ??_C@_1KG@MNNNIHBA@?$AA?$FL?$AAD?$AAI?$AAS?$AAP?$AAD?$AAR?$AAV?$AA?3?$AAE?$AAR?$AAR?$AA?$FN?$AA?5?$AAD?$AAe?$AAv?$AAS?$AAe?$AAt?$AAT?$AAV?$AAD?$AAM?$AAA?$AAB?$AAu?$AAf?$AAf?$AAe?$AAr?$AA?$CI@ 10009790     tvcontrol.obj
 0001:00008838       ??_C@_1GG@HHEBDOBH@?$AA?$FL?$AAD?$AAI?$AAS?$AAP?$AAD?$AAR?$AAV?$AA?$FN?$AA?5?$AA?9?$AA?9?$AAS?$AA3?$AAC?$AA6?$AA4?$AA1?$AA0?$AAD?$AAi?$AAs?$AAp?$AA?3?$AA?3?$AAD?$AAe?$AAv?$AAU?$AAp?$AAd?$AAa@ 10009838     tvcontrol.obj
 0001:000088a0       ??_C@_1JM@NKOFOBHH@?$AA?$FL?$AAD?$AAI?$AAS?$AAP?$AAD?$AAR?$AAV?$AA?3?$AAE?$AAR?$AAR?$AA?$FN?$AA?5?$AAS?$AA3?$AAC?$AA6?$AA4?$AA1?$AA0?$AAD?$AAi?$AAs?$AAp?$AA?3?$AA?3?$AAD?$AAe?$AAv?$AAU?$AAp@ 100098a0     tvcontrol.obj
 0001:00008940       ??_C@_1GG@OFEHCDDE@?$AA?$FL?$AAD?$AAI?$AAS?$AAP?$AAD?$AAR?$AAV?$AA?$FN?$AA?5?$AA?$CL?$AA?$CL?$AAS?$AA3?$AAC?$AA6?$AA4?$AA1?$AA0?$AAD?$AAi?$AAs?$AAp?$AA?3?$AA?3?$AAD?$AAe?$AAv?$AAU?$AAp?$AAd?$AAa@ 10009940     tvcontrol.obj
 0001:000089a8       ??_C@_1FK@DEDDCKNG@?$AA?$FL?$AAD?$AAI?$AAS?$AAP?$AAD?$AAR?$AAV?$AA?$FN?$AA?5?$AA?9?$AA?9?$AAS?$AA3?$AAC?$AA6?$AA4?$AA1?$AA0?$AAD?$AAi?$AAs?$AAp?$AA?3?$AA?3?$AAD?$AAe?$AAv?$AAS?$AAe?$AAt?$AAT@ 100099a8     tvcontrol.obj
 0001:00008a08       ??_C@_1IO@EKLHBCDN@?$AA?$FL?$AAD?$AAI?$AAS?$AAP?$AAD?$AAR?$AAV?$AA?3?$AAE?$AAR?$AAR?$AA?$FN?$AA?5?$AAD?$AAe?$AAv?$AAS?$AAe?$AAt?$AAT?$AAV?$AAD?$AAM?$AAA?$AAM?$AAo?$AAd?$AAe?$AA?$CI?$AA?$CJ?$AA?5@ 10009a08     tvcontrol.obj
 0001:00008a98       ??_C@_1LG@PGMGEHHO@?$AA?$FL?$AAD?$AAI?$AAS?$AAP?$AAD?$AAR?$AAV?$AA?3?$AAE?$AAR?$AAR?$AA?$FN?$AA?5?$AAD?$AAe?$AAv?$AAS?$AAe?$AAt?$AAT?$AAV?$AAD?$AAM?$AAA?$AAM?$AAo?$AAd?$AAe?$AA?$CI?$AA?$CJ?$AA?5@ 10009a98     tvcontrol.obj
 0001:00008b50       ??_C@_1FO@GLDJPCEA@?$AA?$FL?$AAD?$AAI?$AAS?$AAP?$AAD?$AAR?$AAV?$AA?$FN?$AA?5?$AA?$CL?$AA?$CL?$AAS?$AA3?$AAC?$AA6?$AA4?$AA1?$AA0?$AAD?$AAi?$AAs?$AAp?$AA?3?$AA?3?$AAD?$AAe?$AAv?$AAS?$AAe?$AAt?$AAT@ 10009b50     tvcontrol.obj
 0001:00008c68       g_NullBlendFunction        10009c68     2d_accel_lib:ddi_if.obj
 0001:00008cec       ??_C@_17BJMBELJK@?$AAG?$AAP?$AAE?$AA?$AA@ 10009cec     2d_accel_lib:ddi_if.obj
 0001:00008cf4       EGPEFormatToBpp            10009cf4     2d_accel_lib:gpe.obj
 0001:00008d18       EGPEFormatToIFormat        10009d18     2d_accel_lib:gpe.obj
 0001:00008d3c       IFormatToEGPEFormat        10009d3c     2d_accel_lib:gpe.obj
 0001:00008d68       ??_7GPE@@6B@               10009d68     2d_accel_lib:gpe.obj
 0001:00008de4       ??_C@_1BM@OHJNPODK@?$AAA?$AAs?$AAp?$AAe?$AAc?$AAt?$AAR?$AAa?$AAt?$AAi?$AAo?$AAX?$AAY?$AA?$AA@ 10009de4     2d_accel_lib:gpe.obj
 0001:00008e00       ??_C@_1BK@GPCKCPMK@?$AAA?$AAs?$AAp?$AAe?$AAc?$AAt?$AAR?$AAa?$AAt?$AAi?$AAo?$AAY?$AA?$AA@ 10009e00     2d_accel_lib:gpe.obj
 0001:00008e1c       ??_C@_1BK@NHJGEIKP@?$AAA?$AAs?$AAp?$AAe?$AAc?$AAt?$AAR?$AAa?$AAt?$AAi?$AAo?$AAX?$AA?$AA@ 10009e1c     2d_accel_lib:gpe.obj
 0001:00008e38       ??_C@_1BO@ONBCMHFO@?$AAL?$AAo?$AAg?$AAi?$AAc?$AAa?$AAl?$AAP?$AAi?$AAx?$AAe?$AAl?$AAs?$AAY?$AA?$AA@ 10009e38     2d_accel_lib:gpe.obj
 0001:00008e58       ??_C@_1BO@FFKOKADL@?$AAL?$AAo?$AAg?$AAi?$AAc?$AAa?$AAl?$AAP?$AAi?$AAx?$AAe?$AAl?$AAs?$AAX?$AA?$AA@ 10009e58     2d_accel_lib:gpe.obj
 0001:00008e78       ??_C@_1BK@HNDINEGH@?$AAV?$AAe?$AAr?$AAt?$AAi?$AAc?$AAa?$AAl?$AAS?$AAi?$AAz?$AAe?$AA?$AA@ 10009e78     2d_accel_lib:gpe.obj
 0001:00008e94       ??_C@_1BO@CPEMBNKP@?$AAH?$AAo?$AAr?$AAi?$AAz?$AAo?$AAn?$AAt?$AAa?$AAl?$AAS?$AAi?$AAz?$AAe?$AA?$AA@ 10009e94     2d_accel_lib:gpe.obj
 0001:00008eb4       ??_7GPESurf@@6B@           10009eb4     2d_accel_lib:gpe.obj
 0001:00009b98       ?EDDGPEPixelFormatToEGPEFormat@@3QBW4EGPEFormat@@B 1000ab98     ddgpe:ddgpe.obj
 0001:00009be4       ?EGPEFormatToEDDGPEPixelFormat@@3QBW4EDDGPEPixelFormat@@B 1000abe4     ddgpe:ddgpe.obj
 0001:00009c10       ??_7DDGPE@@6B@             1000ac10     ddgpe:ddgpe.obj
 0001:00009db0       ??_7DDGPESurf@@6B@         1000adb0     ddgpe:ddgpesurf.obj
 0001:00009eac       IID_IDirectDraw            1000aeac     ddgpe:guid.obj
 0001:00009ebc       IID_IDirectDrawSurface     1000aebc     ddgpe:guid.obj
 0001:00009ecc       IID_IDirectDrawPalette     1000aecc     ddgpe:guid.obj
 0001:00009edc       IID_IDirectDrawClipper     1000aedc     ddgpe:guid.obj
 0001:00009eec       IID_IDirectDrawColorControl 1000aeec     ddgpe:guid.obj
 0001:00009efc       IID_IDirectDrawGammaControl 1000aefc     ddgpe:guid.obj
 0001:00009f0c       IID_IDDVideoPortContainer  1000af0c     ddgpe:guid.obj
 0001:00009f1c       IID_IDirectDrawVideoPort   1000af1c     ddgpe:guid.obj
 0001:00009f2c       DDVPTYPE_E_HREFH_VREFH     1000af2c     ddgpe:guid.obj
 0001:00009f3c       DDVPTYPE_E_HREFH_VREFL     1000af3c     ddgpe:guid.obj
 0001:00009f4c       DDVPTYPE_E_HREFL_VREFH     1000af4c     ddgpe:guid.obj
 0001:00009f5c       DDVPTYPE_E_HREFL_VREFL     1000af5c     ddgpe:guid.obj
 0001:00009f6c       DDVPTYPE_CCIR656           1000af6c     ddgpe:guid.obj
 0001:00009f7c       DDVPTYPE_BROOKTREE         1000af7c     ddgpe:guid.obj
 0001:00009f8c       DDVPTYPE_PHILIPS           1000af8c     ddgpe:guid.obj
 0001:00009f9c       GUID_MiscellaneousCallbacks 1000af9c     ddgpe:guid.obj
 0001:00009fac       GUID_VideoPortCallbacks    1000afac     ddgpe:guid.obj
 0001:00009fbc       GUID_ColorControlCallbacks 1000afbc     ddgpe:guid.obj
 0001:00009fcc       GUID_VideoPortCaps         1000afcc     ddgpe:guid.obj
 0001:00009fdc       GUID_GetDriverInfo_VidMemBase 1000afdc     ddgpe:guid.obj
 0001:0000a15c       ??_C@_0P@OLMFJJKE@MegaDisplay?57A?$AA@ 1000b15c     s3c6410_ldi_lib:s3c6410_ldi.obj
 0001:0000a16c       ??_C@_0P@OJIDCHPN@MegaDisplay?54A?$AA@ 1000b16c     s3c6410_ldi_lib:s3c6410_ldi.obj
 0001:0000a17c       ??_C@_0P@OMMMDBHI@MegaDisplay?53A?$AA@ 1000b17c     s3c6410_ldi_lib:s3c6410_ldi.obj
 0001:0000a18c       ??_C@_02IHOKFKFD@TV?$AA@   1000b18c     s3c6410_ldi_lib:s3c6410_ldi.obj
 0001:0000a190       ??_C@_0N@MNHBCMKH@VGA_1024x768?$AA@ 1000b190     s3c6410_ldi_lib:s3c6410_ldi.obj
 0001:0000a1a0       ??_C@_0M@GJHCBNAO@VGA_800x600?$AA@ 1000b1a0     s3c6410_ldi_lib:s3c6410_ldi.obj
 0001:0000a1ac       ??_C@_0M@CMKNLCBM@VGA_640x480?$AA@ 1000b1ac     s3c6410_ldi_lib:s3c6410_ldi.obj
 0001:0000a1b8       ??_C@_0BA@OAJNNLGN@MegaDisplay?55HD?$AA@ 1000b1b8     s3c6410_ldi_lib:s3c6410_ldi.obj
 0001:0000a1c8       ??_C@_0BA@PAOOJHPM@MegaDisplay?55SD?$AA@ 1000b1c8     s3c6410_ldi_lib:s3c6410_ldi.obj
 0001:0000a1d8       ??_C@_0O@MKHEOKMD@MegaDisplay?57?$AA@ 1000b1d8     s3c6410_ldi_lib:s3c6410_ldi.obj
 0001:0000a1e8       ??_C@_0O@OBFJLJAA@MegaDisplay?54?$AA@ 1000b1e8     s3c6410_ldi_lib:s3c6410_ldi.obj
 0001:0000a1f8       ??_C@_0O@KOBICPMH@MegaDisplay?53?$AA@ 1000b1f8     s3c6410_ldi_lib:s3c6410_ldi.obj
 0001:0000a208       ??_C@_04OKGDLNCL@NONE?$AA@ 1000b208     s3c6410_ldi_lib:s3c6410_ldi.obj
 0001:0000a210       ??_C@_06DJKJCCMC@LP3303?$AA@ 1000b210     s3c6410_ldi_lib:s3c6410_ldi.obj
 0001:0000a218       ??_C@_06LMLJGLPA@direct?$AA@ 1000b218     s3c6410_ldi_lib:s3c6410_ldi.obj
 0001:0000a220       ??_C@_08GOJFCIDL@SM8121AH?$AA@ 1000b220     s3c6410_ldi_lib:s3c6410_ldi.obj
 0001:0000a374       ??_7FIMGSE2D@@6B@          1000b374     s3c6410_g2d_lib:FIMGSE2D.obj
 0001:0000a378       ??_C@_1JA@NHIEBPMA@?$AAI?$AAn?$AAc?$AAr?$AAe?$AAm?$AAe?$AAn?$AAt?$AA?5?$AAv?$AAa?$AAl?$AAu?$AAe?$AA?5?$AAt?$AAo?$AA?5?$AAs?$AAt?$AAr?$AAe?$AAt?$AAc?$AAh?$AA?5?$AAc?$AAa?$AAn?$AA?5?$AAn@ 1000b378     s3c6410_g2d_lib:FIMGSE2D.obj
 0001:0000a408       ??_C@_1HO@MOMCMFL@?$AAF?$AAI?$AAM?$AAG?$AAS?$AAE?$AA2?$AAD?$AA?3?$AA?5?$AA2?$AAD?$AA?5?$AAC?$AAo?$AAm?$AAm?$AAa?$AAn?$AAd?$AA?5?$AAi?$AAs?$AA?5?$AAt?$AAa?$AAk?$AAi?$AAn?$AAg?$AA?5?$AAm@ 1000b408     s3c6410_g2d_lib:FIMGSE2D.obj
 0001:0000a488       ??_C@_1CE@MGMAGHFL@?$AA2?$AAD?$AA?5?$AAS?$AAy?$AAs?$AAi?$AAn?$AAt?$AAr?$AA?5?$AA?3?$AA?5?$AA?$CF?$AAd?$AA?$AN?$AA?6?$AA?$AA@ 1000b488     s3c6410_g2d_lib:FIMGSE2D.obj
 0001:0000a4ac       ??_C@_1CK@JGJNPCFK@?$AA?$FL?$AA2?$AAD?$AAH?$AAW?$AA?$FN?$AA?5?$AAB?$AAi?$AAt?$AAB?$AAl?$AAt?$AA?5?$AAE?$AAx?$AAi?$AAt?$AA?$AN?$AA?6?$AA?$AA@ 1000b4ac     s3c6410_g2d_lib:FIMGSE2D.obj
 0001:0000a4d8       ??_C@_1GG@NGHINICK@?$AAR?$AAO?$AAT?$AA?3?$AA?$CF?$AAd?$AA?0?$AA?5?$AAS?$AAr?$AAc?$AA?3?$AA?$CI?$AA?$CF?$AAd?$AA?0?$AA?$CF?$AAd?$AA?$CJ?$AA?$HO?$AA?$CI?$AA?$CF?$AAd?$AA?0?$AA?$CF?$AAd?$AA?$CJ?$AA?0?$AA?5?$AAD?$AAs?$AAt@ 1000b4d8     s3c6410_g2d_lib:FIMGSE2D.obj
 0001:0000a540       ??_C@_1CM@EIJMBEEK@?$AA?$FL?$AA2?$AAD?$AAH?$AAW?$AA?$FN?$AA?5?$AAB?$AAi?$AAt?$AAB?$AAl?$AAt?$AA?5?$AAE?$AAn?$AAt?$AAr?$AAy?$AA?$AN?$AA?6?$AA?$AA@ 1000b540     s3c6410_g2d_lib:FIMGSE2D.obj
 0001:0000a56c       ??_C@_1DC@DLBLODCC@?$AA?$FL?$AA2?$AAD?$AAH?$AAW?$AA?$FN?$AA?5?$AAS?$AAt?$AAr?$AAe?$AAt?$AAc?$AAh?$AAB?$AAl?$AAt?$AA?5?$AAE?$AAx?$AAi?$AAt?$AA?$AN?$AA?6?$AA?$AA@ 1000b56c     s3c6410_g2d_lib:FIMGSE2D.obj
 0001:0000a5a0       ??_C@_1HO@OOCPHACK@?$AAR?$AAO?$AAT?$AA?3?$AA?$CF?$AAd?$AA?0?$AA?5?$AAS?$AAr?$AAc?$AA?3?$AA?$CI?$AA?$CF?$AAd?$AA?0?$AA?$CF?$AAd?$AA?$CJ?$AA?$HO?$AA?$CI?$AA?$CF?$AAd?$AA?0?$AA?$CF?$AAd?$AA?$CJ?$AA?0?$AA?5?$AAD?$AAs?$AAt@ 1000b5a0     s3c6410_g2d_lib:FIMGSE2D.obj
 0001:0000a620       ??_C@_1BO@KPAGHGLA@?$AA?6?$AAY?$AAI?$AAn?$AAc?$AAr?$AA?5?$AA?3?$AA?5?$AA?$CF?$AAd?$AA?4?$AA?$CF?$AAx?$AA?$AA@ 1000b620     s3c6410_g2d_lib:FIMGSE2D.obj
 0001:0000a640       ??_C@_1BO@KOLDILKN@?$AA?6?$AAX?$AAI?$AAn?$AAc?$AAr?$AA?5?$AA?3?$AA?5?$AA?$CF?$AAd?$AA?4?$AA?$CF?$AAx?$AA?$AA@ 1000b640     s3c6410_g2d_lib:FIMGSE2D.obj
 0001:0000a660       ??_C@_1HK@GFEDAODL@?$AAT?$AAh?$AAi?$AAs?$AA?5?$AAi?$AAs?$AA?5?$AAn?$AAo?$AAt?$AA?5?$AAs?$AAt?$AAr?$AAe?$AAt?$AAc?$AAh?$AA?5?$AAo?$AAr?$AA?5?$AAs?$AAh?$AAr?$AAi?$AAn?$AAk?$AA?5?$AAB?$AAL@ 1000b660     s3c6410_g2d_lib:FIMGSE2D.obj
 0001:0000a6dc       ??_C@_1DE@MFMKGKMA@?$AA?$FL?$AA2?$AAD?$AAH?$AAW?$AA?$FN?$AA?5?$AAS?$AAt?$AAr?$AAe?$AAt?$AAc?$AAh?$AAB?$AAl?$AAt?$AA?5?$AAE?$AAn?$AAt?$AAr?$AAy?$AA?$AN?$AA?6?$AA?$AA@ 1000b6dc     s3c6410_g2d_lib:FIMGSE2D.obj
 0001:0000a710       ??_C@_1CM@PFLKMDIH@?$AA?$FL?$AA2?$AAD?$AAH?$AAW?$AA?$FN?$AA?5?$AAF?$AAl?$AAi?$AAp?$AAB?$AAl?$AAt?$AA?5?$AAE?$AAx?$AAi?$AAt?$AA?$AN?$AA?6?$AA?$AA@ 1000b710     s3c6410_g2d_lib:FIMGSE2D.obj
 0001:0000a73c       ??_C@_1CO@CNNEMMAF@?$AA?$FL?$AA2?$AAD?$AAH?$AAW?$AA?$FN?$AA?5?$AAF?$AAl?$AAi?$AAp?$AAB?$AAl?$AAt?$AA?5?$AAE?$AAn?$AAt?$AAr?$AAy?$AA?$AN?$AA?6?$AA?$AA@ 1000b73c     s3c6410_g2d_lib:FIMGSE2D.obj
 0001:0000a76c       ??_C@_1DO@OPEPCICC@?$AAC?$AAM?$AAD?$AA?3?$AA?5?$AA?$CF?$AAx?$AA?0?$AA?5?$AAX?$AAI?$AAN?$AAC?$AAR?$AA?3?$AA?5?$AA?$CF?$AAx?$AA?0?$AA?5?$AAY?$AAI?$AAN?$AAC?$AAR?$AA?3?$AA?5?$AA?$CF?$AAx?$AA?6?$AA?$AA@ 1000b76c     s3c6410_g2d_lib:FIMGSE2D.obj
 0001:0000a7b0       ??_C@_1FO@PNKMNLIO@?$AAm?$AA_?$AAp?$AAG?$AA2?$AAD?$AAR?$AAe?$AAg?$AA?3?$AA0?$AAx?$AA?$CF?$AAx?$AA?0?$AA?5?$AAC?$AAM?$AAD?$AA?3?$AA?5?$AA?$CF?$AAx?$AA?0?$AA?5?$AAX?$AAI?$AAN?$AAC?$AAR?$AA?3?$AA?5@ 1000b7b0     s3c6410_g2d_lib:FIMGSE2D.obj
 0001:0000a810       ??_C@_1BI@JANMOLPE@?$AAX?$AAI?$AAN?$AAC?$AAR?$AA?3?$AA?5?$AA?$CF?$AAx?$AA?5?$AA?5?$AA?$AA@ 1000b810     s3c6410_g2d_lib:FIMGSE2D.obj
 0001:0000a828       ??_C@_1BI@BBPJIOND@?$AAY?$AAI?$AAN?$AAC?$AAR?$AA?3?$AA?5?$AA?$CF?$AAx?$AA?5?$AA?5?$AA?$AA@ 1000b828     s3c6410_g2d_lib:FIMGSE2D.obj
 0001:0000a840       ??_C@_1EK@FEHJBDIH@?$AA?$CI?$AA?$CF?$AAd?$AA?0?$AA?$CF?$AAd?$AA?$CJ?$AA?$HO?$AA?$CI?$AA?$CF?$AAd?$AA?0?$AA?$CF?$AAd?$AA?$CJ?$AA?3?$AAC?$AAo?$AAl?$AAo?$AAr?$AA?3?$AA0?$AAx?$AA?$CF?$AAx?$AA?0?$AA?5?$AAL?$AAa?$AAs?$AAT@ 1000b840     s3c6410_g2d_lib:FIMGSE2D.obj
 0001:0000a948       ??_C@_1IA@JCADJGDA@?$AA?$FL?$AAD?$AAI?$AAS?$AAP?$AAD?$AAR?$AAV?$AA?3?$AAE?$AAR?$AAR?$AA?$FN?$AA?5?$AAR?$AAe?$AAg?$AAC?$AAt?$AAr?$AAl?$AAG?$AA2?$AAD?$AA?$CI?$AA?$CJ?$AA?5?$AA?3?$AA?5?$AAm?$AA_?$AAp@ 1000b948     s3c6410_g2d_lib:regctrl_g2d.obj
 0001:0000a9c8       ??_7RegCtrlG2D@@6B@        1000b9c8     s3c6410_g2d_lib:regctrl_g2d.obj
 0001:0000a9d0       ??_C@_1LA@OJHCAJLJ@?$AA?$FL?$AAG?$AA2?$AAD?$AA?$FN?$AA?5?$AAR?$AAe?$AAq?$AAu?$AAe?$AAs?$AAt?$AAe?$AAd?$AA?5?$AAE?$AAm?$AAp?$AAt?$AAy?$AA?5?$AAf?$AAi?$AAf?$AAo?$AA?5?$AAi?$AAs?$AA?5?$AAe?$AAx@ 1000b9d0     s3c6410_g2d_lib:regctrl_g2d.obj
 0001:0000aa80       ??_C@_1DK@KEOFMAKD@?$AAU?$AAn?$AAS?$AAu?$AAp?$AAp?$AAo?$AAr?$AAt?$AAe?$AAd?$AA?5?$AAT?$AAh?$AAi?$AAr?$AAd?$AA?5?$AAO?$AAp?$AAe?$AAr?$AAa?$AAn?$AAd?$AA?$CB?$AA?$AN?$AA?6?$AA?$AA@ 1000ba80     s3c6410_g2d_lib:regctrl_g2d.obj
 0001:0000ab00       DrvEnableDriver            1000bb00 f   display_main.obj
 0001:0000ab10       ?InitAcceleration@S3C6410Disp@@QAAXXZ 1000bb10 f   display_main.obj
 0001:0000abc8       ?CheckAndWaitForHWIdle@S3C6410Disp@@QAAXPAVGPESurf@@@Z 1000bbc8 f   display_main.obj
 0001:0000ac28       ?WaitForNotBusy@S3C6410Disp@@UAAXXZ 1000bc28 f   display_main.obj
 0001:0000ac6c       ?IsBusy@S3C6410Disp@@UAAHXZ 1000bc6c f   display_main.obj
 0001:0000aca8       ?SurfaceBusyBlitting@S3C6410Disp@@UAA_NPAVDDGPESurf@@@Z 1000bca8 f   display_main.obj
 0001:0000ad18       ?GetPhysicalVideoMemory@S3C6410Disp@@UAAXPAK0@Z 1000bd18 f   display_main.obj
 0001:0000ad64       ?GetVirtualVideoMemory@S3C6410Disp@@QAAXPAK0@Z 1000bd64 f   display_main.obj
 0001:0000adb0       ?SetPalette@S3C6410Disp@@UAAJPBUtagPALETTEENTRY@@GG@Z 1000bdb0 f   display_main.obj
 0001:0000add4       ?Stride@GPESurf@@QAAHXZ    1000bdd4 f i display_main.obj
 0001:0000addc       ?Buffer@GPESurf@@QAAPAXXZ  1000bddc f i display_main.obj
 0001:0000ade4       ?Width@GPESurf@@QAAHXZ     1000bde4 f i display_main.obj
 0001:0000adec       ?Height@GPESurf@@QAAHXZ    1000bdec f i display_main.obj
 0001:0000adf4       ?Rotate@GPESurf@@QAAHXZ    1000bdf4 f i display_main.obj
 0001:0000adfc       ?ScreenWidth@GPESurf@@QAAHXZ 1000bdfc f i display_main.obj
 0001:0000ae04       ?ScreenHeight@GPESurf@@QAAHXZ 1000be04 f i display_main.obj
 0001:0000ae0c       ?GetRotateModeFromReg@S3C6410Disp@@QAAHXZ 1000be0c f   display_main.obj
 0001:0000af38       ?SetRotateParams@S3C6410Disp@@QAAXXZ 1000bf38 f   display_main.obj
 0001:0000afa0       ?DynRotate@S3C6410Disp@@QAAJH@Z 1000bfa0 f   display_main.obj
 0001:0000b0a4       ?AllocResource@S3C6410Disp@@QAAHXZ 1000c0a4 f   display_main.obj
 0001:0000b3f8       ?TVOutAllocResource@S3C6410Disp@@QAAHXZ 1000c3f8 f   display_main.obj
 0001:0000b4a4       ?TVOutReleaseResource@S3C6410Disp@@QAAHXZ 1000c4a4 f   display_main.obj
 0001:0000b550       ?DetectPixelFormat@S3C6410Disp@@UAAJKPAU_DDPIXELFORMAT@@PAW4EGPEFormat@@PAW4EDDGPEPixelFormat@@@Z 1000c550 f   display_main.obj
 0001:0000b600       ?DevPowerOn@S3C6410Disp@@QAAHXZ 1000c600 f   display_main.obj
 0001:0000b6d8       ?DevPowerOff@S3C6410Disp@@QAAHXZ 1000c6d8 f   display_main.obj
 0001:0000b7b4       ?DevOutputEnableRGBIF@S3C6410Disp@@QAAXXZ 1000c7b4 f   display_main.obj
 0001:0000ba78       ?DevOutputDisableRGBIF@S3C6410Disp@@QAAXXZ 1000ca78 f   display_main.obj
 0001:0000bb50       ?DevWaitForVerticalBlank@S3C6410Disp@@QAAHXZ 1000cb50 f   display_main.obj
 0001:0000bbc4       ?DevGetVerticalStatus@S3C6410Disp@@QAAHXZ 1000cbc4 f   display_main.obj
 0001:0000bc38       ?DevGetScanLine@S3C6410Disp@@QAAKXZ 1000cc38 f   display_main.obj
 0001:0000bcac       ?DevEnableVsyncInterrupt@S3C6410Disp@@QAAHXZ 1000ccac f   display_main.obj
 0001:0000bcec       ?DevGetFlipStatus@S3C6410Disp@@QAAHXZ 1000ccec f   display_main.obj
 0001:0000bd34       ?ConvertStringToGuid@@YAHPBGPAU_GUID@@@Z 1000cd34 f   display_main.obj
 0001:0000be28       ?AdvertisePowerInterface@@YAHPAUHINSTANCE__@@@Z 1000ce28 f   display_main.obj
 0001:0000bf88       ?PmToVideoPowerState@@YA?AW4_VIDEO_POWER_STATE@@W4_CEDEVICE_POWER_STATE@@@Z 1000cf88 f   display_main.obj
 0001:0000c010       ?VideoToPmPowerState@@YA?AW4_CEDEVICE_POWER_STATE@@W4_VIDEO_POWER_STATE@@@Z 1000d010 f   display_main.obj
 0001:0000c0b8       ?InDisplay@S3C6410Disp@@UAAHXZ 1000d0b8 f   display_main.obj
 0001:0000c0d8       ?InVBlank@S3C6410Disp@@UAAHXZ 1000d0d8 f   display_main.obj
 0001:0000c0f8       ?GetGameXInfo@S3C6410Disp@@QAAHKKPAXK0@Z 1000d0f8 f   display_main.obj
 0001:0000c3b8       ?GetRawFrameBuffer@S3C6410Disp@@QAAHKKPAXK0@Z 1000d3b8 f   display_main.obj
 0001:0000c52c       ?ReleaseResource@S3C6410Disp@@QAAXXZ 1000d52c f   display_main.obj
 0001:0000c6b8       ?SetDisplayPowerState@S3C6410Disp@@QAAXW4_VIDEO_POWER_STATE@@@Z 1000d6b8 f   display_main.obj
 0001:0000c7c8       ?WaitForVerticalBlank@S3C6410Disp@@QAAHW4VB_STATUS@@@Z 1000d7c8 f   display_main.obj
 0001:0000c7d8       ?GetScanLine@S3C6410Disp@@QAAKXZ 1000d7d8 f   display_main.obj
 0001:0000c7e8       ?DevInitialize@S3C6410Disp@@QAAHXZ 1000d7e8 f   display_main.obj
 0001:0000c928       ?DevChangeOutputInterface@S3C6410Disp@@QAAHW4OUTPUT_INTERFACE@@@Z 1000d928 f   display_main.obj
 0001:0000cad4       ??0S3C6410Disp@@QAA@XZ     1000dad4 f   display_main.obj
 0001:0000ceb4       ?GetPhysicalModeId@DDGPE@@UAAKXZ 1000deb4 f i display_main.obj
 0001:0000cebc       ?GetDriverData@DDGPE@@UAAPAUDDGPEDriverData@@XZ 1000debc f i display_main.obj
 0001:0000cec4       ?SetDriverData@DDGPE@@UAAXPAUDDGPEDriverData@@@Z 1000dec4 f i display_main.obj
 0001:0000cecc       ??1S3C6410Disp@@UAA@XZ     1000decc f   display_main.obj
 0001:0000cf8c       ?DrvEscape@S3C6410Disp@@UAAKPAU_SURFOBJ@@KKPAXK1@Z 1000df8c f   display_main.obj
 0001:0000d9b0       GetGPE                     1000e9b0 f   display_main.obj
 0001:0000d9f4       ??_GS3C6410Disp@@UAAPAXI@Z 1000e9f4 f i display_main.obj
 0001:0000d9f4       ??_ES3C6410Disp@@UAAPAXI@Z 1000e9f4 f i display_main.obj
 0001:0000da1c       ?OverlayReleaseResource@S3C6410Disp@@QAAHH@Z 1000ea1c f   ddoverlay.obj
 0001:0000db2c       ?InitalizeOverlayContext@S3C6410Disp@@QAAXXZ 1000eb2c f   ddoverlay.obj
 0001:0000dbc4       ?GetCurrentOverlaySurf@S3C6410Disp@@QAAPAVS3C6410Surf@@XZ 1000ebc4 f   ddoverlay.obj
 0001:0000dbd0       ?GetPreviousOverlaySurf@S3C6410Disp@@QAAPAVS3C6410Surf@@XZ 1000ebd0 f   ddoverlay.obj
 0001:0000dbdc       ?DevOverlaySetPosition@S3C6410Disp@@QAAXXZ 1000ebdc f   ddoverlay.obj
 0001:0000dc8c       ?DevOverlayEnable@S3C6410Disp@@QAAXXZ 1000ec8c f   ddoverlay.obj
 0001:0000ddac       ?DevOverlayDisable@S3C6410Disp@@QAAXXZ 1000edac f   ddoverlay.obj
 0001:0000dec0       ?DevOverlayBlendDisable@S3C6410Disp@@QAAXXZ 1000eec0 f   ddoverlay.obj
 0001:0000dfd0       ?DevOverlaySetColorKey@S3C6410Disp@@QAAXXZ 1000efd0 f   ddoverlay.obj
 0001:0000e08c       ?DevOverlaySetAlpha@S3C6410Disp@@QAAXXZ 1000f08c f   ddoverlay.obj
 0001:0000e144       ?OverlayAllocResource@S3C6410Disp@@QAAHH@Z 1000f144 f   ddoverlay.obj
 0001:0000e278       ?OverlaySetPosition@S3C6410Disp@@QAAXII@Z 1000f278 f   ddoverlay.obj
 0001:0000e3dc       ?OverlayEnable@S3C6410Disp@@QAAXXZ 1000f3dc f   ddoverlay.obj
 0001:0000e444       ?OverlayDisable@S3C6410Disp@@QAAXXZ 1000f444 f   ddoverlay.obj
 0001:0000e4c4       ?OverlayBlendDisable@S3C6410Disp@@QAAXXZ 1000f4c4 f   ddoverlay.obj
 0001:0000e4e0       ?OverlaySetColorKey@S3C6410Disp@@QAAXHW4EDDGPEPixelFormat@@K@Z 1000f4e0 f   ddoverlay.obj
 0001:0000e550       ?OverlaySetAlpha@S3C6410Disp@@QAAXHK@Z 1000f550 f   ddoverlay.obj
 0001:0000e57c       ?DevSetVisibleSurface@S3C6410Disp@@QAAXPAVS3C6410Surf@@H@Z 1000f57c f   ddoverlay.obj
 0001:0000e7b4       ?DevOverlayInitialize@S3C6410Disp@@QAAXXZ 1000f7b4 f   ddoverlay.obj
 0001:0000eb20       ?DevRecoverOverlay@S3C6410Disp@@QAAXXZ 1000fb20 f   ddoverlay.obj
 0001:0000ebb8       ?OverlayInitialize@S3C6410Disp@@QAAHPAVS3C6410Surf@@PAUtagRECT@@1@Z 1000fbb8 f   ddoverlay.obj
 0001:0000f264       DrvGetMasks                10010264 f   dispmode.obj
 0001:0000f32c       ?SetMode@S3C6410Disp@@UAAJHPAPAUHPALETTE__@@@Z 1001032c f   dispmode.obj
 0001:0000f41c       ?GetModeInfo@S3C6410Disp@@UAAJPAUGPEMode@@H@Z 1001041c f   dispmode.obj
 0001:0000f478       ?GetModeInfoEx@S3C6410Disp@@UAAJPAUGPEModeEx@@H@Z 10010478 f   dispmode.obj
 0001:0000f4d4       ?NumModes@S3C6410Disp@@UAAHXZ 100104d4 f   dispmode.obj
 0001:0000f4dc       ?InitializeDisplayMode@S3C6410Disp@@QAAXXZ 100104dc f   dispmode.obj
 0001:0000f6d4       ?CursorOn@S3C6410Disp@@QAAXXZ 100106d4 f   cursor.obj
 0001:0000fa64       ?CursorOff@S3C6410Disp@@QAAXXZ 10010a64 f   cursor.obj
 0001:0000fc50       ?SetPointerShape@S3C6410Disp@@UAAJPAVGPESurf@@0HHHH@Z 10010c50 f   cursor.obj
 0001:0000fd74       ?MovePointer@S3C6410Disp@@UAAJHH@Z 10010d74 f   cursor.obj
 0001:0000fde0       ?InVideoMemory@GPESurf@@QAAHXZ 10010de0 f i line.obj
 0001:0000fde8       ?WrappedEmulatedLine@S3C6410Disp@@QAAJPAUGPELineParms@@@Z 10010de8 f   line.obj
 0001:00010138       ?AcceleratedSolidLine@S3C6410Disp@@UAAJPAUGPELineParms@@@Z 10011138 f   line.obj
 0001:000102e4       ?Line@S3C6410Disp@@UAAJPAUGPELineParms@@W4EGPEPhase@@@Z 100112e4 f   line.obj
 0001:00010340       ?Format@GPESurf@@QAA?AW4EGPEFormat@@XZ 10011340 f i hwblt.obj
 0001:00010348       ?GetRelativeDegree@S3C6410Disp@@UAAHHH@Z 10011348 f   hwblt.obj
 0001:000103f0       ?DumpBltParms@S3C6410Disp@@UAAXPAUGPEBltParms@@@Z 100113f0 f   hwblt.obj
 0001:000105f4       ?HWBitBlt@S3C6410Disp@@UAAHPAUGPEBltParms@@PAUSURFACE_DESCRIPTOR@@1@Z 100115f4 f   hwblt.obj
 0001:000120c8       ?BltComplete@S3C6410Disp@@UAAJPAUGPEBltParms@@@Z 100130c8 f   blt.obj
 0001:00012170       ?AcceleratedDestInvert@S3C6410Disp@@UAAJPAUGPEBltParms@@@Z 10013170 f   blt.obj
 0001:00012178       ?NullBlt@S3C6410Disp@@UAAJPAUGPEBltParms@@@Z 10013178 f   blt.obj
 0001:00012180       ?FormatPtr@GPESurf@@QAAPAVGPEFormat@@XZ 10013180 f i blt.obj
 0001:00012188       ?IsRotate@GPESurf@@QAAHXZ  10013188 f i blt.obj
 0001:0001219c       ?ValidatePAContinuityOfSurf@S3C6410Disp@@UAAKPAVGPESurf@@@Z 1001319c f   blt.obj
 0001:00012438       ?FreePhysAddress@S3C6410Disp@@UAAXPAK@Z 10013438 f   blt.obj
 0001:00012450       ?ClipDestDrawRect@S3C6410Disp@@UAAXPAUGPEBltParms@@@Z 10013450 f   blt.obj
 0001:000124cc       ?GetHWColorFormat@S3C6410Disp@@UAAKPAVGPESurf@@@Z 100134cc f   blt.obj
 0001:0001269c       ??_9S3C6410Disp@@$BPE@AA   1001369c f i blt.obj
 0001:000126a8       ??_9S3C6410Disp@@$BPI@AA   100136a8 f i blt.obj
 0001:000126b4       ??_9S3C6410Disp@@$BOM@AA   100136b4 f i blt.obj
 0001:000126c0       ?BltPrepare@S3C6410Disp@@UAAJPAUGPEBltParms@@@Z 100136c0 f   blt.obj
 0001:000129a0       ?AcceleratedSolidFill@S3C6410Disp@@UAAJPAUGPEBltParms@@@Z 100139a0 f   blt.obj
 0001:00012b34       ?AcceleratedPatFill@S3C6410Disp@@UAAJPAUGPEBltParms@@@Z 10013b34 f   blt.obj
 0001:00012cc8       ?AcceleratedSrcCopyBlt@S3C6410Disp@@UAAJPAUGPEBltParms@@@Z 10013cc8 f   blt.obj
 0001:000130e8       ?AcceleratedBltSelect@S3C6410Disp@@UAAJPAUGPEBltParms@@@Z 100140e8 f   blt.obj
 0001:0001397c       ?MultiplyAlphaBit@S3C6410Disp@@UAAXPAKKK@Z 1001497c f   blt_alpha.obj
 0001:000139cc       ?AcceleratedAlphaSrcCopyBlt@S3C6410Disp@@UAAJPAUGPEBltParms@@@Z 100149cc f   blt_alpha.obj
 0001:0001433c       ?AcceleratedPerPixelAlpha@S3C6410Disp@@UAAXPAUGPEBltParms@@@Z 1001533c f   blt_alpha.obj
 0001:00014418       ?CreateScratchSurface@S3C6410Disp@@UAAHPAVGPESurf@@PAPAVDDGPESurf@@PAU_RECTL@@PAUSURFACE_DESCRIPTOR@@W4EGPEFormat@@H@Z 10015418 f   blt_alpha.obj
 0001:000145d4       ??0S3C6410Surf@@QAA@HHKPAXHW4EGPEFormat@@W4EDDGPEPixelFormat@@PAVSurfaceHeap@@@Z 100155d4 f   surf.obj
 0001:00014700       ??1PACSurf@@UAA@XZ         10015700 f   surf.obj
 0001:000147ec       ?GetDriverData@DDGPESurf@@UAAPAUDDGPEDriverData@@XZ 100157ec f i surf.obj
 0001:000147f4       ?SetDriverData@DDGPESurf@@UAAXPAUDDGPEDriverData@@@Z 100157f4 f i surf.obj
 0001:000147fc       ?SurfaceSize@DDGPESurf@@UAAHXZ 100157fc f i surf.obj
 0001:00014804       ?AllocSurfaceVideo@S3C6410Disp@@QAAJPAPAVDDGPESurf@@HHHW4EGPEFormat@@W4EDDGPEPixelFormat@@@Z 10015804 f   surf.obj
 0001:0001495c       ?SetVisibleSurface@S3C6410Disp@@UAAXPAVGPESurf@@H@Z 1001595c f   surf.obj
 0001:000149b0       ??1S3C6410Surf@@UAA@XZ     100159b0 f   surf.obj
 0001:00014aa0       ??0PACSurf@@QAA@HHW4EGPEFormat@@HW4EDDGPEPixelFormat@@@Z 10015aa0 f   surf.obj
 0001:00014cfc       ??_GPACSurf@@UAAPAXI@Z     10015cfc f i surf.obj
 0001:00014cfc       ??_EPACSurf@@UAAPAXI@Z     10015cfc f i surf.obj
 0001:00014d24       ?AllocSurfacePACS@S3C6410Disp@@QAAJPAPAVGPESurf@@HHW4EGPEFormat@@HW4EDDGPEPixelFormat@@@Z 10015d24 f   surf.obj
 0001:00014e28       ?AllocSurface@S3C6410Disp@@UAAJPAPAVGPESurf@@HHW4EGPEFormat@@H@Z 10015e28 f   surf.obj
 0001:00014fd0       ?AllocSurface@S3C6410Disp@@UAAJPAPAVDDGPESurf@@HHW4EGPEFormat@@W4EDDGPEPixelFormat@@H@Z 10015fd0 f   surf.obj
 0001:00015264       ??_GS3C6410Surf@@UAAPAXI@Z 10016264 f i surf.obj
 0001:00015264       ??_ES3C6410Surf@@UAAPAXI@Z 10016264 f i surf.obj
 0001:0001528c       buildDDHALInfo             1001628c f   halcaps.obj
 0001:00015468       ?HalWaitForVerticalBlank@@YAKPAU_DDHAL_WAITFORVERTICALBLANKDATA@@@Z 10016468 f   haldd.obj
 0001:0001551c       ?HalGetScanLine@@YAKPAU_DDHAL_GETSCANLINEDATA@@@Z 1001651c f   haldd.obj
 0001:00015580       ?HalGetDriverInfo@@YAKPAU_DDHAL_GETDRIVERINFODATA@@@Z 10016580 f   haldd.obj
 0001:000156e0       ?HalCreateSurface@@YAKPAU_DDHAL_CREATESURFACEDATA@@@Z 100166e0 f   halsurf.obj
 0001:000157b4       ?HalCanCreateSurface@@YAKPAU_DDHAL_CANCREATESURFACEDATA@@@Z 100167b4 f   halsurf.obj
 0001:000159d4       ?HalFlip@@YAKPAU_DDHAL_FLIPDATA@@@Z 100169d4 f   halsurf.obj
 0001:00015a98       ?HalLock@@YAKPAU_DDHAL_LOCKDATA@@@Z 10016a98 f   halsurf.obj
 0001:00015ba0       ?HalGetBltStatus@@YAKPAU_DDHAL_GETBLTSTATUSDATA@@@Z 10016ba0 f   halsurf.obj
 0001:00015bf0       ?HalGetFlipStatus@@YAKPAU_DDHAL_GETFLIPSTATUSDATA@@@Z 10016bf0 f   halsurf.obj
 0001:00015c20       ?HalSetOverlayPosition@@YAKPAU_DDHAL_SETOVERLAYPOSITIONDATA@@@Z 10016c20 f   halsurf.obj
 0001:00015c4c       ?HalSetColorKey@@YAKPAU_DDHAL_SETCOLORKEYDATA@@@Z 10016c4c f   halsurf.obj
 0001:00015d90       ?HalUpdateOverlay@@YAKPAU_DDHAL_UPDATEOVERLAYDATA@@@Z 10016d90 f   halsurf.obj
 0001:00015fd8       ?DevOutputEnableTV@S3C6410Disp@@QAAXXZ 10016fd8 f   tvcontrol.obj
 0001:0001643c       ?DevOutputDisableTV@S3C6410Disp@@QAAXXZ 1001743c f   tvcontrol.obj
 0001:00016520       ?DevOutputEnableTVDMA@S3C6410Disp@@QAAXXZ 10017520 f   tvcontrol.obj
 0001:00016800       ?DevOutputDisableTVDMA@S3C6410Disp@@QAAXXZ 10017800 f   tvcontrol.obj
 0001:000168ac       ?DevSetTVDMABuffer@S3C6410Disp@@QAAXIIIH@Z 100178ac f   tvcontrol.obj
 0001:00016944       ?DevUpdateTVDMAContext@S3C6410Disp@@QAAXXZ 10017944 f   tvcontrol.obj
 0001:00016b54       ?DevSetTVDMAMode@S3C6410Disp@@QAAHW4TV_DMA_MODE@@@Z 10017b54 f   tvcontrol.obj
 0001:00016c34       MultiplyAlphaBit_ASM       10017c34 f   accel_2d.obj
 0001:00016d24       PerPixelAlpha_ASM          10017d24 f   accel_2d.obj
 0001:00016f50       DllMain                    10017f50 f   2d_accel_lib:ddi_if.obj
 0001:00016fac       ?SafeGetGPE@@YAPAVGPE@@PAX@Z 10017fac f   2d_accel_lib:ddi_if.obj
 0001:00017050       ?SetSurfaceFormat@@YAXPAVGPESurf@@PAU_XLATEOBJ@@K@Z 10018050 f   2d_accel_lib:ddi_if.obj
 0001:00017324       ?GPEEnableDriver@@YAHKKPAUtagDrvEnableData@@PAU_ENGCALLBACKS@@@Z 10018324 f   2d_accel_lib:ddi_if.obj
 0001:000175ac       DrvContrastControl         100185ac f   2d_accel_lib:ddi_if.obj
 0001:00017614       DrvPowerHandler            10018614 f   2d_accel_lib:ddi_if.obj
 0001:0001766c       DrvEscape                  1001866c f   2d_accel_lib:ddi_if.obj
 0001:00017874       DrvDisableDriver           10018874 f   2d_accel_lib:ddi_if.obj
 0001:000178e8       DrvDisablePDEV             100188e8 f   2d_accel_lib:ddi_if.obj
 0001:0001793c       ?SetHSurf@GPE@@QAAXK@Z     1001893c f i 2d_accel_lib:ddi_if.obj
 0001:00017960       DrvDisableSurface          10018960 f   2d_accel_lib:ddi_if.obj
 0001:000179a0       ?GetHSurf@GPE@@QAAKXZ      100189a0 f i 2d_accel_lib:ddi_if.obj
 0001:000179d0       DrvEnableSurface           100189d0 f   2d_accel_lib:ddi_if.obj
 0001:00017a9c       ?ScreenHeight@GPE@@QAAHXZ  10018a9c f i 2d_accel_lib:ddi_if.obj
 0001:00017acc       ?ScreenWidth@GPE@@QAAHXZ   10018acc f i 2d_accel_lib:ddi_if.obj
 0001:00017afc       ?PrimarySurface@GPE@@QAAPAVGPESurf@@XZ 10018afc f i 2d_accel_lib:ddi_if.obj
 0001:00017b2c       DrvCreateDeviceBitmap      10018b2c f   2d_accel_lib:ddi_if.obj
 0001:00017c1c       DrvDeleteDeviceBitmap      10018c1c f   2d_accel_lib:ddi_if.obj
 0001:00017cb8       DrvMovePointer             10018cb8 f   2d_accel_lib:ddi_if.obj
 0001:00017d0c       ?SurfobjToGPE@@YAPAVGPE@@PAU_SURFOBJ@@@Z 10018d0c f i 2d_accel_lib:ddi_if.obj
 0001:00017d3c       DrvSetPointerShape         10018d3c f   2d_accel_lib:ddi_if.obj
 0001:00017f24       ??BTmpGPESurf@@QAAPAVGPESurf@@XZ 10018f24 f i 2d_accel_lib:ddi_if.obj
 0001:00017f50       ??1TmpGPESurf@@QAA@XZ      10018f50 f i 2d_accel_lib:ddi_if.obj
 0001:00017f70       DrvSetPalette              10018f70 f   2d_accel_lib:ddi_if.obj
 0001:00018050       DrvFillPath                10019050 f   2d_accel_lib:ddi_if.obj
 0001:000186a0       DrvRealizeBrush            100196a0 f   2d_accel_lib:ddi_if.obj
 0001:00018b20       DrvGetModes                10019b20 f   2d_accel_lib:ddi_if.obj
 0001:00018d04       DrvEnablePDEV              10019d04 f   2d_accel_lib:ddi_if.obj
 0001:00019250       ?GetModeId@GPE@@QAAHXZ     1001a250 f i 2d_accel_lib:ddi_if.obj
 0001:00019284       DrvPaint                   1001a284 f   2d_accel_lib:ddi_if.obj
 0001:00019344       DrvCopyBits                1001a344 f   2d_accel_lib:ddi_if.obj
 0001:0001936c       DrvAnyBlt                  1001a36c f   2d_accel_lib:ddi_if.obj
 0001:00019410       DrvTransparentBlt          1001a410 f   2d_accel_lib:ddi_if.obj
 0001:000194c0       DrvBitBlt                  1001a4c0 f   2d_accel_lib:ddi_if.obj
 0001:000195ec       AnyBlt                     1001a5ec f   2d_accel_lib:ddi_if.obj
 0001:0001a4ac       ?SourceMatters@@YA_NK@Z    1001b4ac f i 2d_accel_lib:ddi_if.obj
 0001:0001a508       ?BrushMatters@@YA_NK@Z     1001b508 f i 2d_accel_lib:ddi_if.obj
 0001:0001a564       ?MaskMatters@@YA_NK@Z      1001b564 f i 2d_accel_lib:ddi_if.obj
 0001:0001a5c0       ?ClipBlt@@YAJPAVGPE@@PAUGPEBltParms@@@Z 1001b5c0 f   2d_accel_lib:ddi_if.obj
 0001:0001a94c       ?AAGetMaskBits@@YAXPAK00@Z 1001b94c f   2d_accel_lib:ddi_if.obj
 0001:0001a9cc       ??0GPE@@QAA@XZ             1001b9cc f   2d_accel_lib:gpe.obj
 0001:0001aa88       ??_EGPE@@UAAPAXI@Z         1001ba88 f i 2d_accel_lib:gpe.obj
 0001:0001aa88       ??_GGPE@@UAAPAXI@Z         1001ba88 f i 2d_accel_lib:gpe.obj
 0001:0001aacc       ??1GPE@@UAA@XZ             1001bacc f   2d_accel_lib:gpe.obj
 0001:0001aaf0       ?ContrastControl@GPE@@UAAHKPAK@Z 1001baf0 f   2d_accel_lib:gpe.obj
 0001:0001ab18       ?PowerHandler@GPE@@UAAXH@Z 1001bb18 f   2d_accel_lib:gpe.obj
 0001:0001ab2c       ?GetPalette@GPE@@UAAJPAPAUtagPALETTEENTRY@@PAG@Z 1001bb2c f   2d_accel_lib:gpe.obj
 0001:0001abd8       ?DrvEscape@GPE@@UAAKPAU_SURFOBJ@@KKPAXK1@Z 1001bbd8 f   2d_accel_lib:gpe.obj
 0001:0001ac00       ?GetGraphicsCaps@GPE@@UAAKXZ 1001bc00 f   2d_accel_lib:gpe.obj
 0001:0001ac28       ?GetPhysicalVideoMemory@GPE@@UAAXPAK0@Z 1001bc28 f   2d_accel_lib:gpe.obj
 0001:0001ac3c       ?SetVisibleSurface@GPE@@UAAXPAVGPESurf@@@Z 1001bc3c f   2d_accel_lib:gpe.obj
 0001:0001ac50       ?FlipInProgress@GPE@@UAAHXZ 1001bc50 f   2d_accel_lib:gpe.obj
 0001:0001ac78       ?WaitForVBlank@GPE@@UAAXXZ 1001bc78 f   2d_accel_lib:gpe.obj
 0001:0001ac8c       ?SurfaceBusyFlipping@GPE@@UAAHPAVGPESurf@@@Z 1001bc8c f   2d_accel_lib:gpe.obj
 0001:0001acb4       ?IsBusy@GPE@@UAAHXZ        1001bcb4 f   2d_accel_lib:gpe.obj
 0001:0001acdc       ?WaitForNotBusy@GPE@@UAAXXZ 1001bcdc f   2d_accel_lib:gpe.obj
 0001:0001acf0       ?AvailableVideoMemory@GPE@@UAAKXZ 1001bcf0 f   2d_accel_lib:gpe.obj
 0001:0001ad18       ?ScanLine@GPE@@UAAHXZ      1001bd18 f   2d_accel_lib:gpe.obj
 0001:0001ad40       ?ProcessCommandBlock@GPE@@UAAJPAE@Z 1001bd40 f   2d_accel_lib:gpe.obj
 0001:0001ad6c       ?GetScreenDimensions@GPE@@UAAHPAUGPEScreenProps@@@Z 1001bd6c f   2d_accel_lib:gpe.obj
 0001:0001b0d8       ?IsPaletteSettable@GPE@@UAAHXZ 1001c0d8 f   2d_accel_lib:gpe.obj
 0001:0001b130       ?RotateRectl@GPE@@QAAXPAU_RECTL@@@Z 1001c130 f   2d_accel_lib:gpe.obj
 0001:0001b2d0       ?RotateRectlBack@GPE@@QAAXPAU_RECTL@@@Z 1001c2d0 f   2d_accel_lib:gpe.obj
 0001:0001b470       ?GetClearTypeRGBMasks@GPE@@UAAPAKXZ 1001c470 f   2d_accel_lib:gpe.obj
 0001:0001b4a4       ?DisablePrimary@GPE@@UAAHXZ 1001c4a4 f   2d_accel_lib:gpe.obj
 0001:0001b544       ??0GPESurf@@QAA@HHW4EGPEFormat@@@Z 1001c544 f   2d_accel_lib:gpe.obj
 0001:0001b784       ??0GPEFormat@@QAA@XZ       1001c784 f i 2d_accel_lib:gpe.obj
 0001:0001b7e8       ??_GGPESurf@@UAAPAXI@Z     1001c7e8 f i 2d_accel_lib:gpe.obj
 0001:0001b7e8       ??_EGPESurf@@UAAPAXI@Z     1001c7e8 f i 2d_accel_lib:gpe.obj
 0001:0001b82c       ?Init@GPESurf@@QAAXHHPAXHW4EGPEFormat@@@Z 1001c82c f   2d_accel_lib:gpe.obj
 0001:0001b934       ??1GPESurf@@UAA@XZ         1001c934 f   2d_accel_lib:gpe.obj
 0001:0001b9ac       ?RotateLineParms@GPESurf@@QAAXPAUGPELineParms@@@Z 1001c9ac f   2d_accel_lib:gpe.obj
 0001:0001bbe8       ?SetRotation@GPESurf@@QAAXHHH@Z 1001cbe8 f   2d_accel_lib:gpe.obj
 0001:0001bcbc       ?RotateRectl@GPESurf@@QAAXPAU_RECTL@@@Z 1001ccbc f   2d_accel_lib:gpe.obj
 0001:0001be5c       ?RotateRectlBack@GPESurf@@QAAXPAU_RECTL@@@Z 1001ce5c f   2d_accel_lib:gpe.obj
 0001:0001bffc       ?GetPtr@GPESurf@@QAAPAEHH@Z 1001cffc f   2d_accel_lib:gpe.obj
 0001:0001c1e4       ??1GPEFormat@@QAA@XZ       1001d1e4 f   2d_accel_lib:gpe.obj
 0001:0001c240       ?SECEmulatedBltSelect2416@S3C6410Disp@@UAAJPAUGPEBltParms@@@Z 1001d240 f   2d_accel_lib:bltsel2416.obj
 0001:0001cb64       ?SECEmulatedBltSelect1624@S3C6410Disp@@UAAJPAUGPEBltParms@@@Z 1001db64 f   2d_accel_lib:bltsel1624.obj
 0001:0001d4e4       ?SECEmulatedBltSelect16@S3C6410Disp@@UAAJPAUGPEBltParms@@@Z 1001e4e4 f   2d_accel_lib:ebbltsel.obj
 0001:0001dca8       ?EmulatedLine@GPE@@QAAJPAUGPELineParms@@@Z 1001eca8 f   2d_accel_lib:swline.obj
 0001:0001ed3c       ?SelectBlt@GPE@@IAAJPAUGPEBltParms@@P81@AAJ0@Z@Z 1001fd3c f   2d_accel_lib:swblt.obj
 0001:0001f4c4       ?EmulatedBlt@GPE@@QAAJPAUGPEBltParms@@@Z 100204c4 f   2d_accel_lib:swblt.obj
 0001:0001f504       ?EmulatedBltRotate@GPE@@QAAJPAUGPEBltParms@@@Z 10020504 f   2d_accel_lib:swblt.obj
 0001:0001f544       ?EmulatedBlt_Internal@GPE@@QAAJPAUGPEBltParms@@@Z 10020544 f   2d_accel_lib:swblt.obj
 0001:00022024       ?DestMatters@@YA_NK@Z      10023024 f i 2d_accel_lib:swblt.obj
 0001:00022080       ?EmulatedBlt_Bilinear@GPE@@QAAJPAUGPEBltParms@@@Z 10023080 f   2d_accel_lib:swblt.obj
 0001:00022ec8       ?EmulatedBlt_Halftone@GPE@@QAAJPAUGPEBltParms@@@Z 10023ec8 f   2d_accel_lib:swblt.obj
 0001:00023d10       ?EmulatedBltRotate_Internal@GPE@@QAAJPAUGPEBltParms@@@Z 10024d10 f   2d_accel_lib:swblt.obj
 0001:00026c2c       ?EmulatedBltRotate_Bilinear@GPE@@QAAJPAUGPEBltParms@@@Z 10027c2c f   2d_accel_lib:swblt.obj
 0001:00027f54       ?EmulatedBltRotate_Halftone@GPE@@QAAJPAUGPEBltParms@@@Z 10028f54 f   2d_accel_lib:swblt.obj
 0001:000292b8       ??_H@YAXPAXIHP6APAX0@Z@Z   1002a2b8 f i 2d_accel_lib:swconvrt.obj
 0001:00029308       ?AllocConverters@@YAHXZ    1002a308 f   2d_accel_lib:swconvrt.obj
 0001:00029414       ?FreeConverters@@YAXXZ     1002a414 f   2d_accel_lib:swconvrt.obj
 0001:0002949c       ?InitLRU@GroupColorConverter@@QAAHXZ 1002a49c f   2d_accel_lib:swconvrt.obj
 0001:000294d8       ?FreeLRU@GroupColorConverter@@QAAXXZ 1002a4d8 f   2d_accel_lib:swconvrt.obj
 0001:000294f8       ??0LRU@@QAA@XZ             1002a4f8 f   2d_accel_lib:swconvrt.obj
 0001:0002954c       ?Init@LRU@@QAAHG@Z         1002a54c f   2d_accel_lib:swconvrt.obj
 0001:00029718       ?Find@LRU@@QAAFK@Z         1002a718 f   2d_accel_lib:swconvrt.obj
 0001:000299c0       ?Add@LRU@@QAAFK@Z          1002a9c0 f   2d_accel_lib:swconvrt.obj
 0001:00029acc       ?Fill@LRU@@QAAXK@Z         1002aacc f   2d_accel_lib:swconvrt.obj
 0001:00029b04       ?Free@LRU@@QAAXXZ          1002ab04 f   2d_accel_lib:swconvrt.obj
 0001:00029ba8       ?SwapRedBlue@@YAKK@Z       1002aba8 f   2d_accel_lib:swconvrt.obj
 0001:00029be8       ?InitMaskInfo@MaskInfo@@QAAXPAU_XLATEOBJ@@KG@Z 1002abe8 f   2d_accel_lib:swconvrt.obj
 0001:00029db8       ?RGBToGroup@@YAFK@Z        1002adb8 f   2d_accel_lib:swconvrt.obj
 0001:00029e10       ?InitConverter@ColorConverter@@SAXPAU_XLATEOBJ@@PAPAV1@PAP81@AAKK@ZPAPAK@Z 1002ae10 f   2d_accel_lib:swconvrt.obj
 0001:0002a298       ?Init@MonoColorConverter@@QAAXK@Z 1002b298 f i 2d_accel_lib:swconvrt.obj
 0001:0002a2b8       ?LookupTable@LookupColorConverter@@QAAPAKXZ 1002b2b8 f i 2d_accel_lib:swconvrt.obj
 0001:0002a2e4       ?Init@MaskColorConverter@@QAAXPAU_XLATEOBJ@@@Z 1002b2e4 f   2d_accel_lib:swconvrt.obj
 0001:0002a334       ?Init@GroupColorConverter@@QAAXPAU_XLATEOBJ@@@Z 1002b334 f   2d_accel_lib:swconvrt.obj
 0001:0002a730       ?Init@LookupColorConverter@@QAAXPAU_XLATEOBJ@@@Z 1002b730 f   2d_accel_lib:swconvrt.obj
 0001:0002aa28       ?MaskedSrcToPaletteDst@GroupColorConverter@@QAAKK@Z 1002ba28 f   2d_accel_lib:swconvrt.obj
 0001:0002adc0       ?RGBToFromBGR@MaskColorConverter@@QAAKK@Z 1002bdc0 f   2d_accel_lib:swconvrt.obj
 0001:0002adf4       ?RGBToFromBGR@GroupColorConverter@@QAAKK@Z 1002bdf4 f   2d_accel_lib:swconvrt.obj
 0001:0002ae28       ?MaskedSrcToRGB@MaskColorConverter@@QAAKK@Z 1002be28 f   2d_accel_lib:swconvrt.obj
 0001:0002af48       ?MaskedSrcToRGB@GroupColorConverter@@QAAKK@Z 1002bf48 f   2d_accel_lib:swconvrt.obj
 0001:0002b08c       ?MaskedSrcToBGR@MaskColorConverter@@QAAKK@Z 1002c08c f   2d_accel_lib:swconvrt.obj
 0001:0002b1ac       ?RGBSrcToMaskedDst@MaskColorConverter@@QAAKK@Z 1002c1ac f   2d_accel_lib:swconvrt.obj
 0001:0002b250       ?RGBSrcToMaskedDst@LookupColorConverter@@QAAKK@Z 1002c250 f   2d_accel_lib:swconvrt.obj
 0001:0002b2f0       ?BGRSrcToMaskedDst@MaskColorConverter@@QAAKK@Z 1002c2f0 f   2d_accel_lib:swconvrt.obj
 0001:0002b394       ?MaskedSrcToMaskedDst@MaskColorConverter@@QAAKK@Z 1002c394 f   2d_accel_lib:swconvrt.obj
 0001:0002b500       ?AnyToMono@MonoColorConverter@@QAAKK@Z 1002c500 f   2d_accel_lib:swconvrt.obj
 0001:0002b550       DrvRealizeColor            1002c550 f   2d_accel_lib:swconvrt.obj
 0001:0002b85c       DrvUnrealizeColor          1002c85c f   2d_accel_lib:swconvrt.obj
 0001:0002ba74       ??0GroupColorConverter@@QAA@XZ 1002ca74 f i 2d_accel_lib:swconvrt.obj
 0001:0002baa8       DrvStrokePath              1002caa8 f   2d_accel_lib:drvstrok.obj
 0001:0002cb70       ?SafeCallLine@@YAJPAVGPE@@PAUGPELineParms@@@Z 1002db70 f   2d_accel_lib:drvstrok.obj
 0001:0002cbec       ??0TmpGPESurf@@QAA@PAU_SURFOBJ@@0PAV0@@Z 1002dbec f   2d_accel_lib:tmpgpesurf.obj
 0001:0002cd24       ??0GPESurf@@QAA@XZ         1002dd24 f i 2d_accel_lib:tmpgpesurf.obj
 0001:0002cd7c       ?InUserMemory@GPESurf@@QAAXH@Z 1002dd7c f i 2d_accel_lib:tmpgpesurf.obj
 0001:0002cda0       ??0EdgeList@@QAA@H@Z       1002dda0 f   2d_accel_lib:swfill.obj
 0001:0002ce50       ??1EdgeList@@QAA@XZ        1002de50 f   2d_accel_lib:swfill.obj
 0001:0002ce80       ?AddEdge@EdgeList@@QAAJJJJJ@Z 1002de80 f   2d_accel_lib:swfill.obj
 0001:0002d310       ?Fill@EdgeList@@QAAJPAUGPEBltParms@@PAU_RECTL@@PAVGPE@@@Z 1002e310 f   2d_accel_lib:swfill.obj
 0001:0002dbc8       ?EmulatedBltSrcCopyBT888TB555@SECEmulator@@QAAJPAUGPEBltParms@@@Z 1002ebc8 f   2d_accel_lib:secemul_blt888555.obj
 0001:0002ddb4       ?EmulatedBltSrcCopyTB888TB555@SECEmulator@@QAAJPAUGPEBltParms@@@Z 1002edb4 f   2d_accel_lib:secemul_blt888555.obj
 0001:0002dfa0       ?EmulatedBltSrcCopyTB888BT555@SECEmulator@@QAAJPAUGPEBltParms@@@Z 1002efa0 f   2d_accel_lib:secemul_blt888555.obj
 0001:0002e18c       ?EmulatedBltSrcCopyBT888BT555@SECEmulator@@QAAJPAUGPEBltParms@@@Z 1002f18c f   2d_accel_lib:secemul_blt888555.obj
 0001:0002e378       ?EmulatedBltSrcCopyBT24TB16@SECEmulator@@QAAJPAUGPEBltParms@@@Z 1002f378 f   2d_accel_lib:secemul_blt2416.obj
 0001:0002e564       ?EmulatedBltSrcCopyTB24TB16@SECEmulator@@QAAJPAUGPEBltParms@@@Z 1002f564 f   2d_accel_lib:secemul_blt2416.obj
 0001:0002e750       ?EmulatedBltSrcCopyTB24BT16@SECEmulator@@QAAJPAUGPEBltParms@@@Z 1002f750 f   2d_accel_lib:secemul_blt2416.obj
 0001:0002e93c       ?EmulatedBltSrcCopyBT24BT16@SECEmulator@@QAAJPAUGPEBltParms@@@Z 1002f93c f   2d_accel_lib:secemul_blt2416.obj
 0001:0002eb28       ?EmulatedBltSrcCopyBT555TB888@SECEmulator@@QAAJPAUGPEBltParms@@@Z 1002fb28 f   2d_accel_lib:secemul_blt555888.obj
 0001:0002edcc       ?EmulatedBltSrcCopyTB555TB888@SECEmulator@@QAAJPAUGPEBltParms@@@Z 1002fdcc f   2d_accel_lib:secemul_blt555888.obj
 0001:0002f070       ?EmulatedBltSrcCopyTB555BT888@SECEmulator@@QAAJPAUGPEBltParms@@@Z 10030070 f   2d_accel_lib:secemul_blt555888.obj
 0001:0002f314       ?EmulatedBltSrcCopyBT555BT888@SECEmulator@@QAAJPAUGPEBltParms@@@Z 10030314 f   2d_accel_lib:secemul_blt555888.obj
 0001:0002f5b8       ?EmulatedBltSrcCopyBT16TB24@SECEmulator@@QAAJPAUGPEBltParms@@@Z 100305b8 f   2d_accel_lib:secemul_blt1624.obj
 0001:0002f85c       ?EmulatedBltSrcCopyTB16TB24@SECEmulator@@QAAJPAUGPEBltParms@@@Z 1003085c f   2d_accel_lib:secemul_blt1624.obj
 0001:0002fb00       ?EmulatedBltSrcCopyTB16BT24@SECEmulator@@QAAJPAUGPEBltParms@@@Z 10030b00 f   2d_accel_lib:secemul_blt1624.obj
 0001:0002fda4       ?EmulatedBltSrcCopyBT16BT24@SECEmulator@@QAAJPAUGPEBltParms@@@Z 10030da4 f   2d_accel_lib:secemul_blt1624.obj
 0001:00030048       ?EmulatedBltSrcPaint1616@SECEmulator@@QAAJPAUGPEBltParms@@@Z 10031048 f   2d_accel_lib:ebspnt16.obj
 0001:00030410       ?EmulatedBltSrcAnd1616@SECEmulator@@QAAJPAUGPEBltParms@@@Z 10031410 f   2d_accel_lib:ebsand16.obj
 0001:000307d0       ?EmulatedBltMergePaint1616@SECEmulator@@QAAJPAUGPEBltParms@@@Z 100317d0 f   2d_accel_lib:ebsmp16.obj
 0001:00030b24       ?EmulatedBltSrcInvert1616@SECEmulator@@QAAJPAUGPEBltParms@@@Z 10031b24 f   2d_accel_lib:ebsinv16.obj
 0001:00030f20       ?EmulatedBltDstInvert16@SECEmulator@@QAAJPAUGPEBltParms@@@Z 10031f20 f   2d_accel_lib:ebdinv16.obj
 0001:00030fb8       ?EmulatedBltPatInvert16@SECEmulator@@QAAJPAUGPEBltParms@@@Z 10031fb8 f   2d_accel_lib:ebpinv16.obj
 0001:00031078       ?EmulatedBltSrcErase1616@SECEmulator@@QAAJPAUGPEBltParms@@@Z 10032078 f   2d_accel_lib:ebsse16.obj
 0001:000313c4       ?EmulatedBltFill16@SECEmulator@@QAAJPAUGPEBltParms@@@Z 100323c4 f   2d_accel_lib:ebfill16.obj
 0001:00031474       ?EmulatedBltNotSrcErase1616@SECEmulator@@QAAJPAUGPEBltParms@@@Z 10032474 f   2d_accel_lib:ebsnse16.obj
 0001:000317c8       ?EmulatedBltNotSrcCopy1616@SECEmulator@@QAAJPAUGPEBltParms@@@Z 100327c8 f   2d_accel_lib:ebsnsc16.obj
 0001:00031b0c       ?EmulatedBltSrcCopy1616@SECEmulator@@QAAJPAUGPEBltParms@@@Z 10032b0c f   2d_accel_lib:ebcopy16.obj
 0001:00031fc4       ?EmulatedBltSrcCopy1616Convert_RGB555_TO_RGB565_EX@SECEmulator@@QAAJPAUGPEBltParms@@@Z 10032fc4 f   2d_accel_lib:ebcopy16.obj
 0001:000325b4       ?ProcessROP3@@YAKKKKEE@Z   100335b4 f   2d_accel_lib:blthelpers.obj
 0001:00032710       ?RGBError@@YAKKK@Z         10033710 f   2d_accel_lib:blthelpers.obj
 0001:0003281c       ?FillMasksAndShifts@@YAXPAVGPESurf@@PAK1@Z 1003381c f   2d_accel_lib:blthelpers.obj
 0001:00032954       ?ClipRect@@YA_NPAU_RECTL@@PBU1@1@Z 10033954 f   2d_accel_lib:blthelpers.obj
 0001:00032b04       ?AveragePixels@@YAKKKHHPAK0@Z 10033b04 f   2d_accel_lib:blthelpers.obj
 0001:00032d68       ?AverageAndClampPixels@@YAKKKHHPAK0@Z 10033d68 f   2d_accel_lib:blthelpers.obj
 0001:00033084       ?HalftoneBlend16Bpp@@YAXPAEKHHPAK1@Z 10034084 f   2d_accel_lib:blthelpers.obj
 0001:000330e8       ?HalftoneBlend24Bpp@@YAXPAEKHHPAK1@Z 100340e8 f   2d_accel_lib:blthelpers.obj
 0001:000331b8       ?HalftoneBlend32Bpp@@YAXPAEKHHPAK1@Z 100341b8 f   2d_accel_lib:blthelpers.obj
 0001:00033214       ?InitBrushPixelIterator@BrushPixelIterator@@QAAXPAVGPESurf@@HHPAU_RECTL@@@Z 10034214 f   2d_accel_lib:pixeliterator.obj
 0001:00033444       ?InitPixelIterator@PixelIterator@@QAAXPAVGPESurf@@HHPAU_RECTL@@HH@Z 10034444 f   2d_accel_lib:pixeliterator.obj
 0001:00033834       ?InitPixelIterator@PixelIteratorRotate@@QAAXPAVGPESurf@@HHPAU_RECTL@@HH@Z 10034834 f   2d_accel_lib:pixeliterator.obj
 0001:00033bc0       ?GetPtr@PixelIteratorRotate@@QAAPAEXZ 10034bc0 f   2d_accel_lib:pixeliterator.obj
 0001:00033e0c       CopyBGR888ToRGB555DownTop2TopDownAlign 10034e0c f   2d_accel_lib:RGB555CopyFunctionsAlign.obj
 0001:00033fb0       CopyBGR888ToRGB555TopDown2TopDownAlign 10034fb0 f   2d_accel_lib:RGB555CopyFunctionsAlign.obj
 0001:00034154       CopyBGR888ToRGB555DownTop2DownTopAlign 10035154 f   2d_accel_lib:RGB555CopyFunctionsAlign.obj
 0001:000342f8       CopyBGR888ToRGB555TopDown2DownTopAlign 100352f8 f   2d_accel_lib:RGB555CopyFunctionsAlign.obj
 0001:0003449c       CopyBGR888ToRGB555DownTop2TopDown 1003549c f   2d_accel_lib:RGB555CopyFunctions.obj
 0001:00034560       CopyBGR888ToRGB555TopDown2TopDown 10035560 f   2d_accel_lib:RGB555CopyFunctions.obj
 0001:00034624       CopyBGR888ToRGB555DownTop2DownTop 10035624 f   2d_accel_lib:RGB555CopyFunctions.obj
 0001:000346e8       CopyBGR888ToRGB555TopDown2DownTop 100356e8 f   2d_accel_lib:RGB555CopyFunctions.obj
 0001:000347ac       CopyBGR24ToRGB16DownTop2TopDownAlign 100357ac f   2d_accel_lib:RGBCopyFunctionsAlign.obj
 0001:00034950       CopyBGR24ToRGB16TopDown2TopDownAlign 10035950 f   2d_accel_lib:RGBCopyFunctionsAlign.obj
 0001:00034af4       CopyBGR24ToRGB16DownTop2DownTopAlign 10035af4 f   2d_accel_lib:RGBCopyFunctionsAlign.obj
 0001:00034c98       CopyBGR24ToRGB16TopDown2DownTopAlign 10035c98 f   2d_accel_lib:RGBCopyFunctionsAlign.obj
 0001:00034e3c       CopyBGR24ToRGB16DownTop2TopDown 10035e3c f   2d_accel_lib:RGBCopyFunctions.obj
 0001:00034f00       CopyBGR24ToRGB16TopDown2TopDown 10035f00 f   2d_accel_lib:RGBCopyFunctions.obj
 0001:00034fc4       CopyBGR24ToRGB16DownTop2DownTop 10035fc4 f   2d_accel_lib:RGBCopyFunctions.obj
 0001:00035088       CopyBGR24ToRGB16TopDown2DownTop 10036088 f   2d_accel_lib:RGBCopyFunctions.obj
 0001:0003514c       CopyRGB555ToBGR888DownTop2TopDownAlign 1003614c f   2d_accel_lib:RGB555CopyFunctionsAlign.obj
 0001:0003531c       CopyRGB555ToBGR888TopDown2TopDownAlign 1003631c f   2d_accel_lib:RGB555CopyFunctionsAlign.obj
 0001:000354ec       CopyRGB555ToBGR888DownTop2DownTopAlign 100364ec f   2d_accel_lib:RGB555CopyFunctionsAlign.obj
 0001:000356bc       CopyRGB555ToBGR888TopDown2DownTopAlign 100366bc f   2d_accel_lib:RGB555CopyFunctionsAlign.obj
 0001:0003588c       CopyRGB555ToBGR888DownTop2TopDown 1003688c f   2d_accel_lib:RGB555CopyFunctions.obj
 0001:0003599c       CopyRGB555ToBGR888TopDown2TopDown 1003699c f   2d_accel_lib:RGB555CopyFunctions.obj
 0001:00035aac       CopyRGB555ToBGR888DownTop2DownTop 10036aac f   2d_accel_lib:RGB555CopyFunctions.obj
 0001:00035bbc       CopyRGB555ToBGR888TopDown2DownTop 10036bbc f   2d_accel_lib:RGB555CopyFunctions.obj
 0001:00035ccc       CopyRGB555ToBGR888DownTop2TopDownAlignTrans 10036ccc f   2d_accel_lib:RGB555CopyFunctionsAlignTrans.obj
 0001:00035f00       CopyRGB555ToBGR888TopDown2TopDownAlignTrans 10036f00 f   2d_accel_lib:RGB555CopyFunctionsAlignTrans.obj
 0001:00036134       CopyRGB555ToBGR888DownTop2DownTopAlignTrans 10037134 f   2d_accel_lib:RGB555CopyFunctionsAlignTrans.obj
 0001:00036368       CopyRGB555ToBGR888TopDown2DownTopAlignTrans 10037368 f   2d_accel_lib:RGB555CopyFunctionsAlignTrans.obj
 0001:0003659c       CopyRGB555ToBGR888DownTop2TopDownTrans 1003759c f   2d_accel_lib:RGB555CopyFunctionsTrans.obj
 0001:00036714       CopyRGB555ToBGR888TopDown2TopDownTrans 10037714 f   2d_accel_lib:RGB555CopyFunctionsTrans.obj
 0001:0003688c       CopyRGB555ToBGR888DownTop2DownTopTrans 1003788c f   2d_accel_lib:RGB555CopyFunctionsTrans.obj
 0001:00036a04       CopyRGB555ToBGR888TopDown2DownTopTrans 10037a04 f   2d_accel_lib:RGB555CopyFunctionsTrans.obj
 0001:00036b7c       CopyRGB16ToBGR24DownTop2TopDownAlign 10037b7c f   2d_accel_lib:RGBCopyFunctionsAlign.obj
 0001:00036d4c       CopyRGB16ToBGR24TopDown2TopDownAlign 10037d4c f   2d_accel_lib:RGBCopyFunctionsAlign.obj
 0001:00036f1c       CopyRGB16ToBGR24DownTop2DownTopAlign 10037f1c f   2d_accel_lib:RGBCopyFunctionsAlign.obj
 0001:000370ec       CopyRGB16ToBGR24TopDown2DownTopAlign 100380ec f   2d_accel_lib:RGBCopyFunctionsAlign.obj
 0001:000372bc       CopyRGB16ToBGR24DownTop2TopDown 100382bc f   2d_accel_lib:RGBCopyFunctions.obj
 0001:000373cc       CopyRGB16ToBGR24TopDown2TopDown 100383cc f   2d_accel_lib:RGBCopyFunctions.obj
 0001:000374dc       CopyRGB16ToBGR24DownTop2DownTop 100384dc f   2d_accel_lib:RGBCopyFunctions.obj
 0001:000375ec       CopyRGB16ToBGR24TopDown2DownTop 100385ec f   2d_accel_lib:RGBCopyFunctions.obj
 0001:000376fc       CopyRGB16ToBGR24DownTop2TopDownAlignTrans 100386fc f   2d_accel_lib:RGBCopyFunctionsAlignTrans.obj
 0001:00037930       CopyRGB16ToBGR24TopDown2TopDownAlignTrans 10038930 f   2d_accel_lib:RGBCopyFunctionsAlignTrans.obj
 0001:00037b64       CopyRGB16ToBGR24DownTop2DownTopAlignTrans 10038b64 f   2d_accel_lib:RGBCopyFunctionsAlignTrans.obj
 0001:00037d98       CopyRGB16ToBGR24TopDown2DownTopAlignTrans 10038d98 f   2d_accel_lib:RGBCopyFunctionsAlignTrans.obj
 0001:00037fcc       CopyRGB16ToBGR24DownTop2TopDownTrans 10038fcc f   2d_accel_lib:RGBCopyFunctionsTrans.obj
 0001:00038144       CopyRGB16ToBGR24TopDown2TopDownTrans 10039144 f   2d_accel_lib:RGBCopyFunctionsTrans.obj
 0001:000382bc       CopyRGB16ToBGR24DownTop2DownTopTrans 100392bc f   2d_accel_lib:RGBCopyFunctionsTrans.obj
 0001:00038434       CopyRGB16ToBGR24TopDown2DownTopTrans 10039434 f   2d_accel_lib:RGBCopyFunctionsTrans.obj
 0001:000385ac       ?AATextBltInit@@YAHP6AXPAK00@Z@Z 100395ac f   gpe:aablt.obj
 0001:000385c4       ?AATextBltDst8@AATextBlt@@QAAJPAUGPEBltParms@@@Z 100395c4 f   gpe:aablt.obj
 0001:00038770       ?SetGamma@AAMASKINFO@@QAAXM@Z 10039770 f i gpe:aablt.obj
 0001:00038970       ?BlendPixelAA@AAMASKINFO@@QAAKKE@Z 10039970 f   gpe:aablt.obj
 0001:00038cdc       ?SetAAGammaValue@@YAHKH@Z  10039cdc f   gpe:aablt.obj
 0001:00038dfc       ?AATextBltDst16@AATextBlt@@QAAJPAUGPEBltParms@@@Z 10039dfc f   gpe:aablt.obj
 0001:0003902c       ?AATextBltDst24@AATextBlt@@QAAJPAUGPEBltParms@@@Z 1003a02c f   gpe:aablt.obj
 0001:0003927c       ?AATextBltDst32@AATextBlt@@QAAJPAUGPEBltParms@@@Z 1003a27c f   gpe:aablt.obj
 0001:000394a4       ?AATextBltSelect@@YAJPAUGPEBltParms@@@Z 1003a4a4 f   gpe:aablt.obj
 0001:00039558       DrvAlphaBlend              1003a558 f   gpe:drvalphablend.obj
 0001:0003969c       ?drvRectFill32@@YAXPAVGPESurf@@PAU_DRVGRADIENTRECTDATA@@@Z 1003a69c f   gpe:rdrvgradfill.obj
 0001:00039ddc       ?drvRectFill24@@YAXPAVGPESurf@@PAU_DRVGRADIENTRECTDATA@@@Z 1003addc f   gpe:rdrvgradfill.obj
 0001:0003a41c       ?drvRectFill16@@YAXPAVGPESurf@@PAU_DRVGRADIENTRECTDATA@@H@Z 1003b41c f   gpe:rdrvgradfill.obj
 0001:0003a914       ?drvRectFill16_565@@YAXPAVGPESurf@@PAU_DRVGRADIENTRECTDATA@@@Z 1003b914 f   gpe:rdrvgradfill.obj
 0001:0003a928       ?drvRectFill16_555@@YAXPAVGPESurf@@PAU_DRVGRADIENTRECTDATA@@@Z 1003b928 f   gpe:rdrvgradfill.obj
 0001:0003a980       ?drvRectFill16Bitfields@@YAXPAVGPESurf@@PAU_DRVGRADIENTRECTDATA@@@Z 1003b980 f   gpe:rdrvgradfill.obj
 0001:0003a994       ?drvRectFillPalIndex@@YAXPAVGPESurf@@PAU_DRVGRADIENTRECTDATA@@H@Z 1003b994 f   gpe:rdrvgradfill.obj
 0001:0003ae6c       ?drvRectFill8@@YAXPAVGPESurf@@PAU_DRVGRADIENTRECTDATA@@@Z 1003be6c f   gpe:rdrvgradfill.obj
 0001:0003ae80       ?drvRectFill4@@YAXPAVGPESurf@@PAU_DRVGRADIENTRECTDATA@@@Z 1003be80 f   gpe:rdrvgradfill.obj
 0001:0003ae94       ?drvRectFill1@@YAXPAVGPESurf@@PAU_DRVGRADIENTRECTDATA@@@Z 1003be94 f   gpe:rdrvgradfill.obj
 0001:0003b58c       DrvGradientFill            1003c58c f   gpe:rdrvgradfill.obj
 0001:0003be90       ?vClearTypeLookupTableLoop@@YAXKPAU_BLENDINFO@@KKPAVGPESurf@@@Z 1003ce90 f   gpe:rctblt.obj
 0001:0003c25c       ?ulBlendPixelCT@@YAKPAU_BLENDINFO@@KPAU_F_RGB@@@Z 1003d25c f   gpe:rctblt.obj
 0001:0003c398       ?ulBlendPixelCT8bpp@@YAKPAU_BLENDINFO@@KPAU_F_RGB@@@Z 1003d398 f   gpe:rctblt.obj
 0001:0003c474       ?SetClearTypeBltMasks@@YAXKKK@Z 1003d474 f   gpe:rctblt.obj
 0001:0003c550       ?SetClearTypeBltGamma@@YAXK@Z 1003d550 f   gpe:rctblt.obj
 0001:0003c710       ?GetGammaValue@@YAHPAK@Z   1003d710 f   gpe:rctblt.obj
 0001:0003c72c       ?SetGammaValue@@YAHKH@Z    1003d72c f   gpe:rctblt.obj
 0001:0003c8d0       ?pvFillOpaqTableCT@@YAPAXKKKPAVGPESurf@@PAU_BLENDINFO@@@Z 1003d8d0 f   gpe:rctblt.obj
 0001:0003c98c       ?ClearTypeBltInit@@YAHPAUGPEMode@@PAKPAUtagPALETTEENTRY@@I@Z 1003d98c f   gpe:rctblt.obj
 0001:0003cae8       ?ClearTypeBltDst16@ClearTypeBlt@@QAAJPAUGPEBltParms@@@Z 1003dae8 f   gpe:rctblt.obj
 0001:0003ccc8       ?ClearTypeBltDst24@ClearTypeBlt@@QAAJPAUGPEBltParms@@@Z 1003dcc8 f   gpe:rctblt.obj
 0001:0003cec0       ?ClearTypeBltDst32@ClearTypeBlt@@QAAJPAUGPEBltParms@@@Z 1003dec0 f   gpe:rctblt.obj
 0001:0003d0a0       ?ClearTypeBltDst8@ClearTypeBlt@@QAAJPAUGPEBltParms@@@Z 1003e0a0 f   gpe:rctblt.obj
 0001:0003d270       ?ClearTypeBltSelect@@YAJPAUGPEBltParms@@@Z 1003e270 f   gpe:rctblt.obj
 0001:0003d30c       GenBltInitialize           1003e30c f   gpe:genblt.obj
 0001:0003d4c4       ?ClockOverflow@@YAXXZ      1003e4c4 f   gpe:genblt.obj
 0001:0003d504       ?FunctionCacheLookup@@YAPAUGenBltFunction@@PAUGenBltSignature@@@Z 1003e504 f   gpe:genblt.obj
 0001:0003d570       ?GetFnCacheMem@@YAPAUGenBltFunction@@PAUGenBltSignature@@@Z 1003e570 f   gpe:genblt.obj
 0001:0003d5f0       ?GetBltFunction@@YAPAUGenBltFunction@@PAUGenBltSignature@@@Z 1003e5f0 f   gpe:genblt.obj
 0001:0003d6a4       ?GPEFormatToGenBltFormat@@YA?AW4GenBltFormat@@PAVGPEFormat@@W4EGPEFormat@@@Z 1003e6a4 f   gpe:genblt.obj
 0001:0003d81c       GenBltSetMode              1003e81c f   gpe:genblt.obj
 0001:0003da28       ?GenerateSignature@@YAHPAUGPEBltParms@@PAUGenBltSignature@@@Z 1003ea28 f   gpe:genblt.obj
 0001:0003deb4       ?WrappedGeneratedBlt@GPE@@QAAJPAUGPEBltParms@@@Z 1003eeb4 f   gpe:GenBltGpe.obj
 0001:0003dfb4       GeneratedBltSelect         1003efb4 f   gpe:GenBltGpe.obj
 0001:0003e004       ?IsSurface_R5_G6_B5@@YAHPAVGPESurf@@@Z 1003f004 f i gpe:FastBlt.obj
 0001:0003e05c       ?IsSurface_A8_R8_G8_B8@@YAHPAVGPESurf@@@Z 1003f05c f i gpe:FastBlt.obj
 0001:0003e0c0       ?CanUse_Blt_Stretch_Alpha_32To16at565@@YAHPAUGPEBltParms@@@Z 1003f0c0 f i gpe:FastBlt.obj
 0001:0003e1bc       ?Blt_Stretch_Alpha_32To16at565@Emulator@@QAAJPAUGPEBltParms@@@Z 1003f1bc f   gpe:FastBlt.obj
 0001:0003e958       ?CanUse_Blt_NoStretch_Alpha_32To16at565@@YAHPAUGPEBltParms@@@Z 1003f958 f i gpe:FastBlt.obj
 0001:0003e994       ?Blt_NoStretch_Alpha_32To16at565@Emulator@@QAAJPAUGPEBltParms@@@Z 1003f994 f   gpe:FastBlt.obj
 0001:0003ece0       ?CanUse_Blt_NoStretch_Alpha_24To24@@YAHPAUGPEBltParms@@@Z 1003fce0 f i gpe:FastBlt.obj
 0001:0003ed78       ?Blt_NoStretch_Alpha_24To24_Aligned@@YAJPAKH0HHHK@Z 1003fd78 f   gpe:FastBlt.obj
 0001:0003eebc       ?Blt_NoStretch_Alpha_24To24@Emulator@@QAAJPAUGPEBltParms@@@Z 1003febc f   gpe:FastBlt.obj
 0001:0003f094       ?CanUse_Blt_NoStretch_Alpha_16To16@@YAHPAUGPEBltParms@@@Z 10040094 f i gpe:FastBlt.obj
 0001:0003f13c       ?Blt_NoStretch_Alpha_16To16@Emulator@@QAAJPAUGPEBltParms@@@Z 1004013c f   gpe:FastBlt.obj
 0001:0003f318       ?CanUse_Blt_NoStretch_Trans_16To16@@YAHPAUGPEBltParms@@@Z 10040318 f i gpe:FastBlt.obj
 0001:0003f3b4       ?Blt_NoStretch_Trans_16To16@Emulator@@QAAJPAUGPEBltParms@@@Z 100403b4 f   gpe:FastBlt.obj
 0001:0003f47c       ?CanUse_Blt_Stretch_Trans_16To16@@YAHPAUGPEBltParms@@@Z 1004047c f i gpe:FastBlt.obj
 0001:0003f51c       ?CanUse_Blt_NoStretch_NoTrans_32To16at565@@YAHPAUGPEBltParms@@@Z 1004051c f i gpe:FastBlt.obj
 0001:0003f5b4       ?Blt_NoStretch_NoTrans_32To16at565@Emulator@@QAAJPAUGPEBltParms@@@Z 100405b4 f   gpe:FastBlt.obj
 0001:0003f680       ?CanUse_Blt_NoStretch_NoTrans_16at565To32@@YAHPAUGPEBltParms@@@Z 10040680 f i gpe:FastBlt.obj
 0001:0003f724       ?Blt_NoStretch_NoTrans_16at565To32@Emulator@@QAAJPAUGPEBltParms@@@Z 10040724 f   gpe:FastBlt.obj
 0001:0003f7ec       ?CanUse_Blt_NoStretch_NoTrans_24To24@@YAHPAUGPEBltParms@@@Z 100407ec f i gpe:FastBlt.obj
 0001:0003f884       ?Blt_NoStretch_NoTrans_24To24@Emulator@@QAAJPAUGPEBltParms@@@Z 10040884 f   gpe:FastBlt.obj
 0001:0003f93c       ?CanUse_Blt_NoStretch_NoTrans_16To16@@YAHPAUGPEBltParms@@@Z 1004093c f i gpe:FastBlt.obj
 0001:0003f9d4       ?Blt_NoStretch_NoTrans_16To16@Emulator@@QAAJPAUGPEBltParms@@@Z 100409d4 f   gpe:FastBlt.obj
 0001:0003fa88       ?CanUse_Blt_Text_32@@YAHPAUGPEBltParms@@@Z 10040a88 f i gpe:FastBlt.obj
 0001:0003fb14       ?Blt_Text_32@Emulator@@QAAJPAUGPEBltParms@@@Z 10040b14 f   gpe:FastBlt.obj
 0001:0003fc0c       ?CanUse_Blt_Fill_32@@YAHPAUGPEBltParms@@@Z 10040c0c f i gpe:FastBlt.obj
 0001:0003fc68       ?Blt_Fill_32@Emulator@@QAAJPAUGPEBltParms@@@Z 10040c68 f   gpe:FastBlt.obj
 0001:0003fd00       ?CanUse_Blt_Fill_24@@YAHPAUGPEBltParms@@@Z 10040d00 f i gpe:FastBlt.obj
 0001:0003fd5c       ?Blt_Fill_24@Emulator@@QAAJPAUGPEBltParms@@@Z 10040d5c f   gpe:FastBlt.obj
 0001:0003fe14       ?Blt_Stretch_Trans_16To16@Emulator@@QAAJPAUGPEBltParms@@@Z 10040e14 f   gpe:FastBlt.obj
 0001:000404b4       FastBltSelect              100414b4 f   gpe:FastBlt.obj
 0001:000406a0       EmulatedBltSelect02        100416a0 f   gpe:ebbltsel.obj
 0001:000406a8       EmulatedBltSelect08        100416a8 f   gpe:ebbltsel.obj
 0001:000408d0       EmulatedBltSelect16        100418d0 f   gpe:ebbltsel.obj
 0001:00040aa4       GenBltCpuInitialize        10041aa4 f   gpe:genblt_arm.obj
 0001:00040ad0       ?RopRecurse@@YAFPAKF@Z     10041ad0 f   gpe:parse.obj
 0001:00040bf0       ?ConvertRecurse@@YAFPAKKF@Z 10041bf0 f   gpe:parse.obj
 0001:00040de8       ?GenBltInvariantParser@@YA_NPAK0PAUGenBltSignature@@@Z 10041de8 f   gpe:parse.obj
 0001:000410d4       ?InvariantRecurse@@YAFPAKKKHF@Z 100420d4 f   gpe:parse.obj
 0001:0004141c       ?InvariantInitialize@@YAHPAK@Z 1004241c f   gpe:parse.obj
 0001:00041658       ?BRegFromBltSig@@YAKPAUGenBltSignature@@@Z 10042658 f   gpe:InitRegs.obj
 0001:000417ac       ?InitPCodeRegs@@YAXPAUGPEBltParms@@PAUPCodeRegisters_t@@@Z 100427ac f   gpe:InitRegs.obj
 0001:00042520       ?EmulatedBltSrcCopy0108@Emulator@@QAAJPAUGPEBltParms@@@Z 10043520 f   gpe:ebcp0108.obj
 0001:00042994       ?EmulatedBltSrcCopy0408@Emulator@@QAAJPAUGPEBltParms@@@Z 10043994 f   gpe:ebcp0408.obj
 0001:00042b20       ?EmulatedBltSrcCopy0808@Emulator@@QAAJPAUGPEBltParms@@@Z 10043b20 f   gpe:ebcopy08.obj
 0001:00042ea0       ?EmulatedBltSrcPaint0808@Emulator@@QAAJPAUGPEBltParms@@@Z 10043ea0 f   gpe:ebspnt08.obj
 0001:000432a0       ?EmulatedBltPatternCopy08@Emulator@@QAAJPAUGPEBltParms@@@Z 100442a0 f   gpe:ebpcpy08.obj
 0001:0004367c       ?EmulatedBltAlphaText08@Emulator@@QAAJPAUGPEBltParms@@@Z 1004467c f   gpe:ebalph08.obj
 0001:0004369c       ?EmulatedBltText08@Emulator@@QAAJPAUGPEBltParms@@@Z 1004469c f   gpe:ebtext08.obj
 0001:000437f4       ?EmulatedBltFill08@Emulator@@QAAJPAUGPEBltParms@@@Z 100447f4 f   gpe:ebfill08.obj
 0001:00043888       ?EmulatedBltDstInvert08@Emulator@@QAAJPAUGPEBltParms@@@Z 10044888 f   gpe:ebdinv08.obj
 0001:00043990       ?EmulatedBltPatInvert08@Emulator@@QAAJPAUGPEBltParms@@@Z 10044990 f   gpe:ebpinv08.obj
 0001:00043ab8       ?EmulatedBltPatternInvert08@Emulator@@QAAJPAUGPEBltParms@@@Z 10044ab8 f   gpe:ebp08.obj
 0001:00043d1c       ?EmulatedBltSrcInvert0808@Emulator@@QAAJPAUGPEBltParms@@@Z 10044d1c f   gpe:ebsinv08.obj
 0001:0004411c       ?EmulatedBltSrcAnd0808@Emulator@@QAAJPAUGPEBltParms@@@Z 1004511c f   gpe:ebsand08.obj
 0001:0004451c       ?EmulatedBltSrcPaint1616@Emulator@@QAAJPAUGPEBltParms@@@Z 1004551c f   gpe:EBSPNT16.obj
 0001:0004491c       ?EmulatedBltSrcCopy0116@Emulator@@QAAJPAUGPEBltParms@@@Z 1004591c f   gpe:ebcp0116.obj
 0001:00044d94       ?EmulatedBltSrcCopy0416@Emulator@@QAAJPAUGPEBltParms@@@Z 10045d94 f   gpe:ebcp0416.obj
 0001:00044f24       ?EmulatedBltSrcCopy1616@Emulator@@QAAJPAUGPEBltParms@@@Z 10045f24 f   gpe:EBCOPY16.obj
 0001:000452cc       ?EmulatedBltFill16@Emulator@@QAAJPAUGPEBltParms@@@Z 100462cc f   gpe:ebfill16.obj
 0001:0004538c       ?EmulatedBltSrcInvert1616@Emulator@@QAAJPAUGPEBltParms@@@Z 1004638c f   gpe:EBSINV16.obj
 0001:0004578c       ?EmulatedBltSrcAnd1616@Emulator@@QAAJPAUGPEBltParms@@@Z 1004678c f   gpe:ebsand16.obj
 0001:00045b8c       ?EmulatedBltAlphaText16@Emulator@@QAAJPAUGPEBltParms@@@Z 10046b8c f   gpe:ebalph16.obj
 0001:00045bac       ?EmulatedBltText16@Emulator@@QAAJPAUGPEBltParms@@@Z 10046bac f   gpe:ebtext16.obj
 0001:00045d04       ?Available@SurfaceHeap@@QAAKXZ 10046d04 f   ddgpe:surfheap.obj
 0001:00045d30       ??0SurfaceHeap@@QAA@KKPAV0@0@Z 10046d30 f   ddgpe:surfheap.obj
 0001:00045d60       ??1SurfaceHeap@@QAA@XZ     10046d60 f   ddgpe:surfheap.obj
 0001:00045e10       ?Alloc@SurfaceHeap@@QAAPAV1@K@Z 10046e10 f   ddgpe:surfheap.obj
 0001:00045ecc       ?Free@SurfaceHeap@@QAAXXZ  10046ecc f   ddgpe:surfheap.obj
 0001:00045f34       ?Size@SurfaceHeap@@QAAKXZ  10046f34 f   ddgpe:surfheap.obj
 0001:00045f58       ?FourCCLookup@@YAPBU_FourCCDescription@@K@Z 10046f58 f i ddgpe:ddgpe.obj
 0001:00045fa4       ?GetDDGPE@@YAPAVDDGPE@@XZ  10046fa4 f   ddgpe:ddgpe.obj
 0001:00045fb4       ??0DDGPE@@QAA@XZ           10046fb4 f   ddgpe:ddgpe.obj
 0001:00045fe8       ??1DDGPE@@UAA@XZ           10046fe8 f   ddgpe:ddgpe.obj
 0001:00046008       ?AllocSurface@DDGPE@@UAAJPAPAVDDGPESurf@@HHW4EGPEFormat@@W4EDDGPEPixelFormat@@H@Z 10047008 f   ddgpe:ddgpe.obj
 0001:0004603c       ?AllocSurface@DDGPE@@UAAJPAPAVDDGPESurf@@PAUDDGPEAllocSurfaceData@@@Z 1004703c f   ddgpe:ddgpe.obj
 0001:00046090       ?AllocVideoSurface@DDGPE@@UAAJPAPAVDDGPESurf@@HHW4EGPEFormat@@W4EDDGPEPixelFormat@@PAK@Z 10047090 f   ddgpe:ddgpe.obj
 0001:000460f8       ?AllocVideoSurface@DDGPE@@UAAJPAU_DDRAWI_DDRAWSURFACE_LCL@@HHW4EGPEFormat@@W4EDDGPEPixelFormat@@PAK@Z 100470f8 f   ddgpe:ddgpe.obj
 0001:0004615c       ?AllocVideoSurface@DDGPE@@UAAJPAPAVDDGPESurf@@PAUDDGPEAllocSurfaceData@@PAK@Z 1004715c f   ddgpe:ddgpe.obj
 0001:000461dc       ?AllocVideoSurface@DDGPE@@UAAJPAU_DDRAWI_DDRAWSURFACE_LCL@@PAUDDGPEAllocSurfaceData@@PAK@Z 100471dc f   ddgpe:ddgpe.obj
 0001:00046228       ?AllocBackBuffer@DDGPE@@UAAJPAU_DDRAWI_DDRAWSURFACE_LCL@@@Z 10047228 f   ddgpe:ddgpe.obj
 0001:000462c4       ?WrapSurface@DDGPE@@UAAJPAU_DDRAWI_DDRAWSURFACE_LCL@@HHW4EGPEFormat@@W4EDDGPEPixelFormat@@HH@Z 100472c4 f   ddgpe:ddgpe.obj
 0001:00046334       ?WrapSurface@DDGPE@@UAAJPAPAVDDGPESurf@@HHW4EGPEFormat@@W4EDDGPEPixelFormat@@PAEH@Z 10047334 f   ddgpe:ddgpe.obj
 0001:000463a8       ?WrapSurface@DDGPE@@UAAJPAU_DDRAWI_DDRAWSURFACE_LCL@@HHW4EGPEFormat@@W4EDDGPEPixelFormat@@PAEH@Z 100473a8 f   ddgpe:ddgpe.obj
 0001:00046414       ?WrapSurface@DDGPE@@UAAJPAPAVDDGPESurf@@PAUDDGPEAllocSurfaceData@@@Z 10047414 f   ddgpe:ddgpe.obj
 0001:00046494       ?WrapSurface@DDGPE@@UAAJPAU_DDRAWI_DDRAWSURFACE_LCL@@PAUDDGPEAllocSurfaceData@@@Z 10047494 f   ddgpe:ddgpe.obj
 0001:000464e0       ?BltPrepare@DDGPE@@UAAJPAUDDGPEBltParms@@@Z 100474e0 f   ddgpe:ddgpe.obj
 0001:00046570       ?PerformBlt@DDGPE@@UAAJPAUDDGPEBltParms@@@Z 10047570 f   ddgpe:ddgpe.obj
 0001:000465e4       ?BltExpanded@DDGPE@@UAAJPAVDDGPESurf@@000PAU_CLIPOBJ@@PAU_XLATEOBJ@@PBUtagRECT@@3KKK@Z 100475e4 f   ddgpe:ddgpe.obj
 0001:00046758       ?BltExpanded@DDGPE@@UAAJPAVDDGPESurf@@00PBUtagRECT@@1KKK@Z 10047758 f   ddgpe:ddgpe.obj
 0001:000467b4       ?SetVisibleSurface@DDGPE@@UAAXPAVGPESurf@@KH@Z 100477b4 f   ddgpe:ddgpe.obj
 0001:000467d4       ?SetVisibleSurface@DDGPE@@UAAXPAVGPESurf@@H@Z 100477d4 f   ddgpe:ddgpe.obj
 0001:00046834       ?DetectPixelFormat@DDGPE@@UAAJKPAU_DDPIXELFORMAT@@PAW4EGPEFormat@@PAW4EDDGPEPixelFormat@@@Z 10047834 f   ddgpe:ddgpe.obj
 0001:00046ac0       ?DetectMode@DDGPE@@UAAJPAKKKW4EGPEFormat@@W4EDDGPEPixelFormat@@PAU_DDPIXELFORMAT@@@Z 10047ac0 f   ddgpe:ddgpe.obj
 0001:00046bc4       ?InDisplay@DDGPE@@UAAHXZ   10047bc4 f   ddgpe:ddgpe.obj
 0001:00046bcc       ?GetModeInfoEx@DDGPE@@UAAJPAUGPEModeEx@@H@Z 10047bcc f   ddgpe:ddgpe.obj
 0001:00046bd8       ?SetMode@DDGPE@@UAAJHPAPAUHPALETTE__@@H@Z 10047bd8 f   ddgpe:ddgpe.obj
 0001:00046be4       ?RegisterDDHALAPI@@YAXXZ   10047be4 f   ddgpe:ddgpe.obj
 0001:00046be8       ??_GDDGPE@@UAAPAXI@Z       10047be8 f i ddgpe:ddgpe.obj
 0001:00046be8       ??_EDDGPE@@UAAPAXI@Z       10047be8 f i ddgpe:ddgpe.obj
 0001:00046c1c       ??0GPESurf@@QAA@HHPAXHW4EGPEFormat@@@Z 10047c1c f i ddgpe:ddgpesurf.obj
 0001:00046c74       ??0DDGPESurf@@QAA@HHPAXHW4EGPEFormat@@W4EDDGPEPixelFormat@@@Z 10047c74 f   ddgpe:ddgpesurf.obj
 0001:00046cdc       ??1DDGPESurf@@UAA@XZ       10047cdc f   ddgpe:ddgpesurf.obj
 0001:00046d24       ?Init@DDGPESurf@@UAAXHHPAXHW4EGPEFormat@@W4EDDGPEPixelFormat@@@Z 10047d24 f   ddgpe:ddgpesurf.obj
 0001:00046d84       ?Bpp@DDGPESurf@@UAAKXZ     10047d84 f   ddgpe:ddgpesurf.obj
 0001:00046d98       ?AlignedWidth@DDGPESurf@@UAAKXZ 10047d98 f   ddgpe:ddgpesurf.obj
 0001:00046dd4       ?SetColorKey@DDGPESurf@@UAAXK@Z 10047dd4 f   ddgpe:ddgpesurf.obj
 0001:00046e10       ?ColorKey@DDGPESurf@@UAAKXZ 10047e10 f   ddgpe:ddgpesurf.obj
 0001:00046e2c       ?SetColorKeyMask@DDGPESurf@@UAAXK@Z 10047e2c f   ddgpe:ddgpesurf.obj
 0001:00046e34       ?ColorKeyMask@DDGPESurf@@UAAKXZ 10047e34 f   ddgpe:ddgpesurf.obj
 0001:00046e3c       ?SetColorKeyLow@DDGPESurf@@UAAXK@Z 10047e3c f   ddgpe:ddgpesurf.obj
 0001:00046e44       ?ColorKeyLow@DDGPESurf@@UAAKXZ 10047e44 f   ddgpe:ddgpesurf.obj
 0001:00046e4c       ?SetColorKeyHigh@DDGPESurf@@UAAXK@Z 10047e4c f   ddgpe:ddgpesurf.obj
 0001:00046e54       ?ColorKeyHigh@DDGPESurf@@UAAKXZ 10047e54 f   ddgpe:ddgpesurf.obj
 0001:00046e5c       ?PixelFormat@DDGPESurf@@UAA?AW4EDDGPEPixelFormat@@XZ 10047e5c f   ddgpe:ddgpesurf.obj
 0001:00046e64       ?HasAlpha@DDGPESurf@@UAAHXZ 10047e64 f   ddgpe:ddgpesurf.obj
 0001:00046e88       ?SetDDGPESurf@DDGPESurf@@UAAXPAU_DDRAWI_DDRAWSURFACE_LCL@@@Z 10047e88 f   ddgpe:ddgpesurf.obj
 0001:00046e94       ?GetDDGPESurf@DDGPESurf@@SAPAV1@PAU_DDRAWI_DDRAWSURFACE_LCL@@@Z 10047e94 f   ddgpe:ddgpesurf.obj
 0001:00046ea4       ?SetRotation@DDGPESurf@@QAAXHHH@Z 10047ea4 f   ddgpe:ddgpesurf.obj
 0001:00046ee8       ??_EDDGPESurf@@UAAPAXI@Z   10047ee8 f i ddgpe:ddgpesurf.obj
 0001:00046ee8       ??_GDDGPESurf@@UAAPAXI@Z   10047ee8 f i ddgpe:ddgpesurf.obj
 0001:00046f10       ??0DDGPESurf@@QAA@HHW4EGPEFormat@@@Z 10047f10 f   ddgpe:ddgpesurf.obj
 0001:00046ff0       ?DeleteSurface@DDGPESurf@@SAXPAU_DDRAWI_DDRAWSURFACE_LCL@@@Z 10047ff0 f   ddgpe:ddgpesurf.obj
 0001:0004701c       DDGPECanCreateSurface      1004801c f   ddgpe:ddhsurf.obj
 0001:0004706c       DDGPECreateSurface         1004806c f   ddgpe:ddhsurf.obj
 0001:000474bc       DDGPEUnlock                100484bc f   ddgpe:ddhsurf.obj
 0001:000474cc       DDGPEDestroySurface        100484cc f   ddgpe:ddhsurf.obj
 0001:000475ac       HALInit                    100485ac f   ddgpe:ddhinit.obj
 0001:000475d0       DDGPEGetPixelFormatFromSurfaceDesc 100485d0 f   ddgpe:ddhutil.obj
 0001:00047734       LDI_GetDisplayWidth        10048734 f   s3c6410_ldi_lib:s3c6410_ldi.obj
 0001:00047758       LDI_GetDisplayHeight       10048758 f   s3c6410_ldi_lib:s3c6410_ldi.obj
 0001:0004777c       LDI_getDisplayName         1004877c f   s3c6410_ldi_lib:s3c6410_ldi.obj
 0001:000477a0       LDI_set_LCD_module_type    100487a0 f   s3c6410_ldi_lib:s3c6410_ldi.obj
 0001:000477b8       LDI_getDisplayType         100487b8 f   s3c6410_ldi_lib:s3c6410_ldi.obj
 0001:000477c8       LDI_initialize_LCD_module  100487c8 f   s3c6410_ldi_lib:s3c6410_ldi.obj
 0001:000477d0       LDI_deinitialize_LCD_module 100487d0 f   s3c6410_ldi_lib:s3c6410_ldi.obj
 0001:000477d8       LDI_getDisplayMode         100487d8 f   s3c6410_ldi_lib:s3c6410_ldi.obj
 0001:00047800       LDI_fill_output_device_information 10048800 f   s3c6410_ldi_lib:s3c6410_ldi.obj
 0001:000478cc       LDI_initDisplay            100488cc f   s3c6410_ldi_lib:s3c6410_ldi.obj
 0001:00047948       ??0FIMGSE2D@@QAA@XZ        10048948 f   s3c6410_g2d_lib:FIMGSE2D.obj
 0001:000479e4       ?SetAlphaValue@FIMGSE2D@@QAAXE@Z 100489e4 f   s3c6410_g2d_lib:FIMGSE2D.obj
 0001:000479fc       ?SetAlphaMode@FIMGSE2D@@QAAXW4G2D_ALPHA_BLENDING_MODE@@@Z 100489fc f   s3c6410_g2d_lib:FIMGSE2D.obj
 0001:00047a2c       ?GetRotType@FIMGSE2D@@QAA?AW4__G2D_ROT_TYPE@@H@Z 10048a2c f   s3c6410_g2d_lib:FIMGSE2D.obj
 0001:00047a6c       ?CalculateXYIncrFormat@FIMGSE2D@@AAAKKK@Z 10048a6c f   s3c6410_g2d_lib:FIMGSE2D.obj
 0001:00047b00       ?SetTransparentMode@FIMGSE2D@@QAAX_NK@Z 10048b00 f   s3c6410_g2d_lib:FIMGSE2D.obj
 0001:00047b40       ?SetFgColor@FIMGSE2D@@QAAXK@Z 10048b40 f   s3c6410_g2d_lib:FIMGSE2D.obj
 0001:00047b68       ?SetSrcSurface@FIMGSE2D@@QAAXPAUSURFACE_DESCRIPTOR@@@Z 10048b68 f   s3c6410_g2d_lib:FIMGSE2D.obj
 0001:00047bb4       ?SetDstSurface@FIMGSE2D@@QAAXPAUSURFACE_DESCRIPTOR@@@Z 10048bb4 f   s3c6410_g2d_lib:FIMGSE2D.obj
 0001:00047c00       ?SetRopEtype@FIMGSE2D@@QAAXW4G2D_ROP_TYPE@@@Z 10048c00 f   s3c6410_g2d_lib:FIMGSE2D.obj
 0001:00047ca0       ?WaitForIdle@FIMGSE2D@@QAAXXZ 10048ca0 f   s3c6410_g2d_lib:FIMGSE2D.obj
 0001:00047d4c       ?InitializeInterrupt@FIMGSE2D@@QAAHXZ 10048d4c f   s3c6410_g2d_lib:FIMGSE2D.obj
 0001:00047e10       ?DeinitInterrupt@FIMGSE2D@@QAAXXZ 10048e10 f   s3c6410_g2d_lib:FIMGSE2D.obj
 0001:00047e70       ??_GFIMGSE2D@@UAAPAXI@Z    10048e70 f i s3c6410_g2d_lib:FIMGSE2D.obj
 0001:00047e70       ??_EFIMGSE2D@@UAAPAXI@Z    10048e70 f i s3c6410_g2d_lib:FIMGSE2D.obj
 0001:00047ea4       ?BitBlt@FIMGSE2D@@QAAXPAU_RECTL@@0W4__G2D_ROT_TYPE@@@Z 10048ea4 f   s3c6410_g2d_lib:FIMGSE2D.obj
 0001:0004806c       ?StretchBlt@FIMGSE2D@@QAAXPAU_RECTL@@0W4__G2D_ROT_TYPE@@@Z 1004906c f   s3c6410_g2d_lib:FIMGSE2D.obj
 0001:00048378       ?FlipBlt@FIMGSE2D@@QAAHPAU_RECTL@@0W4__G2D_ROT_TYPE@@@Z 10049378 f   s3c6410_g2d_lib:FIMGSE2D.obj
 0001:000484b8       ?PutPixel@FIMGSE2D@@QAAXKKK@Z 100494b8 f   s3c6410_g2d_lib:FIMGSE2D.obj
 0001:00048518       ?PutLine@FIMGSE2D@@QAAXKKKKK_N@Z 10049518 f   s3c6410_g2d_lib:FIMGSE2D.obj
 0001:00048768       ??0RegCtrlG2D@@QAA@XZ      10049768 f   s3c6410_g2d_lib:regctrl_g2d.obj
 0001:000487d8       ??1RegCtrlG2D@@UAA@XZ      100497d8 f   s3c6410_g2d_lib:regctrl_g2d.obj
 0001:00048818       ?IntDisable@RegCtrlG2D@@QAAXXZ 10049818 f   s3c6410_g2d_lib:regctrl_g2d.obj
 0001:0004882c       ?IntPendingClear@RegCtrlG2D@@QAAXXZ 1004982c f   s3c6410_g2d_lib:regctrl_g2d.obj
 0001:0004884c       ?IsIdle@RegCtrlG2D@@QAA_NXZ 1004984c f   s3c6410_g2d_lib:regctrl_g2d.obj
 0001:0004886c       ?CheckFifo@RegCtrlG2D@@QAAHXZ 1004986c f   s3c6410_g2d_lib:regctrl_g2d.obj
 0001:00048880       ??_ERegCtrlG2D@@UAAPAXI@Z  10049880 f i s3c6410_g2d_lib:regctrl_g2d.obj
 0001:00048880       ??_GRegCtrlG2D@@UAAPAXI@Z  10049880 f i s3c6410_g2d_lib:regctrl_g2d.obj
 0001:000488a8       ?IntEnable@RegCtrlG2D@@QAAXXZ 100498a8 f   s3c6410_g2d_lib:regctrl_g2d.obj
 0001:000488d4       ?RequestEmptyFifo@RegCtrlG2D@@IAAHK@Z 100498d4 f   s3c6410_g2d_lib:regctrl_g2d.obj
 0001:00048934       ?SetRotationMode@RegCtrlG2D@@IAAXW4__G2D_ROT_TYPE@@@Z 10049934 f   s3c6410_g2d_lib:regctrl_g2d.obj
 0001:00048964       ?SetCoordinateSrcBlock@RegCtrlG2D@@IAAXKKKK@Z 10049964 f   s3c6410_g2d_lib:regctrl_g2d.obj
 0001:000489ac       ?SetCoordinateDstBlock@RegCtrlG2D@@IAAXKKKK@Z 100499ac f   s3c6410_g2d_lib:regctrl_g2d.obj
 0001:000489f4       ?SetRopValue@RegCtrlG2D@@IAAXK@Z 100499f4 f   s3c6410_g2d_lib:regctrl_g2d.obj
 0001:00048a24       ?Set3rdOperand@RegCtrlG2D@@QAAXW4G2D_OPERAND3@@@Z 10049a24 f   s3c6410_g2d_lib:regctrl_g2d.obj
 0001:00048a88       ?SetClipWindow@RegCtrlG2D@@QAAXPAU_RECTL@@@Z 10049a88 f   s3c6410_g2d_lib:regctrl_g2d.obj
 0001:00048ad4       ?SetRotationOrg@RegCtrlG2D@@IAAXGG@Z 10049ad4 f   s3c6410_g2d_lib:regctrl_g2d.obj
 0001:00048b20       NKDbgPrintfW               10049b20 f   coredll:COREDLL.dll
 0001:00048b30       KernelLibIoControl         10049b30 f   coredll:COREDLL.dll
 0001:00048b40       RegCloseKey                10049b40 f   coredll:COREDLL.dll
 0001:00048b50       RegQueryValueExW           10049b50 f   coredll:COREDLL.dll
 0001:00048b60       RegOpenKeyExW              10049b60 f   coredll:COREDLL.dll
 0001:00048b70       GetLastError               10049b70 f   coredll:COREDLL.dll
 0001:00048b80       VirtualCopy                10049b80 f   coredll:COREDLL.dll
 0001:00048b90       VirtualAlloc               10049b90 f   coredll:COREDLL.dll
 0001:00048ba0       DeviceIoControl            10049ba0 f   coredll:COREDLL.dll
 0001:00048bb0       CreateFileW                10049bb0 f   coredll:COREDLL.dll
 0001:00048bc0       LeaveCriticalSection       10049bc0 f   coredll:COREDLL.dll
 0001:00048bd0       DevicePowerNotify          10049bd0 f   coredll:COREDLL.dll
 0001:00048be0       EnterCriticalSection       10049be0 f   coredll:COREDLL.dll
 0001:00048bf0       AdvertiseInterface         10049bf0 f   coredll:COREDLL.dll
 0001:00048c00       GetModuleFileNameW         10049c00 f   coredll:COREDLL.dll
 0001:00048c10       CeCloseCallerBuffer        10049c10 f   coredll:COREDLL.dll
 0001:00048c20       SetLastError               10049c20 f   coredll:COREDLL.dll
 0001:00048c30       CeOpenCallerBuffer         10049c30 f   coredll:COREDLL.dll
 0001:00048c40       CloseHandle                10049c40 f   coredll:COREDLL.dll
 0001:00048c50       VirtualFree                10049c50 f   coredll:COREDLL.dll
 0001:00048c60       KernelIoControl            10049c60 f   coredll:COREDLL.dll
 0001:00048c70       InitializeCriticalSection  10049c70 f   coredll:COREDLL.dll
 0001:00048c80       CopyRect                   10049c80 f   coredll:COREDLL.dll
 0001:00048c90       CacheRangeFlush            10049c90 f   coredll:COREDLL.dll
 0001:00048ca0       LockPages                  10049ca0 f   coredll:COREDLL.dll
 0001:00048cb0       __GetUserKData             10049cb0 f   coredll:COREDLL.dll
 0001:00048cc0       FreePhysMem                10049cc0 f   coredll:COREDLL.dll
 0001:00048cd0       VirtualFreeEx              10049cd0 f   coredll:COREDLL.dll
 0001:00048ce0       GetDirectCallerProcessId   10049ce0 f   coredll:COREDLL.dll
 0001:00048cf0       VirtualAllocCopyEx         10049cf0 f   coredll:COREDLL.dll
 0001:00048d00       AllocPhysMem               10049d00 f   coredll:COREDLL.dll
 0001:00048d10       DisableThreadLibraryCalls  10049d10 f   coredll:COREDLL.dll
 0001:00048d20       LocalAlloc                 10049d20 f   coredll:COREDLL.dll
 0001:00048d30       LocalFree                  10049d30 f   coredll:COREDLL.dll
 0001:00048d40       LocalReAlloc               10049d40 f   coredll:COREDLL.dll
 0001:00048d50       RegSetValueExW             10049d50 f   coredll:COREDLL.dll
 0001:00048d60       RegCreateKeyExW            10049d60 f   coredll:COREDLL.dll
 0001:00048d70       CeSetExtendedPdata         10049d70 f   coredll:COREDLL.dll
 0001:00048d80       RemoteLocalFree            10049d80 f   coredll:COREDLL.dll
 0001:00048d90       RemoteLocalAlloc           10049d90 f   coredll:COREDLL.dll
 0001:00048da0       MulDiv                     10049da0 f   coredll:COREDLL.dll
 0001:00048db0       InterruptDone              10049db0 f   coredll:COREDLL.dll
 0001:00048dc0       WaitForSingleObject        10049dc0 f   coredll:COREDLL.dll
 0001:00048dd0       InterruptInitialize        10049dd0 f   coredll:COREDLL.dll
 0001:00048de0       CreateEventW               10049de0 f   coredll:COREDLL.dll
 0001:00048df0       InterruptDisable           10049df0 f   coredll:COREDLL.dll
 0001:00048e00       MmMapIoSpace               10049e00 f   ceddk:CEDDK.dll
 0001:00048e10       MmUnmapIoSpace             10049e10 f   ceddk:CEDDK.dll
 0001:00048f24       _DllMainCRTStartup         10049f24 f   corelib0:pegdmain.obj
 0001:00048f54       __GSHandlerCheckCommon     10049f54 f   corelib0:gshandler.obj
 0001:00048f90       __GSHandlerCheck           10049f90 f   corelib0:gshandler.obj
 0001:00048fb4       __security_init_cookie     10049fb4 f   corelib0:seccinit.obj
 0001:00049010       __security_check_cookie    1004a010 f   corelib0:armsecgs.obj
 0001:00049024       __gsfailure                1004a024 f   corelib0:armsecgs.obj
 0001:00049164       _cexit                     1004a164 f   corelib0:cexit.obj
 0001:00049180       _initterm                  1004a180 f   corelib0:crt0dat.obj
 0001:000491b4       _cinit                     1004a1b4 f   corelib0:crt0dat.obj
 0001:000491e8       ??2@YAPAXI@Z               1004a1e8 f   corelib1:COREDLL.dll
 0001:000491f8       ??3@YAXPAX@Z               1004a1f8 f   corelib1:COREDLL.dll
 0001:00049208       swscanf                    1004a208 f   corelib1:COREDLL.dll
 0001:00049218       __C_specific_handler       1004a218 f   corelib1:COREDLL.dll
 0001:00049228       memcpy                     1004a228 f   corelib1:COREDLL.dll
 0001:00049238       memset                     1004a238 f   corelib1:COREDLL.dll
 0001:00049248       __rt_udiv                  1004a248 f   corelib1:COREDLL.dll
 0001:00049258       __rt_sdiv                  1004a258 f   corelib1:COREDLL.dll
 0001:00049268       memcmp                     1004a268 f   corelib1:COREDLL.dll
 0001:00049278       _purecall                  1004a278 f   corelib1:COREDLL.dll
 0001:00049288       abs                        1004a288 f   corelib1:COREDLL.dll
 0001:00049298       malloc                     1004a298 f   corelib1:COREDLL.dll
 0001:000492a8       free                       1004a2a8 f   corelib1:COREDLL.dll
 0001:000492b8       memmove                    1004a2b8 f   corelib1:COREDLL.dll
 0001:000492c8       _XcptFilter                1004a2c8 f   corelib1:COREDLL.dll
 0001:000492d8       __security_gen_cookie2     1004a2d8 f   corelib1:COREDLL.dll
 0001:000492e8       __report_gsfailure         1004a2e8 f   corelib1:COREDLL.dll
 0001:000492f8       DeleteCriticalSection      1004a2f8 f   coredll:COREDLL.dll
 0001:00049308       InterlockedExchange        1004a308 f   coredll:COREDLL.dll
 0001:00049318       TerminateProcess           1004a318 f   coredll:COREDLL.dll
 0001:000494c0       __IMPORT_DESCRIPTOR_COREDLL 1004a4c0     coredll:COREDLL.dll
 0001:000494d4       __IMPORT_DESCRIPTOR_CEDDK  1004a4d4     ceddk:CEDDK.dll
 0001:000494e8       __NULL_IMPORT_DESCRIPTOR   1004a4e8     coredll:COREDLL.dll
 0002:00000000       memfill                    1004b000     2d_accel_lib:memfill.obj
 0002:00000110       memor                      1004b110     2d_accel_lib:memor.obj
 0002:00000728       memand                     1004b728     2d_accel_lib:memand.obj
 0002:00000d44       memnotsrcorf               1004bd44     2d_accel_lib:memnotsrcorf.obj
 0002:000010f4       memnotsrcorb               1004c0f4     2d_accel_lib:memnotsrcorb.obj
 0002:0000149c       memeorf                    1004c49c     2d_accel_lib:memeorf.obj
 0002:000017b0       memeorb                    1004c7b0     2d_accel_lib:memeorb.obj
 0002:00001ac0       memnot                     1004cac0     2d_accel_lib:memnot.obj
 0002:00001bf4       memeorfill                 1004cbf4     2d_accel_lib:memeorfill.obj
 0002:00001d60       memnotdstandf              1004cd60     2d_accel_lib:memnotdstandf.obj
 0002:00002110       memnotdstandb              1004d110     2d_accel_lib:memnotdstandb.obj
 0002:000024bc       memfillwr                  1004d4bc     2d_accel_lib:memfillwr.obj
 0002:00002604       memnotorf                  1004d604     2d_accel_lib:memnotorf.obj
 0002:000029b4       memnotorb                  1004d9b4     2d_accel_lib:memnotorb.obj
 0002:00002d60       memnotsrcf                 1004dd60     2d_accel_lib:memnotsrcf.obj
 0002:00003024       memnotsrcb                 1004e024     2d_accel_lib:memnotsrcb.obj
 0002:000032e4       memsrccopy                 1004e2e4     2d_accel_lib:memsrccopy.obj
 0002:00003874       memsrccopy480              1004e874     2d_accel_lib:memsrccopy480.obj
 0002:00003980       memsrccopy240              1004e980     2d_accel_lib:memsrccopy240.obj
 0003:00000000       __imp_MmMapIoSpace         1004f000     ceddk:CEDDK.dll
 0003:00000004       __imp_MmUnmapIoSpace       1004f004     ceddk:CEDDK.dll
 0003:00000008       \177CEDDK_NULL_THUNK_DATA  1004f008     ceddk:CEDDK.dll
 0003:0000000c       __imp_RegQueryValueExW     1004f00c     coredll:COREDLL.dll
 0003:00000010       __imp_RegOpenKeyExW        1004f010     coredll:COREDLL.dll
 0003:00000014       __imp_GetLastError         1004f014     coredll:COREDLL.dll
 0003:00000018       __imp_VirtualCopy          1004f018     coredll:COREDLL.dll
 0003:0000001c       __imp_VirtualAlloc         1004f01c     coredll:COREDLL.dll
 0003:00000020       __imp_DeviceIoControl      1004f020     coredll:COREDLL.dll
 0003:00000024       __imp_CreateFileW          1004f024     coredll:COREDLL.dll
 0003:00000028       __imp_LeaveCriticalSection 1004f028     coredll:COREDLL.dll
 0003:0000002c       __imp_DevicePowerNotify    1004f02c     coredll:COREDLL.dll
 0003:00000030       __imp_EnterCriticalSection 1004f030     coredll:COREDLL.dll
 0003:00000034       __imp_AdvertiseInterface   1004f034     coredll:COREDLL.dll
 0003:00000038       __imp_GetModuleFileNameW   1004f038     coredll:COREDLL.dll
 0003:0000003c       __imp_CeCloseCallerBuffer  1004f03c     coredll:COREDLL.dll
 0003:00000040       __imp_SetLastError         1004f040     coredll:COREDLL.dll
 0003:00000044       __imp_CeOpenCallerBuffer   1004f044     coredll:COREDLL.dll
 0003:00000048       __imp_CloseHandle          1004f048     coredll:COREDLL.dll
 0003:0000004c       __imp_VirtualFree          1004f04c     coredll:COREDLL.dll
 0003:00000050       __imp_KernelIoControl      1004f050     coredll:COREDLL.dll
 0003:00000054       __imp_InitializeCriticalSection 1004f054     coredll:COREDLL.dll
 0003:00000058       __imp_CopyRect             1004f058     coredll:COREDLL.dll
 0003:0000005c       __imp_CacheRangeFlush      1004f05c     coredll:COREDLL.dll
 0003:00000060       __imp_RegCloseKey          1004f060     coredll:COREDLL.dll
 0003:00000064       __imp___GetUserKData       1004f064     coredll:COREDLL.dll
 0003:00000068       __imp_FreePhysMem          1004f068     coredll:COREDLL.dll
 0003:0000006c       __imp_VirtualFreeEx        1004f06c     coredll:COREDLL.dll
 0003:00000070       __imp_GetDirectCallerProcessId 1004f070     coredll:COREDLL.dll
 0003:00000074       __imp_VirtualAllocCopyEx   1004f074     coredll:COREDLL.dll
 0003:00000078       __imp_AllocPhysMem         1004f078     coredll:COREDLL.dll
 0003:0000007c       __imp_DisableThreadLibraryCalls 1004f07c     coredll:COREDLL.dll
 0003:00000080       __imp_LocalAlloc           1004f080     coredll:COREDLL.dll
 0003:00000084       __imp_LocalFree            1004f084     coredll:COREDLL.dll
 0003:00000088       __imp_LocalReAlloc         1004f088     coredll:COREDLL.dll
 0003:0000008c       __imp_RegSetValueExW       1004f08c     coredll:COREDLL.dll
 0003:00000090       __imp_RegCreateKeyExW      1004f090     coredll:COREDLL.dll
 0003:00000094       __imp_CeSetExtendedPdata   1004f094     coredll:COREDLL.dll
 0003:00000098       __imp_RemoteLocalFree      1004f098     coredll:COREDLL.dll
 0003:0000009c       __imp_RemoteLocalAlloc     1004f09c     coredll:COREDLL.dll
 0003:000000a0       __imp_MulDiv               1004f0a0     coredll:COREDLL.dll
 0003:000000a4       __imp_InterruptDone        1004f0a4     coredll:COREDLL.dll
 0003:000000a8       __imp_WaitForSingleObject  1004f0a8     coredll:COREDLL.dll
 0003:000000ac       __imp_InterruptInitialize  1004f0ac     coredll:COREDLL.dll
 0003:000000b0       __imp_CreateEventW         1004f0b0     coredll:COREDLL.dll
 0003:000000b4       __imp_InterruptDisable     1004f0b4     coredll:COREDLL.dll
 0003:000000b8       __imp_KernelLibIoControl   1004f0b8     coredll:COREDLL.dll
 0003:000000bc       __imp_LockPages            1004f0bc     coredll:COREDLL.dll
 0003:000000c0       __imp_NKDbgPrintfW         1004f0c0     coredll:COREDLL.dll
 0003:000000c4       __imp_??2@YAPAXI@Z         1004f0c4     corelib1:COREDLL.dll
 0003:000000c8       __imp_??3@YAXPAX@Z         1004f0c8     corelib1:COREDLL.dll
 0003:000000cc       __imp_swscanf              1004f0cc     corelib1:COREDLL.dll
 0003:000000d0       __imp___C_specific_handler 1004f0d0     corelib1:COREDLL.dll
 0003:000000d4       __imp_memcpy               1004f0d4     corelib1:COREDLL.dll
 0003:000000d8       __imp_memset               1004f0d8     corelib1:COREDLL.dll
 0003:000000dc       __imp___rt_udiv            1004f0dc     corelib1:COREDLL.dll
 0003:000000e0       __imp___rt_sdiv            1004f0e0     corelib1:COREDLL.dll
 0003:000000e4       __imp_memcmp               1004f0e4     corelib1:COREDLL.dll
 0003:000000e8       __imp__purecall            1004f0e8     corelib1:COREDLL.dll
 0003:000000ec       __imp_abs                  1004f0ec     corelib1:COREDLL.dll
 0003:000000f0       __imp_malloc               1004f0f0     corelib1:COREDLL.dll
 0003:000000f4       __imp_free                 1004f0f4     corelib1:COREDLL.dll
 0003:000000f8       __imp___divs               1004f0f8     corelib1:COREDLL.dll
 0003:000000fc       __imp___itos               1004f0fc     corelib1:COREDLL.dll
 0003:00000100       __imp___adds               1004f100     corelib1:COREDLL.dll
 0003:00000104       __imp___stod               1004f104     corelib1:COREDLL.dll
 0003:00000108       __imp_pow                  1004f108     corelib1:COREDLL.dll
 0003:0000010c       __imp___dtos               1004f10c     corelib1:COREDLL.dll
 0003:00000110       __imp___muls               1004f110     corelib1:COREDLL.dll
 0003:00000114       __imp___subs               1004f114     corelib1:COREDLL.dll
 0003:00000118       __imp___stou               1004f118     corelib1:COREDLL.dll
 0003:0000011c       __imp___utos               1004f11c     corelib1:COREDLL.dll
 0003:00000120       __imp___rt_sdiv64by64      1004f120     corelib1:COREDLL.dll
 0003:00000124       __imp_memmove              1004f124     corelib1:COREDLL.dll
 0003:00000128       __imp__XcptFilter          1004f128     corelib1:COREDLL.dll
 0003:0000012c       __imp___security_gen_cookie2 1004f12c     corelib1:COREDLL.dll
 0003:00000130       __imp___report_gsfailure   1004f130     corelib1:COREDLL.dll
 0003:00000134       __imp_DeleteCriticalSection 1004f134     coredll:COREDLL.dll
 0003:00000138       __imp_InterlockedExchange  1004f138     coredll:COREDLL.dll
 0003:0000013c       __imp_TerminateProcess     1004f13c     coredll:COREDLL.dll
 0003:00000140       \177COREDLL_NULL_THUNK_DATA 1004f140     coredll:COREDLL.dll
 0003:00000148       ?_rgbIdentity@@3PAUtagPALETTEENTRY@@A 1004f148     display_main.obj
 0003:00000548       dpCurSettings              1004f548     display_main.obj
 0003:0000098c       ?gBitMasks16@@3PAKA        1004f98c     dispmode.obj
 0003:00000998       ?gBitMasks32@@3PAKA        1004f998     dispmode.obj
 0003:000009a8       ?cbDDCallbacks@@3U_DDHAL_DDCALLBACKS@@A 1004f9a8     halcaps.obj
 0003:000009c4       ?cbDDSurfaceCallbacks@@3U_DDHAL_DDSURFACECALLBACKS@@A 1004f9c4     halcaps.obj
 0003:000009f4       ?MiscellaneousCallbacks@@3U_DDHAL_DDMISCELLANEOUSCALLBACKS@@A 1004f9f4     halcaps.obj
 0003:00000a04       ?ColorControlCallbacks@@3U_DDHAL_DDCOLORCONTROLCALLBACKS@@A 1004fa04     halcaps.obj
 0003:00000a18       ?SupportedFourCCs@@3PAU_FourCCDescription@@A 1004fa18     halcaps.obj
 0003:00000ac4       ?gaMix@@3PAEA              1004fac4     2d_accel_lib:ddi_if.obj
 0003:00000f10       ?pfnDrvAlphaBlend@@3P6AHPAU_SURFOBJ@@0PAU_CLIPOBJ@@PAU_XLATEOBJ@@PAU_RECTL@@3PAUtagBLENDOBJ@@@ZA 1004ff10     gpe:drvalphablend.obj
 0003:00000f18       ?pfnDrvGradientFill@@3P6AHPAU_SURFOBJ@@PAU_CLIPOBJ@@PAU_XLATEOBJ@@PAU_TRIVERTEX@@KPAXKPAU_RECTL@@PAU_POINTL@@K@ZA 1004ff18     gpe:rdrvgradfill.obj
 0003:00000f20       ?gulDither32@@3PAKA        1004ff20     gpe:rdrvgradfill.obj
 0003:00000f60       ?gDitherMatrix16x16Halftone@@3PAEA 1004ff60     gpe:rdrvgradfill.obj
 0003:00001060       ?gDitherMatrix16x16Default@@3PAEA 10050060     gpe:rdrvgradfill.obj
 0003:00001160       ?vTranslateIdentity@@3PAEA 10050160     gpe:rdrvgradfill.obj
 0003:00001260       ?DefaultSaturationTable@@3PAEA 10050260     gpe:rdrvgradfill.obj
 0003:000013e0       ?Saturation16_5@@3PAEA     100503e0     gpe:rdrvgradfill.obj
 0003:00001420       ?Saturation16_6@@3PAEA     10050420     gpe:rdrvgradfill.obj
 0003:000014a0       ?gulGamma@@3KA             100504a0     gpe:rctblt.obj
 0003:000014a4       ?szGamma@@3PAGA            100504a4     gpe:rctblt.obj
 0003:000014c8       ?szGammaValue@@3PAGA       100504c8     gpe:rctblt.obj
 0003:000014e0       ?alAlpha@@3PAJA            100504e0     gpe:rctblt.obj
 0003:00001500       ?ajGammaCT_10@@3PAEA       10050500     gpe:rctblt.obj
 0003:00001600       ?ajGammaCT_11@@3PAEA       10050600     gpe:rctblt.obj
 0003:00001700       ?ajGammaInvCT_11@@3PAEA    10050700     gpe:rctblt.obj
 0003:00001800       ?ajGammaCT_12@@3PAEA       10050800     gpe:rctblt.obj
 0003:00001900       ?ajGammaInvCT_12@@3PAEA    10050900     gpe:rctblt.obj
 0003:00001a00       ?ajGammaCT_13@@3PAEA       10050a00     gpe:rctblt.obj
 0003:00001b00       ?ajGammaInvCT_13@@3PAEA    10050b00     gpe:rctblt.obj
 0003:00001c00       ?ajGammaCT_14@@3PAEA       10050c00     gpe:rctblt.obj
 0003:00001d00       ?ajGammaInvCT_14@@3PAEA    10050d00     gpe:rctblt.obj
 0003:00001e00       ?ajGammaCT_15@@3PAEA       10050e00     gpe:rctblt.obj
 0003:00001f00       ?ajGammaInvCT_15@@3PAEA    10050f00     gpe:rctblt.obj
 0003:00002000       ?ajGammaCT_16@@3PAEA       10051000     gpe:rctblt.obj
 0003:00002100       ?ajGammaInvCT_16@@3PAEA    10051100     gpe:rctblt.obj
 0003:00002200       ?ajGammaCT_17@@3PAEA       10051200     gpe:rctblt.obj
 0003:00002300       ?ajGammaInvCT_17@@3PAEA    10051300     gpe:rctblt.obj
 0003:00002400       ?ajGammaCT_18@@3PAEA       10051400     gpe:rctblt.obj
 0003:00002500       ?ajGammaInvCT_18@@3PAEA    10051500     gpe:rctblt.obj
 0003:00002600       ?ajGammaCT_19@@3PAEA       10051600     gpe:rctblt.obj
 0003:00002700       ?ajGammaInvCT_19@@3PAEA    10051700     gpe:rctblt.obj
 0003:00002800       ?ajGammaCT_20@@3PAEA       10051800     gpe:rctblt.obj
 0003:00002900       ?ajGammaInvCT_20@@3PAEA    10051900     gpe:rctblt.obj
 0003:00002a00       ?ajGammaCT_21@@3PAEA       10051a00     gpe:rctblt.obj
 0003:00002b00       ?ajGammaInvCT_21@@3PAEA    10051b00     gpe:rctblt.obj
 0003:00002c00       ?ajGammaCT_22@@3PAEA       10051c00     gpe:rctblt.obj
 0003:00002d00       ?ajGammaInvCT_22@@3PAEA    10051d00     gpe:rctblt.obj
 0003:00002e00       ?gaOutTable@@3PAU_F_RGB@@A 10051e00     gpe:rctblt.obj
 0003:00002fd0       ?g_pdwAnyBltPCode@@3PAKA   10051fd0     gpe:genblt.obj
 0003:0000c658       __security_cookie          1005b658     corelib0:seccinit.obj
 0003:0000c65c       __security_cookie_complement 1005b65c     corelib0:seccinit.obj
 0003:0000c660       ?gGPE@@3PAVDDGPE@@A        1005b660     display_main.obj
 0003:0000c664       ?oldSrcSurf@@3PAVGPESurf@@A 1005b664     blt.obj
 0003:0000c668       ?gpScratchSurf@@3PAVDDGPESurf@@A 1005b668     blt.obj
 0003:0000c670       ?g_pGPE@@3PAVDDGPE@@A      1005b670     halcaps.obj
 0003:0000c674       ?g_pDDrawPrimarySurface@@3PAVDDGPESurf@@A 1005b674     halcaps.obj
 0003:0000c678       ?g_pVideoMemory@@3PAEA     1005b678     halcaps.obj
 0003:0000c67c       ?g_nVideoMemorySize@@3KA   1005b67c     halcaps.obj
 0003:0000c680       __@@_PchSym_@00@UdrmxvGAAUkozgulinUgvmybgvmGEBAPnoxUhixUwirevihUwrhkozbUwrhkozbPwieUlyqUzineErUivgzroUkivxlnkOlyq@s3c6410_disp 1005b680     precomp.obj
 0003:0000c684       PATHOBJ_vGetBounds         1005b684     2d_accel_lib:ddi_if.obj
 0003:0000c688       PATHOBJ_bEnum              1005b688     2d_accel_lib:ddi_if.obj
 0003:0000c68c       PALOBJ_cGetColors          1005b68c     2d_accel_lib:ddi_if.obj
 0003:0000c690       CLIPOBJ_bEnum              1005b690     2d_accel_lib:ddi_if.obj
 0003:0000c694       EngGetPaletteFromPool      1005b694     2d_accel_lib:ddi_if.obj
 0003:0000c698       EngAddPaletteToPool        1005b698     2d_accel_lib:ddi_if.obj
 0003:0000c69c       BRUSHOBJ_pvAllocRbrush     1005b69c     2d_accel_lib:ddi_if.obj
 0003:0000c6a0       BRUSHOBJ_pvGetRbrush       1005b6a0     2d_accel_lib:ddi_if.obj
 0003:0000c6a4       CLIPOBJ_cEnumStart         1005b6a4     2d_accel_lib:ddi_if.obj
 0003:0000c6a8       XLATEOBJ_cGetPalette       1005b6a8     2d_accel_lib:ddi_if.obj
 0003:0000c6ac       PATHOBJ_vEnumStart         1005b6ac     2d_accel_lib:ddi_if.obj
 0003:0000c6b0       EngCreatePalette           1005b6b0     2d_accel_lib:ddi_if.obj
 0003:0000c6b4       EngCreateDeviceSurface     1005b6b4     2d_accel_lib:ddi_if.obj
 0003:0000c6b8       EngDeleteSurface           1005b6b8     2d_accel_lib:ddi_if.obj
 0003:0000c6bc       EngCreateDeviceBitmap      1005b6bc     2d_accel_lib:ddi_if.obj
 0003:0000c6c0       EngReleasePooledPalette    1005b6c0     2d_accel_lib:ddi_if.obj
 0003:0000c6c4       pfnGetGPEPerCard           1005b6c4     2d_accel_lib:ddi_if.obj
 0003:0000c6c8       g_hmodDisplayDll           1005b6c8     2d_accel_lib:ddi_if.obj
 0003:0000c6cc       ?g_pxlo@@3PAU_XLATEOBJ@@A  1005b6cc     2d_accel_lib:ddi_if.obj
 0003:0000c6e0       ?gMaskedConverter@@3PAVMaskColorConverter@@A 1005b6e0     2d_accel_lib:swconvrt.obj
 0003:0000c870       ?gLookupConverter@@3PAVLookupColorConverter@@A 1005b870     2d_accel_lib:swconvrt.obj
 0003:0000d8c0       ?gMonoConverter@@3PAVMonoColorConverter@@A 1005c8c0     2d_accel_lib:swconvrt.obj
 0003:0000d8e8       ?gMaskedLRU@@3VLRU@@A      1005c8e8     2d_accel_lib:swconvrt.obj
 0003:0000d8fc       ?gLookupLRU@@3VLRU@@A      1005c8fc     2d_accel_lib:swconvrt.obj
 0003:0000d910       ?gMonoLRU@@3VLRU@@A        1005c910     2d_accel_lib:swconvrt.obj
 0003:0000d924       ?gGroupLRU@@3VLRU@@A       1005c924     2d_accel_lib:swconvrt.obj
 0003:0000d938       ?gGroupConverter@@3PAVGroupColorConverter@@A 1005c938     2d_accel_lib:swconvrt.obj
 0003:0000e7a8       ?pfnGetAAMaskBits@@3P6AXPAK00@ZA 1005d7a8     gpe:aablt.obj
 0003:0000e7f4       ?gbHateMmx@@3HA            1005d7f4     gpe:rctblt.obj
 0003:0000ec68       ?g_BltFnPData@@3U_xpdata@@A 1005dc68     gpe:genblt.obj
 0003:0000ecf0       ?g_CpuFuncs@@3UGenBltCpuFuncs@@A 1005dcf0     gpe:genblt.obj
 0003:0000ed0c       ?g_pPCodeRegisters@@3PAUPCodeRegisters_t@@A 1005dd0c     gpe:genblt.obj
 0003:0000ed10       ?g_BltClock@@3KA           1005dd10     gpe:genblt.obj
 0003:0000ed14       ?g_fUseFastBlt@@3HA        1005dd14     gpe:FastBlt.obj
 0003:00010540       _exitflag                  1005f540     corelib0:cexit.obj
 0003:00010544       __onexitend                1005f544     <common>
 0003:00010548       __onexitbegin              1005f548     <common>
 0003:0001054c       g_pcsExit                  1005f54c     <common>
 0003:00010550       _pRawDllMain               1005f550     <common>

 entry point at        0001:00048f24

 Static symbols

 0001:00038a88       ?GetAAMaskInfo@@YAXH@Z     10039a88 f   gpe:aablt.obj
 0001:00038be8       ?InitGamma@@YAXXZ          10039be8 f   gpe:aablt.obj
 0001:000395e0       ?MDiv64@@YA_J_J00@Z        1003a5e0 f   gpe:rdrvgradfill.obj
 0001:0003b380       ?RectFillBlt@@YAHPAU_SURFOBJ@@PAU_DRVGRADIENTRECTDATA@@P6AXPAVGPESurf@@1@Z@Z 1003c380 f   gpe:rdrvgradfill.obj
 0001:0003b54c       ?GFGetShift@@YAXKPAK0@Z    1003c54c f   gpe:rdrvgradfill.obj
 0001:0003bdf4       ?GetNearestIndex@@YAKK@Z   1003cdf4 f   gpe:rctblt.obj
 0001:0003c7e8       ?vGetBlendInfo@@YAXKKPAVGPESurf@@PAU_BLENDINFO@@@Z 1003d7e8 f   gpe:rctblt.obj
 0001:00047508       ?FillHelCaps@@YAXPAU_DDCAPS@@@Z 10048508 f   ddgpe:ddhinit.obj
 0001:00048e28       _DllMainCRTStartupHelper   10049e28 f   corelib0:pegdmain.obj
 0001:00049068       doexit                     1004a068 f   corelib0:cexit.obj
 0001:00049328       ??__EgMaskedLRU@@YAXXZ     1004a328 f   2d_accel_lib:swconvrt.obj
 0001:00049340       ??__EgGroupLRU@@YAXXZ      1004a340 f   2d_accel_lib:swconvrt.obj
 0001:00049358       ??__EgMonoLRU@@YAXXZ       1004a358 f   2d_accel_lib:swconvrt.obj
 0001:00049370       ??__EgLookupLRU@@YAXXZ     1004a370 f   2d_accel_lib:swconvrt.obj
 0001:00049388       ??__EgGroupConverter@@YAXXZ 1004a388 f   2d_accel_lib:swconvrt.obj
