 SsapMp4Parser

 Timestamp is 5125cd5c (Thu Feb 21 15:31:40 2013)

 Preferred load address is 10000000

 Start         Length     Name                   Class
 0001:00000000 00000004H .CRT$XCA                CODE
 0001:00000004 00000004H .CRT$XCZ                CODE
 0001:00000008 00000004H .CRT$XIA                CODE
 0001:0000000c 00000004H .CRT$XIZ                CODE
 0001:00000010 00000004H .CRT$XPA                CODE
 0001:00000014 00000004H .CRT$XPZ                CODE
 0001:00000018 00000004H .CRT$XTA                CODE
 0001:0000001c 00000004H .CRT$XTZ                CODE
 0001:00000020 0000646cH .rdata                  CODE
 0001:0000648c 0000002aH .rdata$debug            CODE
 0001:000064b8 0001f830H .text                   CODE
 0001:00025ce8 000001d4H .xdata                  CODE
 0001:00025ebc 00000054H .xdata$x                CODE
 0001:00025f10 0000003cH .idata$2                CODE
 0001:00025f4c 00000014H .idata$3                CODE
 0001:00025f60 000001bcH .idata$4                CODE
 0001:0002611c 000000aaH .idata$6                CODE
 0001:000261d0 000000a9H .edata                  CODE
 0002:00000000 000001bcH .idata$5                DATA
 0002:000001c0 000003d8H .data                   DATA
 0002:00000598 00000154H .bss                    DATA
 0003:00000000 00001b60H .pdata                  DATA
 0004:00000000 00000058H .rsrc$01                DATA
 0004:00000060 000003b8H .rsrc$02                DATA

  Address         Publics by Value              Rva+Base       Lib:Object

 0000:00000000       ___safe_se_handler_table   00000000     <absolute>
 0000:00000000       ___safe_se_handler_count   00000000     <absolute>
 0001:00000000       __xc_a                     10001000     corelib0:crt0init.obj
 0001:00000004       __xc_z                     10001004     corelib0:crt0init.obj
 0001:00000008       __xi_a                     10001008     corelib0:crt0init.obj
 0001:0000000c       __xi_z                     1000100c     corelib0:crt0init.obj
 0001:00000010       __xp_a                     10001010     corelib0:crt0init.obj
 0001:00000014       __xp_z                     10001014     corelib0:crt0init.obj
 0001:00000018       __xt_a                     10001018     corelib0:crt0init.obj
 0001:0000001c       __xt_z                     1000101c     corelib0:crt0init.obj
 0001:0000003c       ??_7CMP4ParserFilter@@6BCUnknown@@@ 1000103c     fSsapMp4Parser.obj
 0001:00000060       ??_7CMP4ParserFilter@@6BIBaseFilter@@@ 10001060     fSsapMp4Parser.obj
 0001:0000009c       ??_7CMP4ParserFilter@@6BIAMovieSetup@@@ 1000109c     fSsapMp4Parser.obj
 0001:000000b0       ??_7CMP4ParserFilter@@6B@  100010b0     fSsapMp4Parser.obj
 0001:000000c8       ??_C@_1JG@GOMFEOBK@?$AA?6?$AA?$FL?$AAC?$AAM?$AAP?$AA4?$AAP?$AAa?$AAr?$AAs?$AAe?$AAr?$AAF?$AAi?$AAl?$AAt?$AAe?$AAr?$AA?3?$AA?3?$AAG?$AAe?$AAt?$AAA?$AAu?$AAd?$AAi?$AAo?$AAF?$AAr?$AAa?$AAm@ 100010c8     fSsapMp4Parser.obj
 0001:00000160       ??_C@_1EO@HBNMFJOD@?$AA?$FL?$AAS?$AAS?$AAA?$AAP?$AA?5?$AAM?$AAP?$AA4?$AAP?$AAa?$AAr?$AAs?$AAe?$AAr?$AA?$FN?$AAu?$AAn?$AAs?$AAu?$AAp?$AAp?$AAo?$AAr?$AAt?$AAe?$AAd?$AA?5?$AAf?$AAi?$AAl?$AAe@ 10001160     fSsapMp4Parser.obj
 0001:000001b0       ??_C@_1JG@KGMJAACJ@?$AA?6?$AA?$FL?$AAC?$AAM?$AAP?$AA4?$AAP?$AAa?$AAr?$AAs?$AAe?$AAr?$AAF?$AAi?$AAl?$AAt?$AAe?$AAr?$AA?3?$AA?3?$AAG?$AAe?$AAt?$AAV?$AAi?$AAd?$AAe?$AAo?$AAF?$AAr?$AAa?$AAm@ 100011b0     fSsapMp4Parser.obj
 0001:00000248       ??_C@_0EL@NGJHKMNA@?6?5m_audio_trId?5?$DN?5?$CFd?0?5m_audio_dur@ 10001248     fSsapMp4Parser.obj
 0001:00000294       ??_C@_0BM@PDMAPGKD@?6?5?$CB?$CB?5Unknown?5Audio?5?$CI?$CFs?$CJ?5?$CB?$CB?6?$AA@ 10001294     fSsapMp4Parser.obj
 0001:000002b0       ??_C@_04FJDDEBJM@samr?$AA@ 100012b0     fSsapMp4Parser.obj
 0001:000002b8       ??_C@_04GMMEAMCI@mp4a?$AA@ 100012b8     fSsapMp4Parser.obj
 0001:000002c0       ??_C@_04ENKOJJDK@soun?$AA@ 100012c0     fSsapMp4Parser.obj
 0001:000002c8       ??_C@_04FPBHNLJE@avc1?$AA@ 100012c8     fSsapMp4Parser.obj
 0001:000002d0       ??_C@_04JAAFOMF@s263?$AA@  100012d0     fSsapMp4Parser.obj
 0001:000002d8       ??_C@_04GJEHIILO@mp4v?$AA@ 100012d8     fSsapMp4Parser.obj
 0001:000002e0       ??_C@_1CI@IIDCMBHN@?$AA?6?$AA?5?$AAM?$AAP?$AA4?$AAR?$AAe?$AAa?$AAd?$AA?5?$AAs?$AAu?$AAc?$AAc?$AAe?$AAe?$AAd?$AA?4?$AA?4?$AA?$AA@ 100012e0     fSsapMp4Parser.obj
 0001:00000308       ??_C@_04FODFFJBK@vide?$AA@ 10001308     fSsapMp4Parser.obj
 0001:00000310       ??_C@_1FI@JAOLDIML@?$AA?6?$AA?$CI?$AAC?$AAM?$AAP?$AA4?$AAP?$AAa?$AAr?$AAs?$AAe?$AAr?$AAF?$AAi?$AAl?$AAt?$AAe?$AAr?$AA?3?$AA?3?$AAC?$AAh?$AAe?$AAc?$AAk?$AAF?$AAi?$AAl?$AAe?$AA?$CJ?$AA?5?$AAf@ 10001310     fSsapMp4Parser.obj
 0001:00000368       ??_C@_1BE@BIEIDALF@?$AAA?$AAu?$AAd?$AAi?$AAo?$AA?5?$AAO?$AAu?$AAt?$AA?$AA@ 10001368     fSsapMp4Parser.obj
 0001:0000037c       ??_C@_0CB@NIJEHGGJ@?6?$FLVIDEO?$FN?5MPEG4?0?5profile?5?$DN?50x?$CF02X@ 1000137c     fSsapMp4Parser.obj
 0001:000003a0       ??_C@_1BE@BGFIJDM@?$AAV?$AAi?$AAd?$AAe?$AAo?$AA?5?$AAO?$AAu?$AAt?$AA?$AA@ 100013a0     fSsapMp4Parser.obj
 0001:000003b4       ??_C@_0CB@OCHBBDPH@?6?$FLVIDEO?$FN?5H?4264?0?5profile?5?$DN?50x?$CF02X@ 100013b4     fSsapMp4Parser.obj
 0001:000003d8       ??_7CMP4ParserVideoOp@@6B@ 100013d8     fSsapMp4Parser_VideoOp.obj
 0001:000003f8       ??_7CMP4ParserVideoOp@@6BCUnknown@@CSourceStream@@@ 100013f8     fSsapMp4Parser_VideoOp.obj
 0001:00000458       ??_7CMP4ParserVideoOp@@6BIPin@@@ 10001458     fSsapMp4Parser_VideoOp.obj
 0001:000004a0       ??_7CMP4ParserVideoOp@@6BIQualityControl@@@ 100014a0     fSsapMp4Parser_VideoOp.obj
 0001:000004b8       ??_7CMP4ParserVideoOp@@6BIMediaSeeking@@@ 100014b8     fSsapMp4Parser_VideoOp.obj
 0001:00000514       ??_7CMP4ParserVideoOp@@6BCUnknown@@CSourceSeeking@@@ 10001514     fSsapMp4Parser_VideoOp.obj
 0001:00000524       ??_7CMP4ParserAudioOp@@6B@ 10001524     fSsapMp4Parser_AudioOp.obj
 0001:00000540       ??_7CMP4ParserAudioOp@@6BCUnknown@@CSourceStream@@@ 10001540     fSsapMp4Parser_AudioOp.obj
 0001:000005a0       ??_7CMP4ParserAudioOp@@6BIPin@@@ 100015a0     fSsapMp4Parser_AudioOp.obj
 0001:000005e8       ??_7CMP4ParserAudioOp@@6BIQualityControl@@@ 100015e8     fSsapMp4Parser_AudioOp.obj
 0001:00000600       ??_7CMP4ParserAudioOp@@6BIMediaSeeking@@@ 10001600     fSsapMp4Parser_AudioOp.obj
 0001:0000065c       ??_7CMP4ParserAudioOp@@6BCUnknown@@CSourceSeeking@@@ 1000165c     fSsapMp4Parser_AudioOp.obj
 0001:0000066c       ??_C@_1CO@HACJIAN@?$AAS?$AAS?$AAA?$AAP?$AA?5?$AAM?$AAP?$AA4?$AA?5?$AAP?$AAa?$AAr?$AAs?$AAe?$AAr?$AA?5?$AAF?$AAi?$AAl?$AAt?$AAe?$AAr?$AA?$AA@ 1000166c     SsapMp4Parser.obj
 0001:0000069c       ??_C@_1M@PFCMLKBL@?$AAI?$AAn?$AAp?$AAu?$AAt?$AA?$AA@ 1000169c     SsapMp4Parser.obj
 0001:000006a8       ??_C@_1O@GJMACMBA@?$AAO?$AAu?$AAt?$AAp?$AAu?$AAt?$AA?$AA@ 100016a8     SsapMp4Parser.obj
 0001:000006b8       CLSID_SSAP_MP4Parser_Filter 100016b8     SsapMp4Parser.obj
 0001:000006c8       MEDIASUBTYPE_m4v           100016c8     SsapMp4Parser.obj
 0001:000006d8       MEDIASUBTYPE_h264raw       100016d8     SsapMp4Parser.obj
 0001:000006e8       MEDIASUBTYPE_m4a           100016e8     SsapMp4Parser.obj
 0001:000006f8       MEDIASUBTYPE_EAACPLUS      100016f8     SsapMp4Parser.obj
 0001:00000708       MEDIASUBTYPE_AmrDec        10001708     SsapMp4Parser.obj
 0001:00000760       ??_7CSourceStream@@6B@     10001760     strmbase:source.obj
 0001:00000780       ??_7CSourceStream@@6BCUnknown@@@ 10001780     strmbase:source.obj
 0001:000007e0       ??_7CSourceStream@@6BIPin@@@ 100017e0     strmbase:source.obj
 0001:00000828       ??_7CSourceStream@@6BIQualityControl@@@ 10001828     strmbase:source.obj
 0001:0000083c       ??_7CSource@@6BCUnknown@@@ 1000183c     strmbase:source.obj
 0001:00000860       ??_7CSource@@6BIBaseFilter@@@ 10001860     strmbase:source.obj
 0001:0000089c       ??_7CSource@@6BIAMovieSetup@@@ 1000189c     strmbase:source.obj
 0001:000008b0       ??_7CEnumPins@@6B@         100018b0     strmbase:amfilter.obj
 0001:000008d0       ??_7CEnumMediaTypes@@6B@   100018d0     strmbase:amfilter.obj
 0001:0000090c       ??_7INonDelegatingUnknown@@6B@ 1000190c     strmbase:combase.obj
 0001:00000918       ??_C@_19FJLFNNLC@?$AAI?$AAd?$AAl?$AAe?$AA?$AA@ 10001918     strmbase:wxutil.obj
 0001:00000924       ??_C@_1BE@BCJNBPJM@?$AAA?$AAb?$AAo?$AAv?$AAe?$AAI?$AAd?$AAl?$AAe?$AA?$AA@ 10001924     strmbase:wxutil.obj
 0001:00000938       ??_C@_1O@PKLLGLAH@?$AAL?$AAo?$AAw?$AAe?$AAs?$AAt?$AA?$AA@ 10001938     strmbase:wxutil.obj
 0001:00000948       ??_C@_1BC@FECANNIO@?$AAC?$AAr?$AAi?$AAt?$AAi?$AAc?$AAa?$AAl?$AA?$AA@ 10001948     strmbase:wxutil.obj
 0001:0000095c       ??_C@_1BI@LOHGIKIA@?$AAB?$AAe?$AAl?$AAo?$AAw?$AAN?$AAo?$AAr?$AAm?$AAa?$AAl?$AA?$AA@ 1000195c     strmbase:wxutil.obj
 0001:00000974       ??_C@_1O@PFKKKDLL@?$AAN?$AAo?$AAr?$AAm?$AAa?$AAl?$AA?$AA@ 10001974     strmbase:wxutil.obj
 0001:00000984       ??_C@_1BI@JLDPAPCK@?$AAA?$AAb?$AAo?$AAv?$AAe?$AAN?$AAo?$AAr?$AAm?$AAa?$AAl?$AA?$AA@ 10001984     strmbase:wxutil.obj
 0001:0000099c       ??_C@_1BA@DLIIKAO@?$AAH?$AAi?$AAg?$AAh?$AAe?$AAs?$AAt?$AA?$AA@ 1000199c     strmbase:wxutil.obj
 0001:000009b0       ??_C@_1FK@HIMLFALB@?$AAS?$AAO?$AAF?$AAT?$AAW?$AAA?$AAR?$AAE?$AA?2?$AAM?$AAi?$AAc?$AAr?$AAo?$AAs?$AAo?$AAf?$AAt?$AA?2?$AAD?$AAi?$AAr?$AAe?$AAc?$AAt?$AAS?$AAh?$AAo?$AAw?$AA?2?$AAT?$AAh@ 100019b0     strmbase:wxutil.obj
 0001:00000a0c       ??_C@_15KNBIKKIN@?$AA?$CF?$AAd?$AA?$AA@ 10001a0c     strmbase:wxutil.obj
 0001:00000a14       ??_C@_1BO@NMEHGCBD@?$AAT?$AAh?$AAr?$AAe?$AAa?$AAd?$AAi?$AAn?$AAg?$AAM?$AAo?$AAd?$AAe?$AAl?$AA?$AA@ 10001a14     strmbase:dllsetup.obj
 0001:00000a34       ??_C@_17CNPHIMPH@?$AA?$CF?$AAl?$AAs?$AA?$AA@ 10001a34     strmbase:dllsetup.obj
 0001:00000a3c       ??_C@_1BE@OFBGLCML@?$AAC?$AAL?$AAS?$AAI?$AAD?$AA?2?$AA?$CF?$AAl?$AAs?$AA?$AA@ 10001a3c     strmbase:dllsetup.obj
 0001:00000a50       ??_C@_11LOCGONAA@?$AA?$AA@ 10001a50     strmbase:dllsetup.obj
 0001:00000a54       ??_C@_1BO@MNKPAJEP@?$AAI?$AAn?$AAp?$AAr?$AAo?$AAc?$AAS?$AAe?$AAr?$AAv?$AAe?$AAr?$AA3?$AA2?$AA?$AA@ 10001a54     strmbase:dllsetup.obj
 0001:00000a74       ??_C@_19OBNAGCDI@?$AAB?$AAo?$AAt?$AAh?$AA?$AA@ 10001a74     strmbase:dllsetup.obj
 0001:00000a80       ??_7CClassFactory@@6B@     10001a80     strmbase:dllentry.obj
 0001:00000a94       ??_C@_1BA@HABJOAEE@?$AAU?$AAN?$AAK?$AAN?$AAO?$AAW?$AAN?$AA?$AA@ 10001a94     strmbase:amvideo.obj
 0001:00000aa4       ??_C@_1BA@LBOLBFDJ@?$AAO?$AAv?$AAe?$AAr?$AAl?$AAa?$AAy?$AA?$AA@ 10001aa4     strmbase:amvideo.obj
 0001:00000ab4       ??_C@_1O@BHCPCHJF@?$AAR?$AAG?$AAB?$AA?5?$AA3?$AA2?$AA?$AA@ 10001ab4     strmbase:amvideo.obj
 0001:00000ac4       ??_C@_1O@PJBIKLOM@?$AAR?$AAG?$AAB?$AA?5?$AA2?$AA4?$AA?$AA@ 10001ac4     strmbase:amvideo.obj
 0001:00000ad4       ??_C@_1CC@CHFLHMKC@?$AAR?$AAG?$AAB?$AA?5?$AA5?$AA5?$AA5?$AA?5?$AA?$CI?$AA1?$AA6?$AA?5?$AAb?$AAi?$AAt?$AA?$CJ?$AA?$AA@ 10001ad4     strmbase:amvideo.obj
 0001:00000af8       ??_C@_1CC@HPEFNFIK@?$AAR?$AAG?$AAB?$AA?5?$AA5?$AA6?$AA5?$AA?5?$AA?$CI?$AA1?$AA6?$AA?5?$AAb?$AAi?$AAt?$AA?$CJ?$AA?$AA@ 10001af8     strmbase:amvideo.obj
 0001:00000b1c       ??_C@_1M@HBIHPBDC@?$AAR?$AAG?$AAB?$AA?5?$AA8?$AA?$AA@ 10001b1c     strmbase:amvideo.obj
 0001:00000b28       ??_C@_1BA@EJHANBOO@?$AAR?$AAG?$AAB?$AA?5?$AAV?$AAG?$AAA?$AA?$AA@ 10001b28     strmbase:amvideo.obj
 0001:00000b38       ??_C@_1BO@BGHCKFGI@?$AAR?$AAG?$AAB?$AA?5?$AAM?$AAo?$AAn?$AAo?$AAc?$AAh?$AAr?$AAo?$AAm?$AAe?$AA?$AA@ 10001b38     strmbase:amvideo.obj
 0001:00000b58       ?bits555@@3QBKB            10001b58     strmbase:amvideo.obj
 0001:00000b64       ?bits565@@3QBKB            10001b64     strmbase:amvideo.obj
 0001:00000b70       ?bits888@@3QBKB            10001b70     strmbase:amvideo.obj
 0001:00000bec       IID_IPin                   10001bec     strmiids:strmif_i.obj
 0001:00000bfc       IID_IEnumPins              10001bfc     strmiids:strmif_i.obj
 0001:00000c0c       IID_IEnumMediaTypes        10001c0c     strmiids:strmif_i.obj
 0001:00000c1c       IID_IFilterGraph           10001c1c     strmiids:strmif_i.obj
 0001:00000c2c       IID_IEnumFilters           10001c2c     strmiids:strmif_i.obj
 0001:00000c3c       IID_IMediaFilter           10001c3c     strmiids:strmif_i.obj
 0001:00000c4c       IID_IBaseFilter            10001c4c     strmiids:strmif_i.obj
 0001:00000c5c       IID_IReferenceClock        10001c5c     strmiids:strmif_i.obj
 0001:00000c6c       IID_IReferenceClock2       10001c6c     strmiids:strmif_i.obj
 0001:00000c7c       IID_IMediaSample           10001c7c     strmiids:strmif_i.obj
 0001:00000c8c       IID_IMediaSample2          10001c8c     strmiids:strmif_i.obj
 0001:00000c9c       IID_IMemAllocator          10001c9c     strmiids:strmif_i.obj
 0001:00000cac       IID_IMemAllocator2         10001cac     strmiids:strmif_i.obj
 0001:00000cbc       IID_IMemInputPin           10001cbc     strmiids:strmif_i.obj
 0001:00000ccc       IID_IAMovieSetup           10001ccc     strmiids:strmif_i.obj
 0001:00000cdc       IID_IMediaSeeking          10001cdc     strmiids:strmif_i.obj
 0001:00000cec       IID_IAudioRenderer         10001cec     strmiids:strmif_i.obj
 0001:00000cfc       IID_IAudioRendererWaveOut  10001cfc     strmiids:strmif_i.obj
 0001:00000d0c       IID_IEnumRegFilters        10001d0c     strmiids:strmif_i.obj
 0001:00000d1c       IID_IFilterMapper          10001d1c     strmiids:strmif_i.obj
 0001:00000d2c       IID_IQualityControl        10001d2c     strmiids:strmif_i.obj
 0001:00000d3c       IID_IOverlayNotify         10001d3c     strmiids:strmif_i.obj
 0001:00000d4c       IID_IOverlay               10001d4c     strmiids:strmif_i.obj
 0001:00000d5c       IID_IMediaEventSink        10001d5c     strmiids:strmif_i.obj
 0001:00000d6c       IID_IFileSourceFilter      10001d6c     strmiids:strmif_i.obj
 0001:00000d7c       IID_IFileSinkFilter        10001d7c     strmiids:strmif_i.obj
 0001:00000d8c       IID_IFileSinkFilter2       10001d8c     strmiids:strmif_i.obj
 0001:00000d9c       IID_IFileAsyncIO           10001d9c     strmiids:strmif_i.obj
 0001:00000dac       IID_IGraphBuilder          10001dac     strmiids:strmif_i.obj
 0001:00000dbc       IID_ICaptureGraphBuilder   10001dbc     strmiids:strmif_i.obj
 0001:00000dcc       IID_IAMCopyCaptureFileProgress 10001dcc     strmiids:strmif_i.obj
 0001:00000ddc       IID_ICaptureGraphBuilder2  10001ddc     strmiids:strmif_i.obj
 0001:00000dec       IID_IFilterGraph2          10001dec     strmiids:strmif_i.obj
 0001:00000dfc       IID_IStreamBuilder         10001dfc     strmiids:strmif_i.obj
 0001:00000e0c       IID_IAsyncReader           10001e0c     strmiids:strmif_i.obj
 0001:00000e1c       IID_IGraphVersion          10001e1c     strmiids:strmif_i.obj
 0001:00000e2c       IID_IResourceConsumer      10001e2c     strmiids:strmif_i.obj
 0001:00000e3c       IID_IResourceManager       10001e3c     strmiids:strmif_i.obj
 0001:00000e4c       IID_IDistributorNotify     10001e4c     strmiids:strmif_i.obj
 0001:00000e5c       IID_IAMStreamControl       10001e5c     strmiids:strmif_i.obj
 0001:00000e6c       IID_ISeekingPassThru       10001e6c     strmiids:strmif_i.obj
 0001:00000e7c       IID_IAMStreamConfig        10001e7c     strmiids:strmif_i.obj
 0001:00000e8c       IID_IConfigInterleaving    10001e8c     strmiids:strmif_i.obj
 0001:00000e9c       IID_IConfigAviMux          10001e9c     strmiids:strmif_i.obj
 0001:00000eac       IID_IAMVideoCompression    10001eac     strmiids:strmif_i.obj
 0001:00000ebc       IID_IAMDroppedFrames       10001ebc     strmiids:strmif_i.obj
 0001:00000ecc       IID_IAMBufferNegotiation   10001ecc     strmiids:strmif_i.obj
 0001:00000edc       IID_IAMVideoProcAmp        10001edc     strmiids:strmif_i.obj
 0001:00000eec       IID_IAMCameraControl       10001eec     strmiids:strmif_i.obj
 0001:00000efc       IID_IAMVideoControl        10001efc     strmiids:strmif_i.obj
 0001:00000f0c       IID_IAMCrossbar            10001f0c     strmiids:strmif_i.obj
 0001:00000f1c       IID_IAMTuner               10001f1c     strmiids:strmif_i.obj
 0001:00000f2c       IID_IAMTunerNotification   10001f2c     strmiids:strmif_i.obj
 0001:00000f3c       IID_IAMTVTuner             10001f3c     strmiids:strmif_i.obj
 0001:00000f4c       IID_IKsPropertySet         10001f4c     strmiids:strmif_i.obj
 0001:00000f5c       IID_IMediaPropertyBag      10001f5c     strmiids:strmif_i.obj
 0001:00000f6c       IID_IPersistMediaPropertyBag 10001f6c     strmiids:strmif_i.obj
 0001:00000f7c       IID_IAMPhysicalPinInfo     10001f7c     strmiids:strmif_i.obj
 0001:00000f8c       IID_IAMExtDevice           10001f8c     strmiids:strmif_i.obj
 0001:00000f9c       IID_IAMExtTransport        10001f9c     strmiids:strmif_i.obj
 0001:00000fac       IID_IAMTimecodeReader      10001fac     strmiids:strmif_i.obj
 0001:00000fbc       IID_IAMTimecodeGenerator   10001fbc     strmiids:strmif_i.obj
 0001:00000fcc       IID_IAMTimecodeDisplay     10001fcc     strmiids:strmif_i.obj
 0001:00000fdc       IID_IAMDevMemoryAllocator  10001fdc     strmiids:strmif_i.obj
 0001:00000fec       IID_IAMDevMemoryControl    10001fec     strmiids:strmif_i.obj
 0001:00000ffc       IID_IAMStreamSelect        10001ffc     strmiids:strmif_i.obj
 0001:0000100c       IID_IAMResourceControl     1000200c     strmiids:strmif_i.obj
 0001:0000101c       IID_IAMClockAdjust         1000201c     strmiids:strmif_i.obj
 0001:0000102c       IID_IAMFilterMiscFlags     1000202c     strmiids:strmif_i.obj
 0001:0000103c       IID_IAMAudioRendererStats  1000203c     strmiids:strmif_i.obj
 0001:0000104c       IID_IAMVideoRendererMode   1000204c     strmiids:strmif_i.obj
 0001:0000105c       IID_ILanguageSelection     1000205c     strmiids:strmif_i.obj
 0001:0000106c       IID_IImageSinkFilter       1000206c     strmiids:strmif_i.obj
 0001:0000107c       IID_ISmartTee              1000207c     strmiids:strmif_i.obj
 0001:0000108c       IID_IBuffering             1000208c     strmiids:strmif_i.obj
 0001:0000109c       IID_IAMCertifiedOutputProtection 1000209c     strmiids:strmif_i.obj
 0001:000010ac       IID_IVideoFrameStep        100020ac     strmiids:strmif_i.obj
 0001:000010bc       IID_IDvdControl            100020bc     strmiids:strmif_i.obj
 0001:000010cc       IID_IDvdInfo               100020cc     strmiids:strmif_i.obj
 0001:000010dc       IID_IDvdCmd                100020dc     strmiids:strmif_i.obj
 0001:000010ec       IID_IDvdState              100020ec     strmiids:strmif_i.obj
 0001:000010fc       IID_IDvdControl2           100020fc     strmiids:strmif_i.obj
 0001:0000110c       IID_IDvdInfo2              1000210c     strmiids:strmif_i.obj
 0001:0000111c       IID_IDvdGraphBuilder       1000211c     strmiids:strmif_i.obj
 0001:0000112c       IID_IDDrawExclModeVideo    1000212c     strmiids:strmif_i.obj
 0001:0000113c       IID_IDDrawExclModeVideoCallback 1000213c     strmiids:strmif_i.obj
 0001:0000114c       LIBID_QuartzTypeLib        1000214c     strmiids:strmguid.obj
 0001:0000115c       IID_IAMCollection          1000215c     strmiids:strmguid.obj
 0001:0000116c       IID_IMediaControl          1000216c     strmiids:strmguid.obj
 0001:0000117c       IID_IMediaEvent            1000217c     strmiids:strmguid.obj
 0001:0000118c       IID_IMediaEventEx          1000218c     strmiids:strmguid.obj
 0001:0000119c       IID_IMediaPosition         1000219c     strmiids:strmguid.obj
 0001:000011ac       IID_IBasicAudio            100021ac     strmiids:strmguid.obj
 0001:000011bc       IID_IVideoWindow           100021bc     strmiids:strmguid.obj
 0001:000011cc       IID_IBasicVideo            100021cc     strmiids:strmguid.obj
 0001:000011dc       IID_IBasicVideo2           100021dc     strmiids:strmguid.obj
 0001:000011ec       IID_IDeferredCommand       100021ec     strmiids:strmguid.obj
 0001:000011fc       IID_IQueueCommand          100021fc     strmiids:strmguid.obj
 0001:0000120c       CLSID_FilgraphManager      1000220c     strmiids:strmguid.obj
 0001:0000121c       IID_IFilterInfo            1000221c     strmiids:strmguid.obj
 0001:0000122c       IID_IRegFilterInfo         1000222c     strmiids:strmguid.obj
 0001:0000123c       IID_IMediaTypeInfo         1000223c     strmiids:strmguid.obj
 0001:0000124c       IID_IPinInfo               1000224c     strmiids:strmguid.obj
 0001:0000125c       MEDIASUBTYPE_None          1000225c     strmiids:strmguid.obj
 0001:0000126c       MEDIATYPE_Video            1000226c     strmiids:strmguid.obj
 0001:0000127c       MEDIATYPE_Audio            1000227c     strmiids:strmguid.obj
 0001:0000128c       MEDIATYPE_VideoBuffered    1000228c     strmiids:strmguid.obj
 0001:0000129c       MEDIATYPE_AudioBuffered    1000229c     strmiids:strmguid.obj
 0001:000012ac       MEDIATYPE_Text             100022ac     strmiids:strmguid.obj
 0001:000012bc       MEDIATYPE_Midi             100022bc     strmiids:strmguid.obj
 0001:000012cc       MEDIATYPE_Stream           100022cc     strmiids:strmguid.obj
 0001:000012dc       MEDIATYPE_Interleaved      100022dc     strmiids:strmguid.obj
 0001:000012ec       MEDIATYPE_File             100022ec     strmiids:strmguid.obj
 0001:000012fc       MEDIATYPE_ScriptCommand    100022fc     strmiids:strmguid.obj
 0001:0000130c       MEDIATYPE_AUXLine21Data    1000230c     strmiids:strmguid.obj
 0001:0000131c       MEDIATYPE_Timecode         1000231c     strmiids:strmguid.obj
 0001:0000132c       MEDIATYPE_LMRT             1000232c     strmiids:strmguid.obj
 0001:0000133c       MEDIATYPE_URL_STREAM       1000233c     strmiids:strmguid.obj
 0001:0000134c       MEDIASUBTYPE_YVU9          1000234c     strmiids:strmguid.obj
 0001:0000135c       MEDIASUBTYPE_Y411          1000235c     strmiids:strmguid.obj
 0001:0000136c       MEDIASUBTYPE_Y41P          1000236c     strmiids:strmguid.obj
 0001:0000137c       MEDIASUBTYPE_YUY2          1000237c     strmiids:strmguid.obj
 0001:0000138c       MEDIASUBTYPE_YVYU          1000238c     strmiids:strmguid.obj
 0001:0000139c       MEDIASUBTYPE_UYVY          1000239c     strmiids:strmguid.obj
 0001:000013ac       MEDIASUBTYPE_Y211          100023ac     strmiids:strmguid.obj
 0001:000013bc       MEDIASUBTYPE_YV12          100023bc     strmiids:strmguid.obj
 0001:000013cc       MEDIASUBTYPE_YV16          100023cc     strmiids:strmguid.obj
 0001:000013dc       MEDIASUBTYPE_IUYV          100023dc     strmiids:strmguid.obj
 0001:000013ec       MEDIASUBTYPE_NV12          100023ec     strmiids:strmguid.obj
 0001:000013fc       MEDIASUBTYPE_I420          100023fc     strmiids:strmguid.obj
 0001:0000140c       MEDIASUBTYPE_IYUV          1000240c     strmiids:strmguid.obj
 0001:0000141c       MEDIASUBTYPE_CLJR          1000241c     strmiids:strmguid.obj
 0001:0000142c       MEDIASUBTYPE_IF09          1000242c     strmiids:strmguid.obj
 0001:0000143c       MEDIASUBTYPE_CPLA          1000243c     strmiids:strmguid.obj
 0001:0000144c       MEDIASUBTYPE_MJPG          1000244c     strmiids:strmguid.obj
 0001:0000145c       MEDIASUBTYPE_TVMJ          1000245c     strmiids:strmguid.obj
 0001:0000146c       MEDIASUBTYPE_WAKE          1000246c     strmiids:strmguid.obj
 0001:0000147c       MEDIASUBTYPE_CFCC          1000247c     strmiids:strmguid.obj
 0001:0000148c       MEDIASUBTYPE_IJPG          1000248c     strmiids:strmguid.obj
 0001:0000149c       MEDIASUBTYPE_Plum          1000249c     strmiids:strmguid.obj
 0001:000014ac       MEDIASUBTYPE_DVCS          100024ac     strmiids:strmguid.obj
 0001:000014bc       MEDIASUBTYPE_DVSD          100024bc     strmiids:strmguid.obj
 0001:000014cc       MEDIASUBTYPE_MDVF          100024cc     strmiids:strmguid.obj
 0001:000014dc       MEDIASUBTYPE_RGB1          100024dc     strmiids:strmguid.obj
 0001:000014ec       MEDIASUBTYPE_RGB4          100024ec     strmiids:strmguid.obj
 0001:000014fc       MEDIASUBTYPE_RGB8          100024fc     strmiids:strmguid.obj
 0001:0000150c       MEDIASUBTYPE_RGB565        1000250c     strmiids:strmguid.obj
 0001:0000151c       MEDIASUBTYPE_RGB555        1000251c     strmiids:strmguid.obj
 0001:0000152c       MEDIASUBTYPE_RGB24         1000252c     strmiids:strmguid.obj
 0001:0000153c       MEDIASUBTYPE_RGB32         1000253c     strmiids:strmguid.obj
 0001:0000154c       MEDIASUBTYPE_Overlay       1000254c     strmiids:strmguid.obj
 0001:0000155c       MEDIASUBTYPE_MPEG1Packet   1000255c     strmiids:strmguid.obj
 0001:0000156c       MEDIASUBTYPE_MPEG1Payload  1000256c     strmiids:strmguid.obj
 0001:0000157c       MEDIASUBTYPE_MPEG1AudioPayload 1000257c     strmiids:strmguid.obj
 0001:0000158c       MEDIATYPE_MPEG1SystemStream 1000258c     strmiids:strmguid.obj
 0001:0000159c       MEDIASUBTYPE_MPEG1System   1000259c     strmiids:strmguid.obj
 0001:000015ac       MEDIASUBTYPE_MPEG1VideoCD  100025ac     strmiids:strmguid.obj
 0001:000015bc       MEDIASUBTYPE_MPEG1Video    100025bc     strmiids:strmguid.obj
 0001:000015cc       MEDIASUBTYPE_MPEG1Audio    100025cc     strmiids:strmguid.obj
 0001:000015dc       MEDIASUBTYPE_Avi           100025dc     strmiids:strmguid.obj
 0001:000015ec       MEDIASUBTYPE_Asf           100025ec     strmiids:strmguid.obj
 0001:000015fc       MEDIASUBTYPE_QTMovie       100025fc     strmiids:strmguid.obj
 0001:0000160c       MEDIASUBTYPE_QTRpza        1000260c     strmiids:strmguid.obj
 0001:0000161c       MEDIASUBTYPE_QTSmc         1000261c     strmiids:strmguid.obj
 0001:0000162c       MEDIASUBTYPE_QTRle         1000262c     strmiids:strmguid.obj
 0001:0000163c       MEDIASUBTYPE_QTJpeg        1000263c     strmiids:strmguid.obj
 0001:0000164c       MEDIASUBTYPE_PCMAudio_Obsolete 1000264c     strmiids:strmguid.obj
 0001:0000165c       MEDIASUBTYPE_PCM           1000265c     strmiids:strmguid.obj
 0001:0000166c       MEDIASUBTYPE_WAVE          1000266c     strmiids:strmguid.obj
 0001:0000167c       MEDIASUBTYPE_AU            1000267c     strmiids:strmguid.obj
 0001:0000168c       MEDIASUBTYPE_AIFF          1000268c     strmiids:strmguid.obj
 0001:0000169c       MEDIASUBTYPE_dvsd          1000269c     strmiids:strmguid.obj
 0001:000016ac       MEDIASUBTYPE_dvhd          100026ac     strmiids:strmguid.obj
 0001:000016bc       MEDIASUBTYPE_dvsl          100026bc     strmiids:strmguid.obj
 0001:000016cc       MEDIASUBTYPE_Line21_BytePair 100026cc     strmiids:strmguid.obj
 0001:000016dc       MEDIASUBTYPE_Line21_GOPPacket 100026dc     strmiids:strmguid.obj
 0001:000016ec       MEDIASUBTYPE_Line21_VBIRawData 100026ec     strmiids:strmguid.obj
 0001:000016fc       MEDIASUBTYPE_DssVideo      100026fc     strmiids:strmguid.obj
 0001:0000170c       MEDIASUBTYPE_DssAudio      1000270c     strmiids:strmguid.obj
 0001:0000171c       MEDIASUBTYPE_VPVideo       1000271c     strmiids:strmguid.obj
 0001:0000172c       MEDIASUBTYPE_VPVBI         1000272c     strmiids:strmguid.obj
 0001:0000173c       IID_IAMCutListElement      1000273c     strmiids:strmguid.obj
 0001:0000174c       IID_IAMFileCutListElement  1000274c     strmiids:strmguid.obj
 0001:0000175c       IID_IAMVideoCutListElement 1000275c     strmiids:strmguid.obj
 0001:0000176c       IID_IAMAudioCutListElement 1000276c     strmiids:strmguid.obj
 0001:0000177c       CLSID_CutListSource        1000277c     strmiids:strmguid.obj
 0001:0000178c       IID_IStandardCutList       1000278c     strmiids:strmguid.obj
 0001:0000179c       IID_IFileClip              1000279c     strmiids:strmguid.obj
 0001:000017ac       IID_ICutListGraphBuilder   100027ac     strmiids:strmguid.obj
 0001:000017bc       CLSID_CutListGraphBuilder  100027bc     strmiids:strmguid.obj
 0001:000017cc       CLSID_SimpleCutList        100027cc     strmiids:strmguid.obj
 0001:000017dc       CLSID_VideoFileClip        100027dc     strmiids:strmguid.obj
 0001:000017ec       CLSID_AudioFileClip        100027ec     strmiids:strmguid.obj
 0001:000017fc       CLSID_CutListCacheMemory   100027fc     strmiids:strmguid.obj
 0001:0000180c       CLSID_VideoCapture         1000280c     strmiids:strmguid.obj
 0001:0000181c       CLSID_CaptureGraphBuilder  1000281c     strmiids:strmguid.obj
 0001:0000182c       CLSID_ProtoFilterGraph     1000282c     strmiids:strmguid.obj
 0001:0000183c       CLSID_SystemClock          1000283c     strmiids:strmguid.obj
 0001:0000184c       CLSID_FilterMapper         1000284c     strmiids:strmguid.obj
 0001:0000185c       CLSID_FilterGraph          1000285c     strmiids:strmguid.obj
 0001:0000186c       CLSID_FilterGraphNoThread  1000286c     strmiids:strmguid.obj
 0001:0000187c       CLSID_MPEG1Doc             1000287c     strmiids:strmguid.obj
 0001:0000188c       CLSID_VideoCDSource        1000288c     strmiids:strmguid.obj
 0001:0000189c       CLSID_VideoCDProxy         1000289c     strmiids:strmguid.obj
 0001:000018ac       CLSID_VideoCDManager       100028ac     strmiids:strmguid.obj
 0001:000018bc       CLSID_GenericStreamer      100028bc     strmiids:strmguid.obj
 0001:000018cc       CLSID_FileSource           100028cc     strmiids:strmguid.obj
 0001:000018dc       CLSID_MPEG1PacketPlayer    100028dc     strmiids:strmguid.obj
 0001:000018ec       CLSID_MPEG1Splitter        100028ec     strmiids:strmguid.obj
 0001:000018fc       CLSID_MPEG2Splitter        100028fc     strmiids:strmguid.obj
 0001:0000190c       CLSID_CMpegVideoCodec      1000290c     strmiids:strmguid.obj
 0001:0000191c       CLSID_CMpegAudioCodec      1000291c     strmiids:strmguid.obj
 0001:0000192c       CLSID_Mp3Dec               1000292c     strmiids:strmguid.obj
 0001:0000193c       CLSID_MjpegDec             1000293c     strmiids:strmguid.obj
 0001:0000194c       CLSID_TextRender           1000294c     strmiids:strmguid.obj
 0001:0000195c       CLSID_WAVEParser           1000295c     strmiids:strmguid.obj
 0001:0000196c       CLSID_MIDIParser           1000296c     strmiids:strmguid.obj
 0001:0000197c       CLSID_DMFilter             1000297c     strmiids:strmguid.obj
 0001:0000198c       CLSID_InfTee               1000298c     strmiids:strmguid.obj
 0001:0000199c       CLSID_AviSplitter          1000299c     strmiids:strmguid.obj
 0001:000019ac       CLSID_AviReader            100029ac     strmiids:strmguid.obj
 0001:000019bc       CLSID_VfwCapture           100029bc     strmiids:strmguid.obj
 0001:000019cc       CLSID_CaptureProperties    100029cc     strmiids:strmguid.obj
 0001:000019dc       CLSID_FGControl            100029dc     strmiids:strmguid.obj
 0001:000019ec       CLSID_MOVReader            100029ec     strmiids:strmguid.obj
 0001:000019fc       CLSID_QuickTimeParser      100029fc     strmiids:strmguid.obj
 0001:00001a0c       CLSID_QTDec                10002a0c     strmiids:strmguid.obj
 0001:00001a1c       CLSID_AVIDoc               10002a1c     strmiids:strmguid.obj
 0001:00001a2c       CLSID_AVIDocWriter         10002a2c     strmiids:strmguid.obj
 0001:00001a3c       CLSID_VideoRenderer        10002a3c     strmiids:strmguid.obj
 0001:00001a4c       CLSID_Colour               10002a4c     strmiids:strmguid.obj
 0001:00001a5c       CLSID_Dither               10002a5c     strmiids:strmguid.obj
 0001:00001a6c       CLSID_ModexRenderer        10002a6c     strmiids:strmguid.obj
 0001:00001a7c       CLSID_AudioRender          10002a7c     strmiids:strmguid.obj
 0001:00001a8c       CLSID_AudioProperties      10002a8c     strmiids:strmguid.obj
 0001:00001a9c       CLSID_DSoundRender         10002a9c     strmiids:strmguid.obj
 0001:00001aac       CLSID_AudioCapture         10002aac     strmiids:strmguid.obj
 0001:00001abc       CLSID_AudioInputMixerProperties 10002abc     strmiids:strmguid.obj
 0001:00001acc       CLSID_AVIDec               10002acc     strmiids:strmguid.obj
 0001:00001adc       CLSID_AVIDraw              10002adc     strmiids:strmguid.obj
 0001:00001aec       CLSID_ACMWrapper           10002aec     strmiids:strmguid.obj
 0001:00001afc       CLSID_AsyncReader          10002afc     strmiids:strmguid.obj
 0001:00001b0c       CLSID_URLReader            10002b0c     strmiids:strmguid.obj
 0001:00001b1c       CLSID_PersistMonikerPID    10002b1c     strmiids:strmguid.obj
 0001:00001b2c       CLSID_AMovie               10002b2c     strmiids:strmguid.obj
 0001:00001b3c       CLSID_AVICo                10002b3c     strmiids:strmguid.obj
 0001:00001b4c       CLSID_FileWriter           10002b4c     strmiids:strmguid.obj
 0001:00001b5c       CLSID_AviDest              10002b5c     strmiids:strmguid.obj
 0001:00001b6c       CLSID_AsfMux               10002b6c     strmiids:strmguid.obj
 0001:00001b7c       CLSID_AviMuxProptyPage     10002b7c     strmiids:strmguid.obj
 0001:00001b8c       CLSID_AviMuxProptyPage1    10002b8c     strmiids:strmguid.obj
 0001:00001b9c       CLSID_AVIMIDIRender        10002b9c     strmiids:strmguid.obj
 0001:00001bac       CLSID_DVVideoCodec         10002bac     strmiids:strmguid.obj
 0001:00001bbc       CLSID_DVVideoEnc           10002bbc     strmiids:strmguid.obj
 0001:00001bcc       CLSID_DVSplitter           10002bcc     strmiids:strmguid.obj
 0001:00001bdc       CLSID_DVMux                10002bdc     strmiids:strmguid.obj
 0001:00001bec       CLSID_SeekingPassThru      10002bec     strmiids:strmguid.obj
 0001:00001bfc       CLSID_Line21Decoder        10002bfc     strmiids:strmguid.obj
 0001:00001c0c       CLSID_OverlayMixer         10002c0c     strmiids:strmguid.obj
 0001:00001c1c       CLSID_VBISurfaces          10002c1c     strmiids:strmguid.obj
 0001:00001c2c       CLSID_VBIDataRenderer      10002c2c     strmiids:strmguid.obj
 0001:00001c3c       CLSID_SystemDeviceEnum     10002c3c     strmiids:strmguid.obj
 0001:00001c4c       CLSID_CDeviceMoniker       10002c4c     strmiids:strmguid.obj
 0001:00001c5c       CLSID_VideoInputDeviceCategory 10002c5c     strmiids:strmguid.obj
 0001:00001c6c       CLSID_CVidCapClassManager  10002c6c     strmiids:strmguid.obj
 0001:00001c7c       CLSID_LegacyAmFilterCategory 10002c7c     strmiids:strmguid.obj
 0001:00001c8c       CLSID_CQzFilterClassManager 10002c8c     strmiids:strmguid.obj
 0001:00001c9c       CLSID_VideoCompressorCategory 10002c9c     strmiids:strmguid.obj
 0001:00001cac       CLSID_CIcmCoClassManager   10002cac     strmiids:strmguid.obj
 0001:00001cbc       CLSID_AudioCompressorCategory 10002cbc     strmiids:strmguid.obj
 0001:00001ccc       CLSID_CAcmCoClassManager   10002ccc     strmiids:strmguid.obj
 0001:00001cdc       CLSID_AudioInputDeviceCategory 10002cdc     strmiids:strmguid.obj
 0001:00001cec       CLSID_CWaveinClassManager  10002cec     strmiids:strmguid.obj
 0001:00001cfc       CLSID_AudioRendererCategory 10002cfc     strmiids:strmguid.obj
 0001:00001d0c       CLSID_CWaveOutClassManager 10002d0c     strmiids:strmguid.obj
 0001:00001d1c       CLSID_MidiRendererCategory 10002d1c     strmiids:strmguid.obj
 0001:00001d2c       CLSID_CMidiOutClassManager 10002d2c     strmiids:strmguid.obj
 0001:00001d3c       CLSID_TransmitCategory     10002d3c     strmiids:strmguid.obj
 0001:00001d4c       CLSID_DeviceControlCategory 10002d4c     strmiids:strmguid.obj
 0001:00001d5c       CLSID_ActiveMovieCategories 10002d5c     strmiids:strmguid.obj
 0001:00001d6c       CLSID_DVDHWDecodersCategory 10002d6c     strmiids:strmguid.obj
 0001:00001d7c       CLSID_FilterMapper2        10002d7c     strmiids:strmguid.obj
 0001:00001d8c       CLSID_MemoryAllocator      10002d8c     strmiids:strmguid.obj
 0001:00001d9c       CLSID_MediaPropertyBag     10002d9c     strmiids:strmguid.obj
 0001:00001dac       CLSID_DvdGraphBuilder      10002dac     strmiids:strmguid.obj
 0001:00001dbc       CLSID_DVDNavigator         10002dbc     strmiids:strmguid.obj
 0001:00001dcc       CLSID_SmartTee             10002dcc     strmiids:strmguid.obj
 0001:00001ddc       CLSID_DMOWrapperFilter     10002ddc     strmiids:strmguid.obj
 0001:00001dec       CLSID_WMVDec               10002dec     strmiids:strmguid.obj
 0001:00001dfc       CLSID_BufferingFilter      10002dfc     strmiids:strmguid.obj
 0001:00001e0c       FORMAT_None                10002e0c     strmiids:strmguid.obj
 0001:00001e1c       FORMAT_VideoInfo           10002e1c     strmiids:strmguid.obj
 0001:00001e2c       FORMAT_VideoInfo2          10002e2c     strmiids:strmguid.obj
 0001:00001e3c       FORMAT_WaveFormatEx        10002e3c     strmiids:strmguid.obj
 0001:00001e4c       FORMAT_MPEGVideo           10002e4c     strmiids:strmguid.obj
 0001:00001e5c       FORMAT_MPEGStreams         10002e5c     strmiids:strmguid.obj
 0001:00001e6c       FORMAT_DvInfo              10002e6c     strmiids:strmguid.obj
 0001:00001e7c       CLSID_DirectDrawProperties 10002e7c     strmiids:strmguid.obj
 0001:00001e8c       CLSID_PerformanceProperties 10002e8c     strmiids:strmguid.obj
 0001:00001e9c       CLSID_QualityProperties    10002e9c     strmiids:strmguid.obj
 0001:00001eac       IID_IBaseVideoMixer        10002eac     strmiids:strmguid.obj
 0001:00001ebc       IID_IDirectDrawVideo       10002ebc     strmiids:strmguid.obj
 0001:00001ecc       IID_IQualProp              10002ecc     strmiids:strmguid.obj
 0001:00001edc       CLSID_VPObject             10002edc     strmiids:strmguid.obj
 0001:00001eec       IID_IVPObject              10002eec     strmiids:strmguid.obj
 0001:00001efc       IID_IVPControl             10002efc     strmiids:strmguid.obj
 0001:00001f0c       CLSID_VPVBIObject          10002f0c     strmiids:strmguid.obj
 0001:00001f1c       IID_IVPVBIObject           10002f1c     strmiids:strmguid.obj
 0001:00001f2c       IID_IVPConfig              10002f2c     strmiids:strmguid.obj
 0001:00001f3c       IID_IVPNotify              10002f3c     strmiids:strmguid.obj
 0001:00001f4c       IID_IVPNotify2             10002f4c     strmiids:strmguid.obj
 0001:00001f5c       IID_IVPVBIConfig           10002f5c     strmiids:strmguid.obj
 0001:00001f6c       IID_IVPVBINotify           10002f6c     strmiids:strmguid.obj
 0001:00001f7c       IID_IMixerPinConfig        10002f7c     strmiids:strmguid.obj
 0001:00001f8c       IID_IMixerPinConfig2       10002f8c     strmiids:strmguid.obj
 0001:00001f9c       CLSID_ModexProperties      10002f9c     strmiids:strmguid.obj
 0001:00001fac       IID_IFullScreenVideo       10002fac     strmiids:strmguid.obj
 0001:00001fbc       IID_IFullScreenVideoEx     10002fbc     strmiids:strmguid.obj
 0001:00001fcc       CLSID_DVDecPropertiesPage  10002fcc     strmiids:strmguid.obj
 0001:00001fdc       CLSID_DVEncPropertiesPage  10002fdc     strmiids:strmguid.obj
 0001:00001fec       CLSID_DVMuxPropertyPage    10002fec     strmiids:strmguid.obj
 0001:00001ffc       IID_IAMDirectSound         10002ffc     strmiids:strmguid.obj
 0001:0000200c       IID_IMpegAudioDecoder      1000300c     strmiids:strmguid.obj
 0001:0000201c       IID_IAMLine21Decoder       1000301c     strmiids:strmguid.obj
 0001:0000202c       FORMAT_AnalogVideo         1000302c     strmiids:strmguid.obj
 0001:0000203c       MEDIATYPE_AnalogVideo      1000303c     strmiids:strmguid.obj
 0001:0000204c       MEDIASUBTYPE_AnalogVideo_NTSC_M 1000304c     strmiids:strmguid.obj
 0001:0000205c       MEDIASUBTYPE_AnalogVideo_PAL_B 1000305c     strmiids:strmguid.obj
 0001:0000206c       MEDIASUBTYPE_AnalogVideo_PAL_D 1000306c     strmiids:strmguid.obj
 0001:0000207c       MEDIASUBTYPE_AnalogVideo_PAL_G 1000307c     strmiids:strmguid.obj
 0001:0000208c       MEDIASUBTYPE_AnalogVideo_PAL_H 1000308c     strmiids:strmguid.obj
 0001:0000209c       MEDIASUBTYPE_AnalogVideo_PAL_I 1000309c     strmiids:strmguid.obj
 0001:000020ac       MEDIASUBTYPE_AnalogVideo_PAL_M 100030ac     strmiids:strmguid.obj
 0001:000020bc       MEDIASUBTYPE_AnalogVideo_PAL_N 100030bc     strmiids:strmguid.obj
 0001:000020cc       MEDIASUBTYPE_AnalogVideo_SECAM_B 100030cc     strmiids:strmguid.obj
 0001:000020dc       MEDIASUBTYPE_AnalogVideo_SECAM_D 100030dc     strmiids:strmguid.obj
 0001:000020ec       MEDIASUBTYPE_AnalogVideo_SECAM_G 100030ec     strmiids:strmguid.obj
 0001:000020fc       MEDIASUBTYPE_AnalogVideo_SECAM_H 100030fc     strmiids:strmguid.obj
 0001:0000210c       MEDIASUBTYPE_AnalogVideo_SECAM_K 1000310c     strmiids:strmguid.obj
 0001:0000211c       MEDIASUBTYPE_AnalogVideo_SECAM_K1 1000311c     strmiids:strmguid.obj
 0001:0000212c       MEDIASUBTYPE_AnalogVideo_SECAM_L 1000312c     strmiids:strmguid.obj
 0001:0000213c       MEDIATYPE_AnalogAudio      1000313c     strmiids:strmguid.obj
 0001:0000214c       MEDIATYPE_MPEG2_PACK       1000314c     strmiids:strmguid.obj
 0001:0000215c       MEDIATYPE_MPEG2_PES        1000315c     strmiids:strmguid.obj
 0001:0000216c       MEDIASUBTYPE_MPEG2_VIDEO   1000316c     strmiids:strmguid.obj
 0001:0000217c       FORMAT_MPEG2_VIDEO         1000317c     strmiids:strmguid.obj
 0001:0000218c       FORMAT_VIDEOINFO2          1000318c     strmiids:strmguid.obj
 0001:0000219c       MEDIASUBTYPE_MPEG2_PROGRAM 1000319c     strmiids:strmguid.obj
 0001:000021ac       MEDIASUBTYPE_MPEG2_TRANSPORT 100031ac     strmiids:strmguid.obj
 0001:000021bc       MEDIASUBTYPE_MPEG2_AUDIO   100031bc     strmiids:strmguid.obj
 0001:000021cc       MEDIASUBTYPE_DOLBY_AC3     100031cc     strmiids:strmguid.obj
 0001:000021dc       MEDIASUBTYPE_DVD_SUBPICTURE 100031dc     strmiids:strmguid.obj
 0001:000021ec       MEDIASUBTYPE_DVD_LPCM_AUDIO 100031ec     strmiids:strmguid.obj
 0001:000021fc       MEDIATYPE_DVD_ENCRYPTED_PACK 100031fc     strmiids:strmguid.obj
 0001:0000220c       MEDIATYPE_DVD_NAVIGATION   1000320c     strmiids:strmguid.obj
 0001:0000221c       MEDIASUBTYPE_DVD_NAVIGATION_PCI 1000321c     strmiids:strmguid.obj
 0001:0000222c       MEDIASUBTYPE_DVD_NAVIGATION_DSI 1000322c     strmiids:strmguid.obj
 0001:0000223c       MEDIASUBTYPE_DVD_NAVIGATION_PROVIDER 1000323c     strmiids:strmguid.obj
 0001:0000224c       FORMAT_MPEG2Video          1000324c     strmiids:strmguid.obj
 0001:0000225c       FORMAT_DolbyAC3            1000325c     strmiids:strmguid.obj
 0001:0000226c       FORMAT_MPEG2Audio          1000326c     strmiids:strmguid.obj
 0001:0000227c       FORMAT_DVD_LPCMAudio       1000327c     strmiids:strmguid.obj
 0001:0000228c       AM_KSPROPSETID_AC3         1000328c     strmiids:strmguid.obj
 0001:0000229c       AM_KSPROPSETID_DvdSubPic   1000329c     strmiids:strmguid.obj
 0001:000022ac       AM_KSPROPSETID_CopyProt    100032ac     strmiids:strmguid.obj
 0001:000022bc       AM_KSPROPSETID_TSRateChange 100032bc     strmiids:strmguid.obj
 0001:000022cc       AM_KSPROPSETID_RendererPosition 100032cc     strmiids:strmguid.obj
 0001:000022dc       AM_KSCATEGORY_CAPTURE      100032dc     strmiids:strmguid.obj
 0001:000022ec       AM_KSCATEGORY_RENDER       100032ec     strmiids:strmguid.obj
 0001:000022fc       AM_KSCATEGORY_DATACOMPRESSOR 100032fc     strmiids:strmguid.obj
 0001:0000230c       AM_KSCATEGORY_AUDIO        1000330c     strmiids:strmguid.obj
 0001:0000231c       AM_KSCATEGORY_VIDEO        1000331c     strmiids:strmguid.obj
 0001:0000232c       AM_KSCATEGORY_TVTUNER      1000332c     strmiids:strmguid.obj
 0001:0000233c       AM_KSCATEGORY_CROSSBAR     1000333c     strmiids:strmguid.obj
 0001:0000234c       AM_KSCATEGORY_TVAUDIO      1000334c     strmiids:strmguid.obj
 0001:0000235c       AM_KSCATEGORY_VBICODEC     1000335c     strmiids:strmguid.obj
 0001:0000236c       AM_KSCATEGORY_SPLITTER     1000336c     strmiids:strmguid.obj
 0001:0000237c       IID_IKsInterfaceHandler    1000337c     strmiids:strmguid.obj
 0001:0000238c       IID_IKsDataTypeHandler     1000338c     strmiids:strmguid.obj
 0001:0000239c       IID_IKsPin                 1000339c     strmiids:strmguid.obj
 0001:000023ac       IID_IKsControl             100033ac     strmiids:strmguid.obj
 0001:000023bc       IID_IKsPinFactory          100033bc     strmiids:strmguid.obj
 0001:000023cc       AM_INTERFACESETID_Standard 100033cc     strmiids:strmguid.obj
 0001:000023dc       TIME_FORMAT_NONE           100033dc     strmiids:strmguid.obj
 0001:000023ec       TIME_FORMAT_FRAME          100033ec     strmiids:strmguid.obj
 0001:000023fc       TIME_FORMAT_BYTE           100033fc     strmiids:strmguid.obj
 0001:0000240c       TIME_FORMAT_SAMPLE         1000340c     strmiids:strmguid.obj
 0001:0000241c       TIME_FORMAT_FIELD          1000341c     strmiids:strmguid.obj
 0001:0000242c       TIME_FORMAT_MEDIA_TIME     1000342c     strmiids:strmguid.obj
 0001:0000243c       AMPROPSETID_Pin            1000343c     strmiids:strmguid.obj
 0001:0000244c       PIN_CATEGORY_CAPTURE       1000344c     strmiids:strmguid.obj
 0001:0000245c       PIN_CATEGORY_PREVIEW       1000345c     strmiids:strmguid.obj
 0001:0000246c       PIN_CATEGORY_ANALOGVIDEOIN 1000346c     strmiids:strmguid.obj
 0001:0000247c       PIN_CATEGORY_VBI           1000347c     strmiids:strmguid.obj
 0001:0000248c       PIN_CATEGORY_VIDEOPORT     1000348c     strmiids:strmguid.obj
 0001:0000249c       PIN_CATEGORY_NABTS         1000349c     strmiids:strmguid.obj
 0001:000024ac       PIN_CATEGORY_EDS           100034ac     strmiids:strmguid.obj
 0001:000024bc       PIN_CATEGORY_TELETEXT      100034bc     strmiids:strmguid.obj
 0001:000024cc       PIN_CATEGORY_CC            100034cc     strmiids:strmguid.obj
 0001:000024dc       PIN_CATEGORY_STILL         100034dc     strmiids:strmguid.obj
 0001:000024ec       PIN_CATEGORY_TIMECODE      100034ec     strmiids:strmguid.obj
 0001:000024fc       PIN_CATEGORY_VIDEOPORT_VBI 100034fc     strmiids:strmguid.obj
 0001:0000250c       LOOK_UPSTREAM_ONLY         1000350c     strmiids:strmguid.obj
 0001:0000251c       LOOK_DOWNSTREAM_ONLY       1000351c     strmiids:strmguid.obj
 0001:0000252c       CLSID_TVTunerFilterPropertyPage 1000352c     strmiids:strmguid.obj
 0001:0000253c       CLSID_CrossbarFilterPropertyPage 1000353c     strmiids:strmguid.obj
 0001:0000254c       CLSID_TVAudioFilterPropertyPage 1000354c     strmiids:strmguid.obj
 0001:0000255c       CLSID_VideoProcAmpPropertyPage 1000355c     strmiids:strmguid.obj
 0001:0000256c       CLSID_CameraControlPropertyPage 1000356c     strmiids:strmguid.obj
 0001:0000257c       CLSID_AnalogVideoDecoderPropertyPage 1000357c     strmiids:strmguid.obj
 0001:0000258c       CLSID_VideoStreamConfigPropertyPage 1000358c     strmiids:strmguid.obj
 0001:0000259c       IID_IIPDVDec               1000359c     strmiids:strmguid.obj
 0001:000025ac       CLSID_OverlayMixer2        100035ac     strmiids:strmguid.obj
 0001:000025bc       CLSID_ScriptCommandRenderer 100035bc     strmiids:strmguid.obj
 0001:000025cc       IID_IScriptCommandRenderer 100035cc     strmiids:strmguid.obj
 0001:000025dc       CLSID_FileRend             100035dc     strmiids:strmguid.obj
 0001:000025ec       CLSID_MultFile             100035ec     strmiids:strmguid.obj
 0001:000025fc       CLSID_ASFWriter            100035fc     strmiids:strmguid.obj
 0001:0000260c       CLSID_IMGSinkFilter        1000360c     strmiids:strmguid.obj
 0001:0000261c       AM_KSPROPSETID_FrameStep   1000361c     strmiids:strmguid.obj
 0001:0000262c       IID_IAMOpenProgress        1000362c     strmiids:strmguid.obj
 0001:0000263c       LIBID_QuartzNetTypeLib     1000363c     strmiids:strmguid.obj
 0001:0000264c       IID_IAMNetShowConfig       1000364c     strmiids:strmguid.obj
 0001:0000265c       IID_IAMChannelInfo         1000365c     strmiids:strmguid.obj
 0001:0000266c       IID_IAMNetworkStatus       1000366c     strmiids:strmguid.obj
 0001:0000267c       IID_IAMExtendedSeeking     1000367c     strmiids:strmguid.obj
 0001:0000268c       IID_IAMNetShowExProps      1000368c     strmiids:strmguid.obj
 0001:0000269c       IID_IAMExtendedErrorInfo   1000369c     strmiids:strmguid.obj
 0001:000026ac       IID_IAMMediaContent        100036ac     strmiids:strmguid.obj
 0001:000026bc       IID_IAMMediaContent2       100036bc     strmiids:strmguid.obj
 0001:000026cc       IID_IAMMediaContentEx      100036cc     strmiids:strmguid.obj
 0001:000026dc       IID_IAMNetShowPreroll      100036dc     strmiids:strmguid.obj
 0001:000026ec       IID_IDShowPlugin           100036ec     strmiids:strmguid.obj
 0001:000026fc       IID_IAMSecureMediaContent  100036fc     strmiids:strmguid.obj
 0001:0000270c       GUID_NULL                  1000370c     uuid:cguid_i_guid0.obj
 0001:0000271c       IID_IUnknown               1000371c     uuid:unknwn_i_guid0.obj
 0001:0000272c       IID_IPersist               1000372c     uuid:objidl_i_guid11.obj
 0001:0000273c       IID_IClassFactory          1000373c     uuid:unknwn_i_guid1.obj
 0001:0000274c       ??_C@_04NPKLNGDP@hint?$AA@ 1000374c     libmp4v2:mp4.obj
 0001:00002754       ??_C@_04LFAPDBEK@sdsm?$AA@ 10003754     libmp4v2:mp4.obj
 0001:0000275c       ??_C@_04BABPELMJ@odsm?$AA@ 1000375c     libmp4v2:mp4.obj
 0001:00002764       ??_C@_04EHKNILFL@isom?$AA@ 10003764     libmp4v2:mp4file.obj
 0001:0000276c       ??_C@_04PNFCACLP@mp42?$AA@ 1000376c     libmp4v2:mp4file.obj
 0001:00002774       ??_C@_0N@PFKNHKOI@MP4Array?3?3?$FL?$FN?$AA@ 10003774     libmp4v2:mp4file.obj
 0001:00002784       ??_C@_0P@OOGGJHOL@index?5?$CFu?5of?5?$CFu?$AA@ 10003784     libmp4v2:mp4file.obj
 0001:00002794       ??_C@_0BB@EANACFGA@MP4Array?3?3Insert?$AA@ 10003794     libmp4v2:mp4file.obj
 0001:000027a8       ??_C@_0BB@POCEOLJC@MP4Array?3?3Delete?$AA@ 100037a8     libmp4v2:mp4file.obj
 0001:000027bc       ??_C@_0BG@EBEPIBCJ@property?5is?5read?9only?$AA@ 100037bc     libmp4v2:mp4file.obj
 0001:000027d4       ??_C@_06ODACHPEO@failed?$AA@ 100037d4     libmp4v2:mp4file.obj
 0001:000027dc       ??_C@_07JAIFHLEA@MP4Open?$AA@ 100037dc     libmp4v2:mp4file.obj
 0001:000027e4       ??_C@_09HMDBELEC@?6?$FL?$CFs?$FN?5?5?$CFs?$AA@ 100037e4     libmp4v2:mp4file.obj
 0001:000027f0       ??_C@_04LIAPHEDB@free?$AA@ 100037f0     libmp4v2:mp4file.obj
 0001:000027f5       ??_C@_00CNPNBAHC@?$AA@     100037f5     libmp4v2:mp4file.obj
 0001:000027f8       ??_C@_0BJ@EMPIDLDI@type?5mismatch?5?9?5property?$AA@ 100037f8     libmp4v2:mp4file.obj
 0001:00002814       ??_C@_0BB@KFAHBAEJ@no?5such?5property?$AA@ 10003814     libmp4v2:mp4file.obj
 0001:00002828       ??_C@_0BN@NOBDBIAN@MP4File?3?3FindIntegerProperty?$AA@ 10003828     libmp4v2:mp4file.obj
 0001:00002848       ??_C@_0P@GMFOICML@?6?$FL?$CFs?$FN?5?5?$CFs?5?9?5?$CFs?$AA@ 10003848     libmp4v2:mp4file.obj
 0001:00002858       ??_C@_0BL@HHJKIGIH@MP4File?3?3FindBytesProperty?$AA@ 10003858     libmp4v2:mp4file.obj
 0001:00002874       ??_C@_02EGCJHIOB@id?$AA@   10003874     libmp4v2:mp4file.obj
 0001:00002878       ??_C@_0L@IHEKEDEO@entryCount?$AA@ 10003878     libmp4v2:mp4file.obj
 0001:00002884       ??_C@_04LPONJHON@ftyp?$AA@ 10003884     libmp4v2:mp4file.obj
 0001:0000288c       ??_C@_0BK@HCJDMECJ@Track?5id?5?$CFd?5doesn?8t?5exist?$AA@ 1000388c     libmp4v2:mp4file.obj
 0001:000028a8       ??_C@_0P@IIBKHLCN@FindTrackIndex?$AA@ 100038a8     libmp4v2:mp4file.obj
 0001:000028b8       ??_C@_0P@GJNNAGFN@?6?$FL?$CFs?$FN?5?5?$CFs?5?9?5?$CFd?$AA@ 100038b8     libmp4v2:mp4file.obj
 0001:000028c8       ??_C@_0BH@LEMDKOOF@Track?5id?5doesn?8t?5exist?$AA@ 100038c8     libmp4v2:mp4file.obj
 0001:000028e0       ??_C@_0BC@OHLMKBOG@FindTrakAtomIndex?$AA@ 100038e0     libmp4v2:mp4file.obj
 0001:000028f4       ??_C@_0O@KIONLKAD@moov?4trak?$FL?$CFu?$FN?$AA@ 100038f4     libmp4v2:mp4file.obj
 0001:00002904       ??_C@_0BB@LIKOBADF@moov?4trak?$FL?$CFu?$FN?4?$CFs?$AA@ 10003904     libmp4v2:mp4file.obj
 0001:00002918       ??_C@_0CO@MOLOBHGF@track?5?$CFd?5has?5more?5than?51?5child?5a@ 10003918     libmp4v2:mp4file.obj
 0001:00002948       ??_C@_0BE@BCMAKEEG@mdia?4minf?4stbl?4stsd?$AA@ 10003948     libmp4v2:mp4file.obj
 0001:0000295c       ??_C@_0BD@LALMCPGN@mdia?4mdhd?4duration?$AA@ 1000395c     libmp4v2:mp4file.obj
 0001:00002970       ??_C@_0DJ@JDFFMCCI@mdia?4minf?4stbl?4stsd?4?$CK?4?$CK?4esds?4dec@ 10003970     libmp4v2:mp4file.obj
 0001:000029ac       ??_C@_0DH@HNKOEJOM@mdia?4minf?4stbl?4stsd?4?$CK?4esds?4decCo@ 100039ac     libmp4v2:mp4file.obj
 0001:000029e8       ??_C@_0EH@KCHEJPDF@mdia?4minf?4stbl?4stsd?4?$CK?$FL0?$FN?4?$CK?4esds?4@ 100039e8     libmp4v2:mp4file.obj
 0001:00002a30       ??_C@_0EF@KIGGNDIN@mdia?4minf?4stbl?4stsd?4?$CK?$FL0?$FN?4esds?4de@ 10003a30     libmp4v2:mp4file.obj
 0001:00002a78       ??_C@_0DB@JPGMIHON@mdia?4minf?4stbl?4stsd?4?$CK?$FL0?$FN?4avcC?4le@ 10003a78     libmp4v2:mp4file.obj
 0001:00002aac       ??_C@_0CP@NDMDJKIL@avcC?4pictureEntries?4pictureParam@ 10003aac     libmp4v2:mp4file.obj
 0001:00002adc       ??_C@_0CO@KACNMIOC@avcC?4pictureEntries?4pictureParam@ 10003adc     libmp4v2:mp4file.obj
 0001:00002b0c       ??_C@_0BP@GCFJNJGL@avcC?4numOfPictureParameterSets?$AA@ 10003b0c     libmp4v2:mp4file.obj
 0001:00002b2c       ??_C@_0DB@FGKPIKKP@avcC?4sequenceEntries?4sequencePar@ 10003b2c     libmp4v2:mp4file.obj
 0001:00002b60       ??_C@_0DA@KJANDELA@avcC?4sequenceEntries?4sequencePar@ 10003b60     libmp4v2:mp4file.obj
 0001:00002b90       ??_C@_0BO@NPGILKON@mdia?4minf?4stbl?4stsd?4avc1?4avcC?$AA@ 10003b90     libmp4v2:mp4file.obj
 0001:00002bb0       ??_C@_0CA@NGCFBHCO@avcC?4numOfSequenceParameterSets?$AA@ 10003bb0     libmp4v2:mp4file.obj
 0001:00002bd0       ??_C@_09HEIHLBDJ@mediaTime?$AA@ 10003bd0     libmp4v2:mp4file.obj
 0001:00002bdc       ??_C@_0BA@FEHFLAJE@segmentDuration?$AA@ 10003bdc     libmp4v2:mp4file.obj
 0001:00002bec       ??_C@_09CNIEPEIJ@mediaRate?$AA@ 10003bec     libmp4v2:mp4file.obj
 0001:00002bf8       ??_C@_0CF@BLJADCPO@Warning?3?5multiple?5OD?5tracks?5pres@ 10003bf8     libmp4v2:mp4file.obj
 0001:00002c20       ??_C@_0BC@GADPEMKN@trak?4tkhd?4trackId?$AA@ 10003c20     libmp4v2:mp4file.obj
 0001:00002c34       ??_C@_0BL@OBBKGDO@trak?4mdia?4hdlr?4handlerType?$AA@ 10003c34     libmp4v2:mp4file.obj
 0001:00002c50       ??_C@_0BL@NFFIDCHP@moov?4mvhd?4modificationTime?$AA@ 10003c50     libmp4v2:mp4file.obj
 0001:00002c6c       ??_C@_0BE@LAGBLNBN@moov?4mvhd?4timeScale?$AA@ 10003c6c     libmp4v2:mp4file.obj
 0001:00002c80       ??_C@_0BD@CFNKDOHB@moov?4mvhd?4duration?$AA@ 10003c80     libmp4v2:mp4file.obj
 0001:00002c94       ??_C@_04BNJABJKM@url?5?$AA@ 10003c94     libmp4v2:mp4file.obj
 0001:00002c9c       ??_C@_0CD@OKNEPNBB@mdia?4minf?4stbl?4stsd?4?$CK?4damr?4modeS@ 10003c9c     libmp4v2:mp4file.obj
 0001:00002cc0       ??_C@_04BNEAOCG@moov?$AA@  10003cc0     libmp4v2:mp4file.obj
 0001:00002cc8       ??_C@_0BJ@IOKNPBFM@trak?4mdia?4mdhd?4timeScale?$AA@ 10003cc8     libmp4v2:mp4file.obj
 0001:00002ce4       ??_C@_04DLKFDFIB@trak?$AA@ 10003ce4     libmp4v2:mp4file.obj
 0001:00002cec       ??_C@_04JBMGNKCL@nmhd?$AA@ 10003cec     libmp4v2:mp4file.obj
 0001:00002cf4       ??_C@_04BEDAHMPL@mp4s?$AA@ 10003cf4     libmp4v2:mp4file.obj
 0001:00002cfc       ??_C@_04CEAHFGL@sawb?$AA@  10003cfc     libmp4v2:mp4file.obj
 0001:00002d04       ??_C@_04JLGIJBI@smhd?$AA@  10003d04     libmp4v2:mp4file.obj
 0001:00002d0c       ??_C@_04DIKLEFGC@schm?$AA@ 10003d0c     libmp4v2:mp4file.obj
 0001:00002d14       ??_C@_04FMMHIAGG@schi?$AA@ 10003d14     libmp4v2:mp4file.obj
 0001:00002d1c       ??_C@_04IDONCOG@iKMS?$AA@  10003d1c     libmp4v2:mp4file.obj
 0001:00002d24       ??_C@_04EFIHHNKI@iSFM?$AA@ 10003d24     libmp4v2:mp4file.obj
 0001:00002d2c       ??_C@_04IFIBFPHA@enca?$AA@ 10003d2c     libmp4v2:mp4file.obj
 0001:00002d34       ??_C@_04KGAGGBGI@cntl?$AA@ 10003d34     libmp4v2:mp4file.obj
 0001:00002d3c       ??_C@_04CMBCJJJD@href?$AA@ 10003d3c     libmp4v2:mp4file.obj
 0001:00002d44       ??_C@_04MBFGAGGI@vmhd?$AA@ 10003d44     libmp4v2:mp4file.obj
 0001:00002d4c       ??_C@_04IAACNLOG@encv?$AA@ 10003d4c     libmp4v2:mp4file.obj
 0001:00002d54       ??_C@_04NCPAEPLO@bitr?$AA@ 10003d54     libmp4v2:mp4file.obj
 0001:00002d5c       ??_C@_04BOIGCPIL@hmhd?$AA@ 10003d5c     libmp4v2:mp4file.obj
 0001:00002d64       ??_C@_04JPOHMAHE@rtp?5?$AA@ 10003d64     libmp4v2:mp4file.obj
 0001:00002d6c       ??_C@_02JDPG@rb?$AA@       10003d6c     libmp4v2:mp4file.obj
 0001:00002d70       ??_C@_15JJPIMNBO@?$AAr?$AAb?$AA?$AA@ 10003d70     libmp4v2:mp4file.obj
 0001:00002d78       ??_C@_04IFHGLDEC@iods?$AA@ 10003d78     libmp4v2:mp4file.obj
 0001:00002d80       ??_C@_04OOHNMGKP@mdat?$AA@ 10003d80     libmp4v2:mp4file.obj
 0001:00002d88       ??_C@_04DLBGLKG@skip?$AA@  10003d88     libmp4v2:mp4file.obj
 0001:00002d90       ??_7MP4Track@@6B@          10003d90     libmp4v2:mp4track.obj
 0001:00002d98       ??_C@_0BD@NFBGAMBA@GetSampleStscIndex?$AA@ 10003d98     libmp4v2:mp4track.obj
 0001:00002dac       ??_C@_0BF@ONCFCGFM@No?5data?5chunks?5exist?$AA@ 10003dac     libmp4v2:mp4track.obj
 0001:00002dc4       ??_C@_02CBLDBPFN@?1?1?$AA@ 10003dc4     libmp4v2:mp4track.obj
 0001:00002dc8       ??_C@_05BOPHDICO@file?3?$AA@ 10003dc8     libmp4v2:mp4track.obj
 0001:00002dd0       ??_C@_0P@HNBNPHBN@dref?5url?5?$DN?5?$CFs?6?$AA@ 10003dd0     libmp4v2:mp4track.obj
 0001:00002de0       ??_C@_0L@JJDMNELB@?$CK?4location?$AA@ 10003de0     libmp4v2:mp4track.obj
 0001:00002dec       ??_C@_0BJ@IOIMAOOB@trak?4mdia?4minf?4dinf?4dref?$AA@ 10003dec     libmp4v2:mp4track.obj
 0001:00002e08       ??_C@_0O@DMFACLHJ@GetSampleFile?$AA@ 10003e08     libmp4v2:mp4track.obj
 0001:00002e18       ??_C@_0BD@DAPCBOMJ@invalid?5stsd?5entry?$AA@ 10003e18     libmp4v2:mp4track.obj
 0001:00002e2c       ??_C@_0BJ@DIJINCFJ@trak?4mdia?4minf?4stbl?4stsd?$AA@ 10003e2c     libmp4v2:mp4track.obj
 0001:00002e48       ??_C@_0BF@EAEPAILB@?$CK?4dataReferenceIndex?$AA@ 10003e48     libmp4v2:mp4track.obj
 0001:00002e60       ??_C@_0BJ@BDOEGALA@MP4Track?3?3GetSampleTimes?$AA@ 10003e60     libmp4v2:mp4track.obj
 0001:00002e7c       ??_C@_0BH@EJJDOGEI@sample?5id?5out?5of?5range?$AA@ 10003e7c     libmp4v2:mp4track.obj
 0001:00002e94       ??_C@_0BN@IKFDDJEJ@MP4Track?3?3GetSampleCttsIndex?$AA@ 10003e94     libmp4v2:mp4track.obj
 0001:00002eb4       ??_C@_0BA@FJOGINAL@elst?4entryCount?$AA@ 10003eb4     libmp4v2:mp4track.obj
 0001:00002ec4       ??_C@_0BH@JMIPPDFI@elst?4entries?4mediaTime?$AA@ 10003ec4     libmp4v2:mp4track.obj
 0001:00002edc       ??_C@_0BN@NHKLMOLF@elst?4entries?4segmentDuration?$AA@ 10003edc     libmp4v2:mp4track.obj
 0001:00002efc       ??_C@_0BH@MFIMLGOI@elst?4entries?4mediaRate?$AA@ 10003efc     libmp4v2:mp4track.obj
 0001:00002f14       ??_C@_0BG@OIEMEDEC@elst?4entries?4reserved?$AA@ 10003f14     libmp4v2:mp4track.obj
 0001:00002f2c       ??_C@_0P@DCPJKPEI@trak?4edts?4elst?$AA@ 10003f2c     libmp4v2:mp4track.obj
 0001:00002f3c       ??_C@_0BD@FFCMCD@MP4Track?3?3MP4Track?$AA@ 10003f3c     libmp4v2:mp4track.obj
 0001:00002f50       ??_C@_0O@FOFDKCIE@invalid?5track?$AA@ 10003f50     libmp4v2:mp4track.obj
 0001:00002f60       ??_C@_0CO@HDCKALOC@trak?4mdia?4minf?4stbl?4stss?4entries@ 10003f60     libmp4v2:mp4track.obj
 0001:00002f90       ??_C@_0CE@FEDELBAC@trak?4mdia?4minf?4stbl?4stss?4entryCo@ 10003f90     libmp4v2:mp4track.obj
 0001:00002fb4       ??_C@_0CN@DPBIPHKO@trak?4mdia?4minf?4stbl?4ctts?4entries@ 10003fb4     libmp4v2:mp4track.obj
 0001:00002fe4       ??_C@_0CO@CHKLKAB@trak?4mdia?4minf?4stbl?4ctts?4entries@ 10003fe4     libmp4v2:mp4track.obj
 0001:00003014       ??_C@_0CE@DBPJBLMC@trak?4mdia?4minf?4stbl?4stts?4entryCo@ 10004014     libmp4v2:mp4track.obj
 0001:00003038       ??_C@_0CN@GHAPNAMA@trak?4mdia?4minf?4stbl?4stts?4entries@ 10004038     libmp4v2:mp4track.obj
 0001:00003068       ??_C@_0CN@DLKPCAHO@trak?4mdia?4minf?4stbl?4stts?4entries@ 10004068     libmp4v2:mp4track.obj
 0001:00003098       ??_C@_0CE@NHNOCFFM@trak?4mdia?4minf?4stbl?4ctts?4entryCo@ 10004098     libmp4v2:mp4track.obj
 0001:000030bc       ??_C@_0CE@CNGBLIEC@trak?4mdia?4minf?4stbl?4co64?4entryCo@ 100040bc     libmp4v2:mp4track.obj
 0001:000030e0       ??_C@_0CN@LIMCGINP@trak?4mdia?4minf?4stbl?4co64?4entries@ 100040e0     libmp4v2:mp4track.obj
 0001:00003110       ??_C@_0CN@GJLIJDOH@trak?4mdia?4minf?4stbl?4stco?4entries@ 10004110     libmp4v2:mp4track.obj
 0001:00003140       ??_C@_0BD@KAFFIKIM@trak?4tkhd?4duration?$AA@ 10004140     libmp4v2:mp4track.obj
 0001:00003154       ??_C@_0BI@IHOBKEJG@trak?4mdia?4mdhd?4duration?$AA@ 10004154     libmp4v2:mp4track.obj
 0001:0000316c       ??_C@_0BL@PDOMMBLI@trak?4tkhd?4modificationTime?$AA@ 1000416c     libmp4v2:mp4track.obj
 0001:00003188       ??_C@_0CA@HDKPAMON@trak?4mdia?4mdhd?4modificationTime?$AA@ 10004188     libmp4v2:mp4track.obj
 0001:000031a8       ??_C@_0CE@PEFENNOG@trak?4mdia?4minf?4stbl?4stsz?4sampleS@ 100041a8     libmp4v2:mp4track.obj
 0001:000031cc       ??_C@_0CF@NKGOKHOO@trak?4mdia?4minf?4stbl?4stsz?4sampleC@ 100041cc     libmp4v2:mp4track.obj
 0001:000031f4       ??_C@_0CM@PHCAFLLO@trak?4mdia?4minf?4stbl?4stsz?4entries@ 100041f4     libmp4v2:mp4track.obj
 0001:00003220       ??_C@_0CE@OADDBHNI@trak?4mdia?4minf?4stbl?4stsc?4entryCo@ 10004220     libmp4v2:mp4track.obj
 0001:00003244       ??_C@_0CM@PLDKBCJE@trak?4mdia?4minf?4stbl?4stsc?4entries@ 10004244     libmp4v2:mp4track.obj
 0001:00003270       ??_C@_0DB@LKCPGLCH@trak?4mdia?4minf?4stbl?4stsc?4entries@ 10004270     libmp4v2:mp4track.obj
 0001:000032a4       ??_C@_0DI@LJLNFHFI@trak?4mdia?4minf?4stbl?4stsc?4entries@ 100042a4     libmp4v2:mp4track.obj
 0001:000032dc       ??_C@_0CN@EKNLNFMB@trak?4mdia?4minf?4stbl?4stsc?4entries@ 100042dc     libmp4v2:mp4track.obj
 0001:0000330c       ??_C@_0CE@BMDLJCEP@trak?4mdia?4minf?4stbl?4stco?4entryCo@ 1000430c     libmp4v2:mp4track.obj
 0001:00003330       ??_C@_0EC@KEPDPFEO@WriteChunk?3?5track?5?$CFu?5offset?50x?$CFI@ 10004330     libmp4v2:mp4track.obj
 0001:00003374       ??_C@_0DK@HLGNMNCL@trak?4mdia?4minf?4stbl?4stsd?4?$CK?4esds?4@ 10004374     libmp4v2:mp4track.obj
 0001:000033b0       ??_C@_0DK@MHHMEINN@trak?4mdia?4minf?4stbl?4stsd?4?$CK?4esds?4@ 100043b0     libmp4v2:mp4track.obj
 0001:000033ec       ??_C@_0DM@HBOHAGHB@trak?4mdia?4minf?4stbl?4stsd?4?$CK?4esds?4@ 100043ec     libmp4v2:mp4track.obj
 0001:00003428       ??_C@_04FEPINIAN@ctts?$AA@ 10004428     libmp4v2:mp4track.obj
 0001:00003430       ??_C@_04DBFHFJAK@stss?$AA@ 10004430     libmp4v2:mp4track.obj
 0001:00003438       ??_C@_0BO@LHIALGAP@ReadSample?3?5?5isSyncSample?5?$CFu?6?$AA@ 10004438     libmp4v2:mp4track.obj
 0001:00003458       ??_C@_0CE@KFIFIAGE@ReadSample?3?5?5renderingOffset?5?$CFI6@ 10004458     libmp4v2:mp4track.obj
 0001:0000347c       ??_C@_0CJ@LMOMEOIJ@ReadSample?3?5?5start?5?$CFI64u?5duratio@ 1000447c     libmp4v2:mp4track.obj
 0001:000034a8       ??_C@_0DK@LCBNBOMO@ReadSample?3?5track?5?$CFu?5id?5?$CFu?5offse@ 100044a8     libmp4v2:mp4track.obj
 0001:000034e4       ??_C@_0BL@ECFNAPCN@sample?5buffer?5is?5too?5small?$AA@ 100044e4     libmp4v2:mp4track.obj
 0001:00003500       ??_C@_0CK@DNFJOGJM@sample?5is?5located?5in?5an?5inaccess@ 10004500     libmp4v2:mp4track.obj
 0001:0000352c       ??_C@_0BF@IKAIMEJD@MP4Track?3?3ReadSample?$AA@ 1000452c     libmp4v2:mp4track.obj
 0001:00003544       ??_C@_0BI@FCHHJCOE@sample?5id?5can?8t?5be?5zero?$AA@ 10004544     libmp4v2:mp4track.obj
 0001:00003560       ??_C@_07IOCBFGJI@URLFlag?$AA@ 10004560     libmp4v2:isma.obj
 0001:00003568       ??_C@_03BBJMCFKE@URL?$AA@  10004568     libmp4v2:isma.obj
 0001:0000356c       ??_C@_04JLCIEDNJ@ESID?$AA@ 1000456c     libmp4v2:isma.obj
 0001:00003574       ??_C@_0BD@BENLGGEP@objectDescriptorId?$AA@ 10004574     libmp4v2:isma.obj
 0001:00003588       ??_C@_05FKGAENE@esIds?$AA@ 10004588     libmp4v2:isma.obj
 0001:00003590       ??_C@_08KECFNPOL@refIndex?$AA@ 10004590     libmp4v2:isma.obj
 0001:0000359c       ??_C@_0BE@MGLIKDK@audioProfileLevelId?$AA@ 1000459c     libmp4v2:isma.obj
 0001:000035b0       ??_C@_0BF@JCGEGHAL@visualProfileLevelId?$AA@ 100045b0     libmp4v2:isma.obj
 0001:000035c8       ??_C@_0BB@OOGGMNLJ@ODProfileLevelId?$AA@ 100045c8     libmp4v2:isma.obj
 0001:000035dc       ??_C@_0BE@JDIOBHAM@sceneProfileLevelId?$AA@ 100045dc     libmp4v2:isma.obj
 0001:000035f0       ??_C@_0BH@BIEHKHDF@graphicsProfileLevelId?$AA@ 100045f0     libmp4v2:isma.obj
 0001:00003608       ??_C@_03DCFNIELN@?$CF?$CKc?$AA@ 10004608     libmp4v2:mp4util.obj
 0001:0000360c       ??_C@_01EEMJAFIK@?6?$AA@   1000460c     libmp4v2:mp4util.obj
 0001:00003610       ??_C@_05CNDJFPDP@?$CF02x?5?$AA@ 10004610     libmp4v2:mp4util.obj
 0001:00003618       ??_C@_02GLFAOOJA@?$FL?4?$AA@ 10004618     libmp4v2:mp4util.obj
 0001:0000361c       ??_C@_02GMHACPFF@?$CFu?$AA@ 1000461c     libmp4v2:mp4util.obj
 0001:00003620       ??_C@_0P@JGCDAGDG@MP4ConvertTime?$AA@ 10004620     libmp4v2:mp4util.obj
 0001:00003630       ??_C@_0BB@OMEBCKB@division?5by?5zero?$AA@ 10004630     libmp4v2:mp4util.obj
 0001:00003644       ??_C@_0CH@DMNMOIMK@Attempt?5to?5normalize?5?$CFs?5did?5not?5@ 10004644     libmp4v2:mp4util.obj
 0001:0000366c       ??_C@_02ECKEAEFD@od?$AA@   1000466c     libmp4v2:mp4util.obj
 0001:00003670       ??_C@_04NEEJAJOB@bifs?$AA@ 10004670     libmp4v2:mp4util.obj
 0001:00003678       ??_C@_05ELCCFCFH@scene?$AA@ 10004678     libmp4v2:mp4util.obj
 0001:00003680       ??_C@_05KNIAAKIP@audio?$AA@ 10004680     libmp4v2:mp4util.obj
 0001:00003688       ??_C@_05MHNANJII@sound?$AA@ 10004688     libmp4v2:mp4util.obj
 0001:00003690       ??_C@_05BPFJLLEL@video?$AA@ 10004690     libmp4v2:mp4util.obj
 0001:00003698       ??_C@_08KEPHKCPD@SynthPop?$AA@ 10004698     libmp4v2:mp4meta.obj
 0001:000036a4       ??_C@_04IMCHLCED@JPop?$AA@ 100046a4     libmp4v2:mp4meta.obj
 0001:000036ac       ??_C@_05LCJADBKB@Anime?$AA@ 100046ac     libmp4v2:mp4meta.obj
 0001:000036b4       ??_C@_0N@MAEFEGK@Thrash?5Metal?$AA@ 100046b4     libmp4v2:mp4meta.obj
 0001:000036c4       ??_C@_05DLNELOKM@Salsa?$AA@ 100046c4     libmp4v2:mp4meta.obj
 0001:000036cc       ??_C@_08EHKNMNPK@Merengue?$AA@ 100046cc     libmp4v2:mp4meta.obj
 0001:000036d8       ??_C@_0P@GGLFOLPK@Christian?5Rock?$AA@ 100046d8     libmp4v2:mp4meta.obj
 0001:000036e8       ??_C@_0P@MICLGFLM@Contemporary?5C?$AA@ 100046e8     libmp4v2:mp4meta.obj
 0001:000036f8       ??_C@_09OIHDMKNE@Crossover?$AA@ 100046f8     libmp4v2:mp4meta.obj
 0001:00003704       ??_C@_0M@JNFPBAKG@Black?5Metal?$AA@ 10004704     libmp4v2:mp4meta.obj
 0001:00003710       ??_C@_0M@NEOMPHCK@Heavy?5Metal?$AA@ 10004710     libmp4v2:mp4meta.obj
 0001:0000371c       ??_C@_0BC@PFEMLEJB@Christian?5Gangsta?$AA@ 1000471c     libmp4v2:mp4meta.obj
 0001:00003730       ??_C@_04BFFABJBP@Beat?$AA@ 10004730     libmp4v2:mp4meta.obj
 0001:00003738       ??_C@_0L@HKANPOAD@Polsk?5Punk?$AA@ 10004738     libmp4v2:mp4meta.obj
 0001:00003744       ??_C@_09GPAKMJHI@NegerPunk?$AA@ 10004744     libmp4v2:mp4meta.obj
 0001:00003750       ??_C@_07OICMGNA@BritPop?$AA@ 10004750     libmp4v2:mp4meta.obj
 0001:00003758       ??_C@_05KLKAMDMN@Indie?$AA@ 10004758     libmp4v2:mp4meta.obj
 0001:00003760       ??_C@_06PBJGDPBN@Terror?$AA@ 10004760     libmp4v2:mp4meta.obj
 0001:00003768       ??_C@_08HKEHKPDB@Hardcore?$AA@ 10004768     libmp4v2:mp4meta.obj
 0001:00003774       ??_C@_0L@BNPLLMBL@Club?5House?$AA@ 10004774     libmp4v2:mp4meta.obj
 0001:00003780       ??_C@_0M@NPGHKLH@Drum?5?$CG?5Bass?$AA@ 10004780     libmp4v2:mp4meta.obj
 0001:0000378c       ??_C@_03OHBFJGJM@Goa?$AA@  1000478c     libmp4v2:mp4meta.obj
 0001:00003790       ??_C@_0L@LLLHEFCL@Dance?5Hall?$AA@ 10004790     libmp4v2:mp4meta.obj
 0001:0000379c       ??_C@_0L@LAEGMFKC@Euro?9House?$AA@ 1000479c     libmp4v2:mp4meta.obj
 0001:000037a8       ??_C@_09IKHCEMFI@A?5capella?$AA@ 100047a8     libmp4v2:mp4meta.obj
 0001:000037b4       ??_C@_09ODFCHLIF@Drum?5Solo?$AA@ 100047b4     libmp4v2:mp4meta.obj
 0001:000037c0       ??_C@_09LJCHIEBA@Punk?5Rock?$AA@ 100047c0     libmp4v2:mp4meta.obj
 0001:000037cc       ??_C@_04MNAABDPM@Duet?$AA@ 100047cc     libmp4v2:mp4meta.obj
 0001:000037d4       ??_C@_09NOJFLNHA@Freestyle?$AA@ 100047d4     libmp4v2:mp4meta.obj
 0001:000037e0       ??_C@_0O@NBAHAMNI@Rhythmic?5Soul?$AA@ 100047e0     libmp4v2:mp4meta.obj
 0001:000037f0       ??_C@_0N@BBLJBJNI@Power?5Ballad?$AA@ 100047f0     libmp4v2:mp4meta.obj
 0001:00003800       ??_C@_06BHBJEFGN@Ballad?$AA@ 10004800     libmp4v2:mp4meta.obj
 0001:00003808       ??_C@_08ODOIKEAG@Folklore?$AA@ 10004808     libmp4v2:mp4meta.obj
 0001:00003814       ??_C@_05JOIMBAIO@Samba?$AA@ 10004814     libmp4v2:mp4meta.obj
 0001:0000381c       ??_C@_05JHEGALN@Tango?$AA@ 1000481c     libmp4v2:mp4meta.obj
 0001:00003824       ??_C@_04FCIPMBFO@Club?$AA@ 10004824     libmp4v2:mp4meta.obj
 0001:0000382c       ??_C@_08BCJKABMD@Slow?5Jam?$AA@ 1000482c     libmp4v2:mp4meta.obj
 0001:00003838       ??_C@_06LGIFNCAO@Satire?$AA@ 10004838     libmp4v2:mp4meta.obj
 0001:00003840       ??_C@_0M@BDIBAHFD@Porn?5Groove?$AA@ 10004840     libmp4v2:mp4meta.obj
 0001:0000384c       ??_C@_06MOKNPJA@Primus?$AA@ 1000484c     libmp4v2:mp4meta.obj
 0001:00003854       ??_C@_0L@BMCAJHGC@Booty?5Bass?$AA@ 10004854     libmp4v2:mp4meta.obj
 0001:00003860       ??_C@_08HGMGMDPB@Symphony?$AA@ 10004860     libmp4v2:mp4meta.obj
 0001:0000386c       ??_C@_06DIKKNAE@Sonata?$AA@ 1000486c     libmp4v2:mp4meta.obj
 0001:00003874       ??_C@_0O@HPFNKIBK@Chamber?5Music?$AA@ 10004874     libmp4v2:mp4meta.obj
 0001:00003884       ??_C@_05GOIKOHMD@Opera?$AA@ 10004884     libmp4v2:mp4meta.obj
 0001:0000388c       ??_C@_07KBEDDHIP@Chanson?$AA@ 1000488c     libmp4v2:mp4meta.obj
 0001:00003894       ??_C@_06MBBDLFLA@Speech?$AA@ 10004894     libmp4v2:mp4meta.obj
 0001:0000389c       ??_C@_06DEMGCIL@Humour?$AA@ 1000489c     libmp4v2:mp4meta.obj
 0001:000038a4       ??_C@_08PLJDJOCM@Acoustic?$AA@ 100048a4     libmp4v2:mp4meta.obj
 0001:000038b0       ??_C@_0P@OGJNDFNF@Easy?5Listening?$AA@ 100048b0     libmp4v2:mp4meta.obj
 0001:000038c0       ??_C@_06HPKLMKFH@Chorus?$AA@ 100048c0     libmp4v2:mp4meta.obj
 0001:000038c8       ??_C@_08INPKNPNL@Big?5Band?$AA@ 100048c8     libmp4v2:mp4meta.obj
 0001:000038d4       ??_C@_09DOKHDNBN@Slow?5Rock?$AA@ 100048d4     libmp4v2:mp4meta.obj
 0001:000038e0       ??_C@_0P@FPGGCDAB@Symphonic?5Rock?$AA@ 100048e0     libmp4v2:mp4meta.obj
 0001:000038f0       ??_C@_0BB@BMPGIMDB@Psychedelic?5Rock?$AA@ 100048f0     libmp4v2:mp4meta.obj
 0001:00003904       ??_C@_0BB@GCFDGKOP@Progressive?5Rock?$AA@ 10004904     libmp4v2:mp4meta.obj
 0001:00003918       ??_C@_0M@IELMFHHK@Gothic?5Rock?$AA@ 10004918     libmp4v2:mp4meta.obj
 0001:00003924       ??_C@_0L@MJHGFLKD@Avantgarde?$AA@ 10004924     libmp4v2:mp4meta.obj
 0001:00003930       ??_C@_09EGIPCOAF@Bluegrass?$AA@ 10004930     libmp4v2:mp4meta.obj
 0001:0000393c       ??_C@_06POAALEMA@Celtic?$AA@ 1000493c     libmp4v2:mp4meta.obj
 0001:00003944       ??_C@_07NDAADGHD@Revival?$AA@ 10004944     libmp4v2:mp4meta.obj
 0001:0000394c       ??_C@_05MKNAELPL@Latin?$AA@ 1000494c     libmp4v2:mp4meta.obj
 0001:00003954       ??_C@_05NIBALHLG@Bebob?$AA@ 10004954     libmp4v2:mp4meta.obj
 0001:0000395c       ??_C@_0M@CEPBINCO@Fast?9Fusion?$AA@ 1000495c     libmp4v2:mp4meta.obj
 0001:00003968       ??_C@_05KBAOLLBJ@Swing?$AA@ 10004968     libmp4v2:mp4meta.obj
 0001:00003970       ??_C@_0O@OLFCHJHJ@National?5Folk?$AA@ 10004970     libmp4v2:mp4meta.obj
 0001:00003980       ??_C@_09BJAKAIPI@Folk?1Rock?$AA@ 10004980     libmp4v2:mp4meta.obj
 0001:0000398c       ??_C@_04EKOPMCHG@Folk?$AA@ 1000498c     libmp4v2:mp4meta.obj
 0001:00003994       ??_C@_09KBCOACPM@Hard?5Rock?$AA@ 10004994     libmp4v2:mp4meta.obj
 0001:000039a0       ??_C@_0M@IIAEDJCA@Rock?5?$CG?5Roll?$AA@ 100049a0     libmp4v2:mp4meta.obj
 0001:000039ac       ??_C@_07CGEPLPCE@Musical?$AA@ 100049ac     libmp4v2:mp4meta.obj
 0001:000039b4       ??_C@_05POEPDAA@Retro?$AA@ 100049b4     libmp4v2:mp4meta.obj
 0001:000039bc       ??_C@_05BAEFIAKL@Polka?$AA@ 100049bc     libmp4v2:mp4meta.obj
 0001:000039c4       ??_C@_09KCHNDMFC@Acid?5Jazz?$AA@ 100049c4     libmp4v2:mp4meta.obj
 0001:000039d0       ??_C@_09BPKAFLAF@Acid?5Punk?$AA@ 100049d0     libmp4v2:mp4meta.obj
 0001:000039dc       ??_C@_06HGLDOOOH@Tribal?$AA@ 100049dc     libmp4v2:mp4meta.obj
 0001:000039e4       ??_C@_05LPLFCCKI@Lo?9Fi?$AA@ 100049e4     libmp4v2:mp4meta.obj
 0001:000039ec       ??_C@_07EFCJIPGP@Trailer?$AA@ 100049ec     libmp4v2:mp4meta.obj
 0001:000039f4       ??_C@_09LJJPFGGK@Showtunes?$AA@ 100049f4     libmp4v2:mp4meta.obj
 0001:00003a00       ??_C@_04LAGCIPCP@Rave?$AA@ 10004a00     libmp4v2:mp4meta.obj
 0001:00003a08       ??_C@_0M@CEHNINAD@Psychadelic?$AA@ 10004a08     libmp4v2:mp4meta.obj
 0001:00003a14       ??_C@_08PIJBHODF@New?5Wave?$AA@ 10004a14     libmp4v2:mp4meta.obj
 0001:00003a20       ??_C@_07DFBJIPEL@Cabaret?$AA@ 10004a20     libmp4v2:mp4meta.obj
 0001:00003a28       ??_C@_0BA@CLMIBMOP@Native?5American?$AA@ 10004a28     libmp4v2:mp4meta.obj
 0001:00003a38       ??_C@_06LDDNPE@Jungle?$AA@ 10004a38     libmp4v2:mp4meta.obj
 0001:00003a40       ??_C@_08DHOPNGPJ@Pop?1Funk?$AA@ 10004a40     libmp4v2:mp4meta.obj
 0001:00003a4c       ??_C@_0O@CMBOEJC@Christian?5Rap?$AA@ 10004a4c     libmp4v2:mp4meta.obj
 0001:00003a5c       ??_C@_06OJGPGEOE@Top?540?$AA@ 10004a5c     libmp4v2:mp4meta.obj
 0001:00003a64       ??_C@_07NLDMPMFM@Gangsta?$AA@ 10004a64     libmp4v2:mp4meta.obj
 0001:00003a6c       ??_C@_04HAPBPEGD@Cult?$AA@ 10004a6c     libmp4v2:mp4meta.obj
 0001:00003a74       ??_C@_06DCKLOHGE@Comedy?$AA@ 10004a74     libmp4v2:mp4meta.obj
 0001:00003a7c       ??_C@_0O@KFCFCIGH@Southern?5Rock?$AA@ 10004a7c     libmp4v2:mp4meta.obj
 0001:00003a8c       ??_C@_05MMFIBGEF@Dream?$AA@ 10004a8c     libmp4v2:mp4meta.obj
 0001:00003a94       ??_C@_09PDIMAOAM@Eurodance?$AA@ 10004a94     libmp4v2:mp4meta.obj
 0001:00003aa0       ??_C@_08EGAHBEGH@Pop?9Folk?$AA@ 10004aa0     libmp4v2:mp4meta.obj
 0001:00003aac       ??_C@_0L@CHKMIMGG@Electronic?$AA@ 10004aac     libmp4v2:mp4meta.obj
 0001:00003ab8       ??_C@_0BC@HKAKJIIF@Techno?9Industrial?$AA@ 10004ab8     libmp4v2:mp4meta.obj
 0001:00003acc       ??_C@_08BPJDAAFN@Darkwave?$AA@ 10004acc     libmp4v2:mp4meta.obj
 0001:00003ad8       ??_C@_06OBILIHNB@Gothic?$AA@ 10004ad8     libmp4v2:mp4meta.obj
 0001:00003ae0       ??_C@_06JPHOEBPP@Ethnic?$AA@ 10004ae0     libmp4v2:mp4meta.obj
 0001:00003ae8       ??_C@_0BC@HBBFDJBD@Instrumental?5Rock?$AA@ 10004ae8     libmp4v2:mp4meta.obj
 0001:00003afc       ??_C@_0BB@LFDKKLIN@Instrumental?5Pop?$AA@ 10004afc     libmp4v2:mp4meta.obj
 0001:00003b10       ??_C@_0L@KJEEODLG@Meditative?$AA@ 10004b10     libmp4v2:mp4meta.obj
 0001:00003b1c       ??_C@_05OMHELODH@Space?$AA@ 10004b1c     libmp4v2:mp4meta.obj
 0001:00003b24       ??_C@_04JJGPMDMB@Punk?$AA@ 10004b24     libmp4v2:mp4meta.obj
 0001:00003b2c       ??_C@_04LOFJNELM@Soul?$AA@ 10004b2c     libmp4v2:mp4meta.obj
 0001:00003b34       ??_C@_04MKNBGPJB@Bass?$AA@ 10004b34     libmp4v2:mp4meta.obj
 0001:00003b3c       ??_C@_0L@NJCGEDAH@AlternRock?$AA@ 10004b3c     libmp4v2:mp4meta.obj
 0001:00003b48       ??_C@_05GIBOCELO@Noise?$AA@ 10004b48     libmp4v2:mp4meta.obj
 0001:00003b50       ??_C@_06EIIEMBBK@Gospel?$AA@ 10004b50     libmp4v2:mp4meta.obj
 0001:00003b58       ??_C@_0L@FEFCBAGD@Sound?5Clip?$AA@ 10004b58     libmp4v2:mp4meta.obj
 0001:00003b64       ??_C@_04IBBNLEM@Game?$AA@  10004b64     libmp4v2:mp4meta.obj
 0001:00003b6c       ??_C@_05KEIICPIE@House?$AA@ 10004b6c     libmp4v2:mp4meta.obj
 0001:00003b74       ??_C@_04DDEKHPPK@Acid?$AA@ 10004b74     libmp4v2:mp4meta.obj
 0001:00003b7c       ??_C@_0N@FJCNDAAI@Instrumental?$AA@ 10004b7c     libmp4v2:mp4meta.obj
 0001:00003b8c       ??_C@_09KCDEIEAL@Classical?$AA@ 10004b8c     libmp4v2:mp4meta.obj
 0001:00003b98       ??_C@_06NOFDHFLJ@Trance?$AA@ 10004b98     libmp4v2:mp4meta.obj
 0001:00003ba0       ??_C@_06FOAOBEBC@Fusion?$AA@ 10004ba0     libmp4v2:mp4meta.obj
 0001:00003ba8       ??_C@_09IJAEMLMO@Jazz?$CLFunk?$AA@ 10004ba8     libmp4v2:mp4meta.obj
 0001:00003bb4       ??_C@_05CGEGIIHL@Vocal?$AA@ 10004bb4     libmp4v2:mp4meta.obj
 0001:00003bbc       ??_C@_08MGHEAHLN@Trip?9Hop?$AA@ 10004bbc     libmp4v2:mp4meta.obj
 0001:00003bc8       ??_C@_07EBHHCJEE@Ambient?$AA@ 10004bc8     libmp4v2:mp4meta.obj
 0001:00003bd0       ??_C@_0M@LPAFHLOI@Euro?9Techno?$AA@ 10004bd0     libmp4v2:mp4meta.obj
 0001:00003bdc       ??_C@_0L@JMHFNCF@Soundtrack?$AA@ 10004bdc     libmp4v2:mp4meta.obj
 0001:00003be8       ??_C@_06DIJHLFMF@Pranks?$AA@ 10004be8     libmp4v2:mp4meta.obj
 0001:00003bf0       ??_C@_0M@EPABKDJI@Death?5Metal?$AA@ 10004bf0     libmp4v2:mp4meta.obj
 0001:00003bfc       ??_C@_03DPGHPOII@Ska?$AA@  10004bfc     libmp4v2:mp4meta.obj
 0001:00003c00       ??_C@_0M@GIKKCPNF@Alternative?$AA@ 10004c00     libmp4v2:mp4meta.obj
 0001:00003c0c       ??_C@_0L@BLDOBJBN@Industrial?$AA@ 10004c0c     libmp4v2:mp4meta.obj
 0001:00003c18       ??_C@_06GNBMDAPP@Techno?$AA@ 10004c18     libmp4v2:mp4meta.obj
 0001:00003c20       ??_C@_04NENDLEAJ@Rock?$AA@ 10004c20     libmp4v2:mp4meta.obj
 0001:00003c28       ??_C@_06FCJMBMOE@Reggae?$AA@ 10004c28     libmp4v2:mp4meta.obj
 0001:00003c30       ??_C@_03NJJFDPCL@Rap?$AA@  10004c30     libmp4v2:mp4meta.obj
 0001:00003c34       ??_C@_03EBDAPABP@R?$CGB?$AA@ 10004c34     libmp4v2:mp4meta.obj
 0001:00003c38       ??_C@_03HJACNKKK@Pop?$AA@  10004c38     libmp4v2:mp4meta.obj
 0001:00003c3c       ??_C@_05BBOGGNLJ@Other?$AA@ 10004c3c     libmp4v2:mp4meta.obj
 0001:00003c44       ??_C@_06MPHEKAMK@Oldies?$AA@ 10004c44     libmp4v2:mp4meta.obj
 0001:00003c4c       ??_C@_07NOBIPMGJ@New?5Age?$AA@ 10004c4c     libmp4v2:mp4meta.obj
 0001:00003c54       ??_C@_05MICJANKE@Metal?$AA@ 10004c54     libmp4v2:mp4meta.obj
 0001:00003c5c       ??_C@_04CELCKEJG@Jazz?$AA@ 10004c5c     libmp4v2:mp4meta.obj
 0001:00003c64       ??_C@_07HOOMJDLF@Hip?9Hop?$AA@ 10004c64     libmp4v2:mp4meta.obj
 0001:00003c6c       ??_C@_06BKAMGKHE@Grunge?$AA@ 10004c6c     libmp4v2:mp4meta.obj
 0001:00003c74       ??_C@_04HGMPKBOD@Funk?$AA@ 10004c74     libmp4v2:mp4meta.obj
 0001:00003c7c       ??_C@_05JPKIAOHJ@Disco?$AA@ 10004c7c     libmp4v2:mp4meta.obj
 0001:00003c84       ??_C@_05PHEECCHA@Dance?$AA@ 10004c84     libmp4v2:mp4meta.obj
 0001:00003c8c       ??_C@_07HAAJMFIA@Country?$AA@ 10004c8c     libmp4v2:mp4meta.obj
 0001:00003c94       ??_C@_0N@HMGLJNH@Classic?5Rock?$AA@ 10004c94     libmp4v2:mp4meta.obj
 0001:00003ca4       ??_C@_05EGIABMCH@Blues?$AA@ 10004ca4     libmp4v2:mp4meta.obj
 0001:00003cac       ??_C@_04ECGLBLOI@?9?9?9?9?$AA@ 10004cac     libmp4v2:mp4meta.obj
 0001:00003cb4       ??_C@_04EKFHHOAL@tmpo?$AA@ 10004cb4     libmp4v2:mp4meta.obj
 0001:00003cbc       ??_C@_04CDOHBOH@cpil?$AA@  10004cbc     libmp4v2:mp4meta.obj
 0001:00003cc4       ??_C@_04GFFMBMI@?$KJnam?$AA@ 10004cc4     libmp4v2:mp4meta.obj
 0001:00003ccc       ??_C@_04KOCEGNOM@?$KJwrt?$AA@ 10004ccc     libmp4v2:mp4meta.obj
 0001:00003cd4       ??_C@_04NBHGFOAC@?$KJalb?$AA@ 10004cd4     libmp4v2:mp4meta.obj
 0001:00003cdc       ??_C@_04NGKNKIND@?$KJART?$AA@ 10004cdc     libmp4v2:mp4meta.obj
 0001:00003ce4       ??_C@_04BFJDJLL@?$KJtoo?$AA@ 10004ce4     libmp4v2:mp4meta.obj
 0001:00003cec       ??_C@_04GGCFEJGJ@?$KJcmt?$AA@ 10004cec     libmp4v2:mp4meta.obj
 0001:00003cf4       ??_C@_04EHEGPGPJ@?$KJday?$AA@ 10004cf4     libmp4v2:mp4meta.obj
 0001:00003cfc       ??_C@_04ELEFEEBC@trkn?$AA@ 10004cfc     libmp4v2:mp4meta.obj
 0001:00003d04       ??_C@_04MDPPAFID@disk?$AA@ 10004d04     libmp4v2:mp4meta.obj
 0001:00003d0c       ??_C@_04FHHJHFFN@?$KJgen?$AA@ 10004d0c     libmp4v2:mp4meta.obj
 0001:00003d14       ??_C@_04IGMJAAFD@gnre?$AA@ 10004d14     libmp4v2:mp4meta.obj
 0001:00003d1c       ??_C@_04MJHPONLM@covr?$AA@ 10004d1c     libmp4v2:mp4meta.obj
 0001:00003d24       ??_7MP4Property@@6B@       10004d24     libmp4v2:mp4property.obj
 0001:00003d4c       ??_C@_0BK@BMBMLHHP@FindProperty?3?5matched?5?$CFs?6?$AA@ 10004d4c     libmp4v2:mp4property.obj
 0001:00003d68       ??_C@_0BC@EEEIMDAK@?$CFs?5?$DN?5?$CFu?5?$CI0x?$CF02x?$CJ?6?$AA@ 10004d68     libmp4v2:mp4property.obj
 0001:00003d7c       ??_C@_0BG@BPFEKNHD@?$CFs?$FL?$CFu?$FN?5?$DN?5?$CFu?5?$CI0x?$CF02x?$CJ?6?$AA@ 10004d7c     libmp4v2:mp4property.obj
 0001:00003d94       ??_C@_0BC@MLAIDGKK@?$CFs?5?$DN?5?$CFu?5?$CI0x?$CF04x?$CJ?6?$AA@ 10004d94     libmp4v2:mp4property.obj
 0001:00003da8       ??_C@_0BG@JABEFIND@?$CFs?$FL?$CFu?$FN?5?$DN?5?$CFu?5?$CI0x?$CF04x?$CJ?6?$AA@ 10004da8     libmp4v2:mp4property.obj
 0001:00003dc0       ??_C@_0BC@LBMIGFMK@?$CFs?5?$DN?5?$CFu?5?$CI0x?$CF06x?$CJ?6?$AA@ 10004dc0     libmp4v2:mp4property.obj
 0001:00003dd4       ??_C@_0BG@OKNEALLD@?$CFs?$FL?$CFu?$FN?5?$DN?5?$CFu?5?$CI0x?$CF06x?$CJ?6?$AA@ 10004dd4     libmp4v2:mp4property.obj
 0001:00003dec       ??_C@_0BC@OPINLKL@?$CFs?5?$DN?5?$CFu?5?$CI0x?$CF08x?$CJ?6?$AA@ 10004dec     libmp4v2:mp4property.obj
 0001:00003e00       ??_C@_0BG@FFOELFNC@?$CFs?$FL?$CFu?$FN?5?$DN?5?$CFu?5?$CI0x?$CF08x?$CJ?6?$AA@ 10004e00     libmp4v2:mp4property.obj
 0001:00003e18       ??_C@_0BJ@PDEHGGND@?$CFs?5?$DN?5?$CFI64u?5?$CI0x?$CF016I64x?$CJ?6?$AA@ 10004e18     libmp4v2:mp4property.obj
 0001:00003e34       ??_C@_0BN@BFFGPCB@?$CFs?$FL?$CFu?$FN?5?$DN?5?$CFI64u?5?$CI0x?$CF016I64x?$CJ?6?$AA@ 10004e34     libmp4v2:mp4property.obj
 0001:00003e54       ??_C@_0CC@DLOMDGGP@?$CFs?5?$DN?5?$CFI64u?5?$CI0x?$CF0?$CKI64x?$CJ?5?$DM?$CFu?5bits?$DO@ 10004e54     libmp4v2:mp4property.obj
 0001:00003e78       ??_C@_0CG@DELIPDKN@?$CFs?$FL?$CFu?$FN?5?$DN?5?$CFI64u?5?$CI0x?$CF0?$CKI64x?$CJ?5?$DM?$CFu?5b@ 10004e78     libmp4v2:mp4property.obj
 0001:00003ea0       ??_C@_08GEIOLIDB@?$CFs?5?$DN?5?$CFf?6?$AA@ 10004ea0     libmp4v2:mp4property.obj
 0001:00003eac       ??_C@_0N@BMDDOCBJ@?$CFs?$FL?$CFu?$FN?5?$DN?5?$CFf?6?$AA@ 10004eac     libmp4v2:mp4property.obj
 0001:00003ebc       ??_7MP4StringProperty@@6B@ 10004ebc     libmp4v2:mp4property.obj
 0001:00003ee4       ??_C@_0L@BJFIGBOG@?$CFs?$CFs?5?$DN?5?$CFs?6?$AA@ 10004ee4     libmp4v2:mp4property.obj
 0001:00003ef0       ??_C@_0M@OAMFODLA@?$CFs?$CFs?5?$DN?5?$CFls?6?$AA@ 10004ef0     libmp4v2:mp4property.obj
 0001:00003efc       ??_C@_04LMNNCAJG@?$FL?$CFu?$FN?$AA@ 10004efc     libmp4v2:mp4property.obj
 0001:00003f04       ??_7MP4BytesProperty@@6B@  10004f04     libmp4v2:mp4property.obj
 0001:00003f2c       ??_C@_0BL@NGDABCMG@MP4BytesProperty?3?3SetValue?$AA@ 10004f2c     libmp4v2:mp4property.obj
 0001:00003f48       ??_C@_0DA@CNNNHEHA@?$CFs?4?$CFs?5value?5size?5?$CFd?5exceeds?5fixe@ 10004f48     libmp4v2:mp4property.obj
 0001:00003f78       ??_C@_0BP@IEADPICA@MP4BytesProperty?3?3SetValueSize?$AA@ 10004f78     libmp4v2:mp4property.obj
 0001:00003f98       ??_C@_0CK@NKDHNPJP@can?8t?5change?5size?5of?5fixed?5sized@ 10004f98     libmp4v2:mp4property.obj
 0001:00003fc4       ??_C@_0P@JDGGEPGN@?5?$DN?5?$DM?$CFu?5bytes?$DO?5?$AA@ 10004fc4     libmp4v2:mp4property.obj
 0001:00003fd4       ??_7MP4TableProperty@@6B@  10004fd4     libmp4v2:mp4property.obj
 0001:00004004       ??_C@_0DD@PKIOJDNA@?$CFs?5?$CFs?5?$CC?$CFs?$CCtable?5entries?5?$CFu?5doesn@ 10005004     libmp4v2:mp4property.obj
 0001:00004038       ??_7MP4DescriptorProperty@@6B@ 10005038     libmp4v2:mp4property.obj
 0001:00004064       ??_C@_03OFAPEBGM@?$CFs?6?$AA@ 10005064     libmp4v2:mp4property.obj
 0001:00004068       ??_C@_07FLMJNLJF@?$CFs?$FL?$CFu?$FN?6?$AA@ 10005068     libmp4v2:mp4property.obj
 0001:000040e4       ??_C@_0DH@FMMCBEAG@Warning?3?5Descriptor?50x?$CF02x?5has?5m@ 100050e4     libmp4v2:mp4property.obj
 0001:0000411c       ??_C@_0CO@OBKAKEIP@Warning?3?5Mandatory?5descriptor?50x@ 1000511c     libmp4v2:mp4property.obj
 0001:0000414c       ??_7MP4Descriptor@@6B@     1000514c     libmp4v2:mp4descriptor.obj
 0001:00004164       ??_C@_0DA@HACGHBPM@ReadDescriptor?3?5tag?50x?$CF02x?5data?5@ 10005164     libmp4v2:mp4descriptor.obj
 0001:00004194       ??_C@_0BP@EPHKKNCF@ReadDescriptor?3?5pos?5?$DN?50x?$CFI64x?6?$AA@ 10005194     libmp4v2:mp4descriptor.obj
 0001:000041b4       ??_C@_0BD@BBNJJKBI@overran?5descriptor?$AA@ 100051b4     libmp4v2:mp4descriptor.obj
 0001:000041c8       ??_C@_0BO@MCOPBJBC@MP4Descriptor?3?3ReadProperties?$AA@ 100051c8     libmp4v2:mp4descriptor.obj
 0001:000041e8       ??_C@_0DF@MDGHCBJI@Overran?5descriptor?0?5tag?5?$CFu?5data?5@ 100051e8     libmp4v2:mp4descriptor.obj
 0001:00004220       ??_C@_06CCIODMLL@Read?3?5?$AA@ 10005220     libmp4v2:mp4descriptor.obj
 0001:00004228       ??_7MP4RtpHintTrack@@6B@   10005228     libmp4v2:rtphint.obj
 0001:00004230       ??_C@_06KLHHMIGM@offset?$AA@ 10005230     libmp4v2:rtphint.obj
 0001:00004238       ??_7MP4Integer8Property@@6B@ 10005238     libmp4v2:rtphint.obj
 0001:00004260       ??_7MP4Integer16Property@@6B@ 10005260     libmp4v2:rtphint.obj
 0001:00004288       ??_7MP4Integer32Property@@6B@ 10005288     libmp4v2:rtphint.obj
 0001:000042b0       ??_7MP4Integer64Property@@6B@ 100052b0     libmp4v2:rtphint.obj
 0001:000042d8       ??_7MP4BitfieldProperty@@6B@ 100052d8     libmp4v2:rtphint.obj
 0001:00004300       ??_C@_08FINKBBAF@reserved?$AA@ 10005300     libmp4v2:rtphint.obj
 0001:0000430c       ??_C@_09IEFJELKO@reserved3?$AA@ 1000530c     libmp4v2:rtphint.obj
 0001:00004318       ??_C@_0P@BDPDOPPG@sequenceNumber?$AA@ 10005318     libmp4v2:rtphint.obj
 0001:00004328       ??_C@_09JNECHKOP@reserved2?$AA@ 10005328     libmp4v2:rtphint.obj
 0001:00004334       ??_C@_09LGGPCJCM@reserved1?$AA@ 10005334     libmp4v2:rtphint.obj
 0001:00004340       ??_C@_04PJOLNDGD@data?$AA@ 10005340     libmp4v2:rtphint.obj
 0001:00004348       ??_C@_0N@NEONKOJ@sampleOffset?$AA@ 10005348     libmp4v2:rtphint.obj
 0001:00004358       ??_C@_0N@OHFEAHAF@sampleNumber?$AA@ 10005358     libmp4v2:rtphint.obj
 0001:00004368       ??_C@_0BH@PBCBGAHL@sampleDescriptionIndex?$AA@ 10005368     libmp4v2:rtphint.obj
 0001:00004380       ??_7MP4Atom@@6B@           10005380     libmp4v2:mp4atom.obj
 0001:000043c8       ??_C@_04CMPCJKGB@yuv2?$AA@ 100053c8     libmp4v2:mp4atom.obj
 0001:000043d0       ??_C@_04FAHEGBMA@ulaw?$AA@ 100053d0     libmp4v2:mp4atom.obj
 0001:000043d8       ??_C@_04PNGPHBFM@raw?5?$AA@ 100053d8     libmp4v2:mp4atom.obj
 0001:000043e0       ??_C@_04POAHLHIP@sowt?$AA@ 100053e0     libmp4v2:mp4atom.obj
 0001:000043e8       ??_C@_04IEPOHAOA@twos?$AA@ 100053e8     libmp4v2:mp4atom.obj
 0001:000043f0       ??_C@_04BODAPIFG@h263?$AA@ 100053f0     libmp4v2:mp4atom.obj
 0001:000043f8       ??_C@_04JGIMGAOA@ima4?$AA@ 100053f8     libmp4v2:mp4atom.obj
 0001:00004400       ??_C@_04OFMADDDJ@jpeg?$AA@ 10005400     libmp4v2:mp4atom.obj
 0001:00004408       ??_C@_04DBBNMMDA@SVQ3?$AA@ 10005408     libmp4v2:mp4atom.obj
 0001:00004410       ??_C@_04KPGLMEDO@alis?$AA@ 10005410     libmp4v2:mp4atom.obj
 0001:00004418       ??_C@_0BD@BEOGFENO@Skip?3?5?$CFI64u?5bytes?6?$AA@ 10005418     libmp4v2:mp4atom.obj
 0001:0000442c       ??_C@_07CPCPJPKL@version?$AA@ 1000542c     libmp4v2:mp4atom.obj
 0001:00004434       ??_C@_05GECEPKB@flags?$AA@ 10005434     libmp4v2:mp4atom.obj
 0001:0000443c       ??_7MP4Integer24Property@@6B@ 1000543c     libmp4v2:mp4atom.obj
 0001:00004464       ??_C@_0BG@NGMLJJO@FindAtom?3?5matched?5?$CFs?6?$AA@ 10005464     libmp4v2:mp4atom.obj
 0001:0000447c       ??_C@_0BP@BLKJHNCF@FindProperty?3?5no?5match?5for?5?$CFs?6?$AA@ 1000547c     libmp4v2:mp4atom.obj
 0001:0000449c       ??_C@_0BE@LKANBFHA@Atom?5ReadProperties?$AA@ 1000549c     libmp4v2:mp4atom.obj
 0001:000044b0       ??_C@_0BP@HCGLPMKN@Atom?5ReadProperties?5parameters?$AA@ 100054b0     libmp4v2:mp4atom.obj
 0001:000044d0       ??_C@_0FB@GCHJMHNE@ReadProperties?3?5insufficient?5dat@ 100054d0     libmp4v2:mp4atom.obj
 0001:00004524       ??_C@_0CF@KELLIJFD@end?3?5type?5?$CFs?5?$CFI64u?5?$CFI64u?5size?5?$CFI@ 10005524     libmp4v2:mp4atom.obj
 0001:0000454c       ??_C@_07CNOAEAAD@Write?3?5?$AA@ 1000554c     libmp4v2:mp4atom.obj
 0001:00004554       ??_C@_0BA@LFOFJKIG@Write?3?5type?5?$CFs?6?$AA@ 10005554     libmp4v2:mp4atom.obj
 0001:00004564       ??_C@_0BE@KLIJEGJP@Write?3?5finished?5?$CFs?6?$AA@ 10005564     libmp4v2:mp4atom.obj
 0001:00004578       ??_C@_0BM@KCDLAGOF@?$DMtable?5entries?5suppressed?$DO?6?$AA@ 10005578     libmp4v2:mp4atom.obj
 0001:00004594       ??_C@_08EJICPDHK@type?5?$CFs?6?$AA@ 10005594     libmp4v2:mp4atom.obj
 0001:000045a0       ??_C@_0BP@GDFAEEMN@Info?3?5atom?5type?5?$CFs?5is?5unknown?6?$AA@ 100055a0     libmp4v2:mp4atom.obj
 0001:000045c0       ??_C@_0CC@GAGPMDLC@Warning?3?5atom?5type?5?$CFs?5is?5suspect@ 100055c0     libmp4v2:mp4atom.obj
 0001:000045e4       ??_C@_0DJ@HCMEEPPD@parent?5?$CFs?5?$CI?$CFI64u?$CJ?5pos?5?$CFI64u?5hdr?5@ 100055e4     libmp4v2:mp4atom.obj
 0001:00004620       ??_C@_0GI@LBFAIAFC@ReadAtom?3?5invalid?5atom?5size?0?5ext@ 10005620     libmp4v2:mp4atom.obj
 0001:00004688       ??_C@_0DK@PBONCAB@ReadAtom?3?5type?5?$DN?5?$CC?$CFs?$CC?5data?9size?5@ 10005688     libmp4v2:mp4atom.obj
 0001:000046c4       ??_C@_0BJ@GHCFOIEB@ReadAtom?3?5pos?5?$DN?50x?$CFI64x?6?$AA@ 100056c4     libmp4v2:mp4atom.obj
 0001:000046e0       ??_C@_0BN@COFEFJDO@ReadChildAtoms?3?5finished?5?$CFs?6?$AA@ 100056e0     libmp4v2:mp4atom.obj
 0001:00004700       ??_C@_0CL@EHAJNDCC@Warning?3?5In?5atom?5?$CFs?5missing?5chil@ 10005700     libmp4v2:mp4atom.obj
 0001:0000472c       ??_C@_0CN@NGEDFKN@Warning?3?5In?5atom?5?$CFs?5multiple?5chi@ 1000572c     libmp4v2:mp4atom.obj
 0001:0000475c       ??_C@_0CO@ONEILOPD@Warning?3?5In?5atom?5?$CFs?5unexpected?5c@ 1000575c     libmp4v2:mp4atom.obj
 0001:0000478c       ??_C@_0DF@DOJPLHPE@Error?3?5In?5?$CFs?5atom?0?5extra?5?$CFI64d?5b@ 1000578c     libmp4v2:mp4atom.obj
 0001:000047c4       ??_C@_0CP@DNMHEOPI@Error?3?5In?5udta?5atom?0?5end?5value?5i@ 100057c4     libmp4v2:mp4atom.obj
 0001:000047f4       ??_C@_0BH@MLMJCAEK@ReadChildAtoms?3?5of?5?$CFs?6?$AA@ 100057f4     libmp4v2:mp4atom.obj
 0001:0000480c       ??_C@_04NBFCGMPH@root?$AA@ 1000580c     libmp4v2:mp4atom.obj
 0001:00004814       ??_C@_0CI@EOAAHKDI@Warning?3?5?$CFs?5atom?5size?5?$CFI64u?5is?5s@ 10005814     libmp4v2:mp4atom.obj
 0001:0000483c       ??_C@_0P@BPKDKLFN@MP4GetPosition?$AA@ 1000583c     libmp4v2:mp4file_io.obj
 0001:0000484c       ??_C@_0BG@OBAFCJJL@position?5out?5of?5range?$AA@ 1000584c     libmp4v2:mp4file_io.obj
 0001:00004864       ??_C@_0P@BALNHNNO@MP4SetPosition?$AA@ 10005864     libmp4v2:mp4file_io.obj
 0001:00004874       ??_C@_0CI@PHJBNDKA@not?5enough?5bytes?0?5reached?5end?9of@ 10005874     libmp4v2:mp4file_io.obj
 0001:0000489c       ??_C@_0DI@BLLJMOC@?6?$FLMP4ReadBytes?$FN?5not?5enough?5bytes@ 1000589c     libmp4v2:mp4file_io.obj
 0001:000048d4       ??_C@_0BK@MFCHFKOI@?6?$FLMP4ReadBytes?$FN?5?4?4?4?5?$HO?$HO?$HO?5?5?$AA@ 100058d4     libmp4v2:mp4file_io.obj
 0001:000048f0       ??_C@_0N@HOEOENJL@MP4ReadBytes?$AA@ 100058f0     libmp4v2:mp4file_io.obj
 0001:00004900       ??_C@_0CG@EFKMMAGP@not?5enough?5bytes?0?5reached?5end?9of@ 10005900     libmp4v2:mp4file_io.obj
 0001:00004928       ??_C@_0DG@CFEKIIOC@?6?$FLMP4ReadBytes?$FN?5not?5enough?5bytes@ 10005928     libmp4v2:mp4file_io.obj
 0001:00004960       ??_C@_0O@HMMOFAKB@MP4WriteBytes?$AA@ 10005960     libmp4v2:mp4file_io.obj
 0001:00004970       ??_C@_0BA@CJFKIDCJ@MP4WriteFixed16?$AA@ 10005970     libmp4v2:mp4file_io.obj
 0001:00004980       ??_C@_0BA@EOLCJCED@MP4WriteFixed32?$AA@ 10005980     libmp4v2:mp4file_io.obj
 0001:00004990       ??_C@_0BG@OMFFPCLH@MP4WriteCountedString?$AA@ 10005990     libmp4v2:mp4file_io.obj
 0001:000049a8       ??_C@_0N@DJIEHJFC@Length?5is?5?$CFd?$AA@ 100059a8     libmp4v2:mp4file_io.obj
 0001:000049b8       ??_C@_0BD@HALPNGJA@MP4WriteMpegLength?$AA@ 100059b8     libmp4v2:mp4file_io.obj
 0001:000049cc       ??_7MP4RootAtom@@6B@       100059cc     libmp4v2:atom_root.obj
 0001:000049ec       ??_C@_04JDLFJNGD@udta?$AA@ 100059ec     libmp4v2:atom_root.obj
 0001:000049f4       ??_C@_04ELBGBMHH@moof?$AA@ 100059f4     libmp4v2:atom_root.obj
 0001:000049fc       ??_C@_07MGNONOPO@entries?$AA@ 100059fc     libmp4v2:odcommands.obj
 0001:00004a04       ??_C@_04NIDJFNBE@info?$AA@ 10005a04     libmp4v2:descriptors.obj
 0001:00004a0c       ??_7MP4DecSpecificDescriptor@@6B@ 10005a0c     libmp4v2:descriptors.obj
 0001:00004a24       ??_C@_0CE@JLKFIAHJ@incompatible?5content?5id?5descript@ 10005a24     libmp4v2:descriptors.obj
 0001:00004a48       ??_C@_05MFEJDJP@value?$AA@ 10005a48     libmp4v2:descriptors.obj
 0001:00004a50       ??_C@_05PHLGJONK@title?$AA@ 10005a50     libmp4v2:descriptors.obj
 0001:00004a58       ??_C@_0N@HNLDKLGH@languageCode?$AA@ 10005a58     libmp4v2:descriptors.obj
 0001:00004a68       ??_7MP4SupplContentIdDescriptor@@6B@ 10005a68     libmp4v2:descriptors.obj
 0001:00004a80       ??_7MP4ExtensionDescriptor@@6B@ 10005a80     libmp4v2:descriptors.obj
 0001:00004a98       ??_C@_08IDJJIAJP@extDescr?$AA@ 10005a98     libmp4v2:descriptors.obj
 0001:00004aa4       ??_C@_0N@HONFJKPL@ipmpDescrPtr?$AA@ 10005aa4     libmp4v2:descriptors.obj
 0001:00004ab4       ??_C@_08DBGPNKHC@ociDescr?$AA@ 10005ab4     libmp4v2:descriptors.obj
 0001:00004ac0       ??_C@_0BO@JDCPJHEB@includeInlineProfileLevelFlag?$AA@ 10005ac0     libmp4v2:descriptors.obj
 0001:00004ae0       ??_7MP4IODescriptor@@6B@   10005ae0     libmp4v2:descriptors.obj
 0001:00004af8       ??_7MP4ODescriptor@@6B@    10005af8     libmp4v2:descriptors.obj
 0001:00004b10       ??_7MP4ESIDIncDescriptor@@6B@ 10005b10     libmp4v2:descriptors.obj
 0001:00004b28       ??_7MP4ESIDRefDescriptor@@6B@ 10005b28     libmp4v2:descriptors.obj
 0001:00004b40       ??_C@_08PKLAANIO@regDescr?$AA@ 10005b40     libmp4v2:descriptors.obj
 0001:00004b4c       ??_C@_08MBGMJFFO@qosDescr?$AA@ 10005b4c     libmp4v2:descriptors.obj
 0001:00004b58       ??_C@_09PMMPPHEK@langDescr?$AA@ 10005b58     libmp4v2:descriptors.obj
 0001:00004b64       ??_C@_05DFMELOHP@ipIds?$AA@ 10005b64     libmp4v2:descriptors.obj
 0001:00004b6c       ??_C@_06GGEBOFBA@ipiPtr?$AA@ 10005b6c     libmp4v2:descriptors.obj
 0001:00004b74       ??_C@_0O@CCDJKAND@slConfigDescr?$AA@ 10005b74     libmp4v2:descriptors.obj
 0001:00004b84       ??_C@_0P@FFBDFIJM@decConfigDescr?$AA@ 10005b84     libmp4v2:descriptors.obj
 0001:00004b94       ??_C@_07PMDAHNPE@OCRESID?$AA@ 10005b94     libmp4v2:descriptors.obj
 0001:00004b9c       ??_C@_0O@GDBGAGFA@dependsOnESID?$AA@ 10005b9c     libmp4v2:descriptors.obj
 0001:00004bac       ??_C@_0P@EGAOEL@streamPriority?$AA@ 10005bac     libmp4v2:descriptors.obj
 0001:00004bbc       ??_C@_0O@GLBDEKKF@OCRstreamFlag?$AA@ 10005bbc     libmp4v2:descriptors.obj
 0001:00004bcc       ??_C@_0BF@MLEOKJPE@streamDependenceFlag?$AA@ 10005bcc     libmp4v2:descriptors.obj
 0001:00004be4       ??_7MP4ESDescriptor@@6B@   10005be4     libmp4v2:descriptors.obj
 0001:00004bfc       ??_C@_0CB@JNMAGBKM@profileLevelIndicationIndexDescr@ 10005bfc     libmp4v2:descriptors.obj
 0001:00004c20       ??_C@_0BA@KCEHOLIB@decSpecificInfo?$AA@ 10005c20     libmp4v2:descriptors.obj
 0001:00004c30       ??_C@_0L@GIKIOBIP@avgBitrate?$AA@ 10005c30     libmp4v2:descriptors.obj
 0001:00004c3c       ??_C@_0L@NELJGEHJ@maxBitrate?$AA@ 10005c3c     libmp4v2:descriptors.obj
 0001:00004c48       ??_C@_0N@IJFEAALK@bufferSizeDB?$AA@ 10005c48     libmp4v2:descriptors.obj
 0001:00004c58       ??_C@_08JLLAEAMF@upStream?$AA@ 10005c58     libmp4v2:descriptors.obj
 0001:00004c64       ??_C@_0L@EEDADAPF@streamType?$AA@ 10005c64     libmp4v2:descriptors.obj
 0001:00004c70       ??_C@_0N@KFGHAJLN@objectTypeId?$AA@ 10005c70     libmp4v2:descriptors.obj
 0001:00004c80       ??_7MP4DecConfigDescriptor@@6B@ 10005c80     libmp4v2:descriptors.obj
 0001:00004c98       ??_C@_0BK@EKIBNJOJ@startCompositionTimeStamp?$AA@ 10005c98     libmp4v2:descriptors.obj
 0001:00004cb4       ??_C@_0BH@OEOHGGG@startDecodingTimeStamp?$AA@ 10005cb4     libmp4v2:descriptors.obj
 0001:00004ccc       ??_C@_0BI@CMILFPKO@compositionUnitDuration?$AA@ 10005ccc     libmp4v2:descriptors.obj
 0001:00004ce4       ??_C@_0BD@FKHJBBAN@accessUnitDuration?$AA@ 10005ce4     libmp4v2:descriptors.obj
 0001:00004cf8       ??_C@_09PCCBJLI@timeScale?$AA@ 10005cf8     libmp4v2:descriptors.obj
 0001:00004d04       ??_C@_0BD@HLDGOLLH@packetSeqNumLength?$AA@ 10005d04     libmp4v2:descriptors.obj
 0001:00004d18       ??_C@_0P@BHINJGFL@AUSeqNumLength?$AA@ 10005d18     libmp4v2:descriptors.obj
 0001:00004d28       ??_C@_0BJ@EJGDDOFI@degradationPriortyLength?$AA@ 10005d28     libmp4v2:descriptors.obj
 0001:00004d44       ??_C@_0BF@CPJBBIPK@instantBitrateLength?$AA@ 10005d44     libmp4v2:descriptors.obj
 0001:00004d5c       ??_C@_08GIGEKHOG@AULength?$AA@ 10005d5c     libmp4v2:descriptors.obj
 0001:00004d68       ??_C@_09CGGFKGIM@OCRLength?$AA@ 10005d68     libmp4v2:descriptors.obj
 0001:00004d74       ??_C@_0BA@JLFOBIHG@timeStampLength?$AA@ 10005d74     libmp4v2:descriptors.obj
 0001:00004d84       ??_C@_0O@NLOHJEEO@OCRResolution?$AA@ 10005d84     libmp4v2:descriptors.obj
 0001:00004d94       ??_C@_0BE@HEJOJBJO@timeStampResolution?$AA@ 10005d94     libmp4v2:descriptors.obj
 0001:00004da8       ??_C@_0N@PCECLJGH@durationFlag?$AA@ 10005da8     libmp4v2:descriptors.obj
 0001:00004db8       ??_C@_0M@JPJICOPC@useIdleFlag?$AA@ 10005db8     libmp4v2:descriptors.obj
 0001:00004dc4       ??_C@_0BC@KEDMPIFA@useTimeStampsFlag?$AA@ 10005dc4     libmp4v2:descriptors.obj
 0001:00004dd8       ??_C@_0P@CILBAKFF@usePaddingFlag?$AA@ 10005dd8     libmp4v2:descriptors.obj
 0001:00004de8       ??_C@_0BN@ENNNAFMM@hasRandomAccessUnitsOnlyFlag?$AA@ 10005de8     libmp4v2:descriptors.obj
 0001:00004e08       ??_C@_0BJ@HCBLPEJF@useRandomAccessPointFlag?$AA@ 10005e08     libmp4v2:descriptors.obj
 0001:00004e24       ??_C@_0BF@GBGEGKDL@useAccessUnitEndFlag?$AA@ 10005e24     libmp4v2:descriptors.obj
 0001:00004e3c       ??_C@_0BH@LOILBIOL@useAccessUnitStartFlag?$AA@ 10005e3c     libmp4v2:descriptors.obj
 0001:00004e54       ??_C@_0L@NNMGJOIO@predefined?$AA@ 10005e54     libmp4v2:descriptors.obj
 0001:00004e60       ??_7MP4SLConfigDescriptor@@6B@ 10005e60     libmp4v2:descriptors.obj
 0001:00004e78       ??_C@_07JAPMCENK@IPIESId?$AA@ 10005e78     libmp4v2:descriptors.obj
 0001:00004e80       ??_7MP4IPIPtrDescriptor@@6B@ 10005e80     libmp4v2:descriptors.obj
 0001:00004e98       ??_C@_09JMIFFINM@contentId?$AA@ 10005e98     libmp4v2:descriptors.obj
 0001:00004ea4       ??_C@_0O@CGLPLLOH@contentIdType?$AA@ 10005ea4     libmp4v2:descriptors.obj
 0001:00004eb4       ??_C@_0M@DOEFOEJD@contentType?$AA@ 10005eb4     libmp4v2:descriptors.obj
 0001:00004ec0       ??_C@_0BB@DKBPIJPN@protectedContent?$AA@ 10005ec0     libmp4v2:descriptors.obj
 0001:00004ed4       ??_C@_0O@HEIKHDGN@contentIdFlag?$AA@ 10005ed4     libmp4v2:descriptors.obj
 0001:00004ee4       ??_C@_0BA@IIJLCJPI@contentTypeFlag?$AA@ 10005ee4     libmp4v2:descriptors.obj
 0001:00004ef4       ??_C@_0O@GHFBHJBL@compatibility?$AA@ 10005ef4     libmp4v2:descriptors.obj
 0001:00004f04       ??_7MP4ContentIdDescriptor@@6B@ 10005f04     libmp4v2:descriptors.obj
 0001:00004f1c       ??_C@_0BB@IKDGNBBP@IPMPDescriptorId?$AA@ 10005f1c     libmp4v2:descriptors.obj
 0001:00004f30       ??_7MP4IPMPPtrDescriptor@@6B@ 10005f30     libmp4v2:descriptors.obj
 0001:00004f48       ??_C@_08BGEEEFAA@IPMPData?$AA@ 10005f48     libmp4v2:descriptors.obj
 0001:00004f54       ??_C@_09IAAAMPOI@IPMPSType?$AA@ 10005f54     libmp4v2:descriptors.obj
 0001:00004f60       ??_7MP4IPMPDescriptor@@6B@ 10005f60     libmp4v2:descriptors.obj
 0001:00004f78       ??_C@_0BN@JJOHHHOO@additionalIdentificationInfo?$AA@ 10005f78     libmp4v2:descriptors.obj
 0001:00004f98       ??_C@_0BB@KGLHFOJF@formatIdentifier?$AA@ 10005f98     libmp4v2:descriptors.obj
 0001:00004fac       ??_7MP4RegistrationDescriptor@@6B@ 10005fac     libmp4v2:descriptors.obj
 0001:00004fc4       ??_C@_0BM@MKPOJGCO@MPEGJProfileLevelIndication?$AA@ 10005fc4     libmp4v2:descriptors.obj
 0001:00004fe0       ??_C@_0BP@FPJKBDKK@graphicsProfileLevelIndication?$AA@ 10005fe0     libmp4v2:descriptors.obj
 0001:00005000       ??_C@_0BN@HJKOBCMF@visualProfileLevelIndication?$AA@ 10006000     libmp4v2:descriptors.obj
 0001:00005020       ??_C@_0BM@MNNOKNFF@audioProfileLevelIndication?$AA@ 10006020     libmp4v2:descriptors.obj
 0001:0000503c       ??_C@_0BM@BFLMNKKD@sceneProfileLevelIndication?$AA@ 1000603c     libmp4v2:descriptors.obj
 0001:00005058       ??_C@_0BJ@HPEMODPK@ODProfileLevelIndication?$AA@ 10006058     libmp4v2:descriptors.obj
 0001:00005074       ??_C@_0BM@GADEINE@profileLevelIndicationIndex?$AA@ 10006074     libmp4v2:descriptors.obj
 0001:00005090       ??_7MP4ExtProfileLevelDescriptor@@6B@ 10006090     libmp4v2:descriptors.obj
 0001:000050e0       ??_C@_04OGOMFLBB@mean?$AA@ 100060e0     libmp4v2:atom_standard.obj
 0001:000050e8       ??_C@_04MEMAJGDJ@name?$AA@ 100060e8     libmp4v2:atom_standard.obj
 0001:000050f0       ??_C@_04FKEJLGGE@esds?$AA@ 100060f0     libmp4v2:atom_standard.obj
 0001:000050f8       ??_C@_0BD@BBHINHLE@defaultSampleFlags?$AA@ 100060f8     libmp4v2:atom_standard.obj
 0001:0000510c       ??_C@_0BC@NELAOIO@defaultSampleSize?$AA@ 1000610c     libmp4v2:atom_standard.obj
 0001:00005120       ??_C@_0BG@NDGGDFGO@defaultSampleDuration?$AA@ 10006120     libmp4v2:atom_standard.obj
 0001:00005138       ??_C@_0BN@EAIHANNN@defaultSampleDesriptionIndex?$AA@ 10006138     libmp4v2:atom_standard.obj
 0001:00005158       ??_C@_07EGPHMHHC@trackId?$AA@ 10006158     libmp4v2:atom_standard.obj
 0001:00005160       ??_C@_04HNIIDBHK@dpnd?$AA@ 10006160     libmp4v2:atom_standard.obj
 0001:00005168       ??_C@_04JMMPFGJJ@ipir?$AA@ 10006168     libmp4v2:atom_standard.obj
 0001:00005170       ??_C@_04HBFKDJDM@mpod?$AA@ 10006170     libmp4v2:atom_standard.obj
 0001:00005178       ??_C@_04JNABKDKF@sync?$AA@ 10006178     libmp4v2:atom_standard.obj
 0001:00005180       ??_C@_04JOPNAKNE@tkhd?$AA@ 10006180     libmp4v2:atom_standard.obj
 0001:00005188       ??_C@_04IJACODBA@tref?$AA@ 10006188     libmp4v2:atom_standard.obj
 0001:00005190       ??_C@_04ILKBHKDC@edts?$AA@ 10006190     libmp4v2:atom_standard.obj
 0001:00005198       ??_C@_04NHNLHBAD@mdia?$AA@ 10006198     libmp4v2:atom_standard.obj
 0001:000051a0       ??_C@_04GMJHNCAJ@tfhd?$AA@ 100061a0     libmp4v2:atom_standard.obj
 0001:000051a8       ??_C@_04FNPNMKGI@trun?$AA@ 100061a8     libmp4v2:atom_standard.obj
 0001:000051b0       ??_C@_0M@FHCBNLFJ@sampleDelta?$AA@ 100061b0     libmp4v2:atom_standard.obj
 0001:000051bc       ??_C@_0BB@PIHDCEJL@syncSampleNumber?$AA@ 100061bc     libmp4v2:atom_standard.obj
 0001:000051d0       ??_C@_0BF@NIGLMAKP@shadowedSampleNumber?$AA@ 100061d0     libmp4v2:atom_standard.obj
 0001:000051e8       ??_C@_04NCHAOAIN@frma?$AA@ 100061e8     libmp4v2:atom_standard.obj
 0001:000051f0       ??_C@_04BABCAOIO@imif?$AA@ 100061f0     libmp4v2:atom_standard.obj
 0001:000051f8       ??_C@_0P@JPCHNBIF@scheme_version?$AA@ 100061f8     libmp4v2:atom_standard.obj
 0001:00005208       ??_C@_0M@PDKKCIGD@scheme_type?$AA@ 10006208     libmp4v2:atom_standard.obj
 0001:00005214       ??_C@_04CCKLJAB@odkm?$AA@  10006214     libmp4v2:atom_standard.obj
 0001:0000521c       ??_C@_06HPFBBGJK@rtpMap?$AA@ 1000621c     libmp4v2:atom_standard.obj
 0001:00005224       ??_C@_0O@CHHFOBPK@payloadNumber?$AA@ 10006224     libmp4v2:atom_standard.obj
 0001:00005234       ??_C@_04IOPKEPBK@ohdr?$AA@ 10006234     libmp4v2:atom_standard.obj
 0001:0000523c       ??_C@_07CANMCAHH@packets?$AA@ 1000623c     libmp4v2:atom_standard.obj
 0001:00005244       ??_C@_04FNEDNMMP@trex?$AA@ 10006244     libmp4v2:atom_standard.obj
 0001:0000524c       ??_C@_04FBHOHAGF@mvhd?$AA@ 1000624c     libmp4v2:atom_standard.obj
 0001:00005254       ??_C@_04LPNBLOGL@mvex?$AA@ 10006254     libmp4v2:atom_standard.obj
 0001:0000525c       ??_C@_04BGHCHPK@mfhd?$AA@  1000625c     libmp4v2:atom_standard.obj
 0001:00005264       ??_C@_04IOALELMM@traf?$AA@ 10006264     libmp4v2:atom_standard.obj
 0001:0000526c       ??_C@_04GCKPELON@dinf?$AA@ 1000626c     libmp4v2:atom_standard.obj
 0001:00005274       ??_C@_04OBOJJOND@stbl?$AA@ 10006274     libmp4v2:atom_standard.obj
 0001:0000527c       ??_C@_04MBOLDPJO@ilst?$AA@ 1000627c     libmp4v2:atom_standard.obj
 0001:00005284       ??_C@_04KLGOOPHB@mdhd?$AA@ 10006284     libmp4v2:atom_standard.obj
 0001:0000528c       ??_C@_04HIBPHNAK@hdlr?$AA@ 1000628c     libmp4v2:atom_standard.obj
 0001:00005294       ??_C@_04GPLPCJJM@minf?$AA@ 10006294     libmp4v2:atom_standard.obj
 0001:0000529c       ??_C@_0M@NHBNAONC@granularity?$AA@ 1000629c     libmp4v2:atom_standard.obj
 0001:000052a8       ??_C@_09ODFHJMFE@ipmp_desc?$AA@ 100062a8     libmp4v2:atom_standard.obj
 0001:000052b4       ??_C@_09HHOBGLFF@IV?9length?$AA@ 100062b4     libmp4v2:atom_standard.obj
 0001:000052c0       ??_C@_0BF@NGHGKBIO@key?9indicator?9length?$AA@ 100062c0     libmp4v2:atom_standard.obj
 0001:000052d8       ??_C@_0BF@BMDEKCDC@selective?9encryption?$AA@ 100062d8     libmp4v2:atom_standard.obj
 0001:000052f0       ??_C@_07HIJIGHCJ@kms_URI?$AA@ 100062f0     libmp4v2:atom_standard.obj
 0001:000052f8       ??_C@_0BC@EAFGMJFB@slidingAvgBitRate?$AA@ 100062f8     libmp4v2:atom_standard.obj
 0001:0000530c       ??_C@_0L@KJGJMOIL@avgBitRate?$AA@ 1000630c     libmp4v2:atom_standard.obj
 0001:00005318       ??_C@_0L@BFHIELHN@maxBitRate?$AA@ 10006318     libmp4v2:atom_standard.obj
 0001:00005324       ??_C@_0L@MPDGGGON@avgPduSize?$AA@ 10006324     libmp4v2:atom_standard.obj
 0001:00005330       ??_C@_0L@HDCHODBL@maxPduSize?$AA@ 10006330     libmp4v2:atom_standard.obj
 0001:0000533c       ??_C@_0M@LBDBKFFJ@data?9format?$AA@ 1000633c     libmp4v2:atom_standard.obj
 0001:00005348       ??_C@_04EBLNCJP@elst?$AA@  10006348     libmp4v2:atom_standard.obj
 0001:00005350       ??_C@_09BBMNAPCH@milliSecs?$AA@ 10006350     libmp4v2:atom_standard.obj
 0001:0000535c       ??_C@_05FBJAGGIG@bytes?$AA@ 1000635c     libmp4v2:atom_standard.obj
 0001:00005364       ??_C@_04OJOCHEJC@dref?$AA@ 10006364     libmp4v2:atom_standard.obj
 0001:0000536c       ??_C@_0M@LIBCLOH@sampleCount?$AA@ 1000636c     libmp4v2:atom_standard.obj
 0001:00005378       ??_C@_06FINPLOKL@notice?$AA@ 10006378     libmp4v2:atom_standard.obj
 0001:00005380       ??_C@_08JGCCIMAA@language?$AA@ 10006380     libmp4v2:atom_standard.obj
 0001:0000538c       ??_C@_0M@DOOIIJGD@chunkOffset?$AA@ 1000638c     libmp4v2:atom_standard.obj
 0001:00005398       ??_7MP4StandardAtom@@6B@   10006398     libmp4v2:atom_standard.obj
 0001:000053b8       ??_7MP4VmhdAtom@@6B@       100063b8     libmp4v2:atom_vmhd.obj
 0001:000053d8       ??_C@_08DHGINADL@metadata?$AA@ 100063d8     libmp4v2:atom_meta.obj
 0001:000053e4       ??_7MP4Meta1Atom@@6B@      100063e4     libmp4v2:atom_meta.obj
 0001:00005404       ??_7MP4DataAtom@@6B@       10006404     libmp4v2:atom_meta.obj
 0001:00005424       ??_7MP4Meta2Atom@@6B@      10006424     libmp4v2:atom_meta.obj
 0001:00005444       ??_C@_08CBBFJFMD@location?$AA@ 10006444     libmp4v2:atom_urn.obj
 0001:00005450       ??_C@_04BOBEMNMC@urn?5?$AA@ 10006450     libmp4v2:atom_urn.obj
 0001:00005458       ??_7MP4UrnAtom@@6B@        10006458     libmp4v2:atom_urn.obj
 0001:00005478       ??_7MP4UdtaAtom@@6B@       10006478     libmp4v2:atom_udta.obj
 0001:00005498       ??_C@_04JAFGKFCP@cprt?$AA@ 10006498     libmp4v2:atom_udta.obj
 0001:000054a0       ??_C@_04KMKBKEDM@hnti?$AA@ 100064a0     libmp4v2:atom_udta.obj
 0001:000054a8       ??_C@_04HLJJCGEF@meta?$AA@ 100064a8     libmp4v2:atom_udta.obj
 0001:000054b0       ??_C@_04MHHFAHAH@?$KJcpy?$AA@ 100064b0     libmp4v2:atom_udta.obj
 0001:000054b8       ??_C@_04LKKALGKP@?$KJdes?$AA@ 100064b8     libmp4v2:atom_udta.obj
 0001:000054c0       ??_C@_04HJDBEHAE@?$KJprd?$AA@ 100064c0     libmp4v2:atom_udta.obj
 0001:000054c8       ??_C@_04KHFPKGOM@hinf?$AA@ 100064c8     libmp4v2:atom_udta.obj
 0001:000054d0       ??_7OhdrMP4StringProperty@@6B@ 100064d0     libmp4v2:atom_ohdr.obj
 0001:000054f8       ??_7MP4OhdrAtom@@6B@       100064f8     libmp4v2:atom_ohdr.obj
 0001:00005518       ??_C@_0P@DLHIEMHC@TextualHeaders?$AA@ 10006518     libmp4v2:atom_ohdr.obj
 0001:00005528       ??_C@_0BA@LGJPDLAG@RightsIssuerURL?$AA@ 10006528     libmp4v2:atom_ohdr.obj
 0001:00005538       ??_C@_09EGFMHPKO@ContentID?$AA@ 10006538     libmp4v2:atom_ohdr.obj
 0001:00005544       ??_C@_0BF@PIOBDNNB@TextualHeadersLength?$AA@ 10006544     libmp4v2:atom_ohdr.obj
 0001:0000555c       ??_C@_0BG@IBOFLPIL@RightsIssuerURLLength?$AA@ 1000655c     libmp4v2:atom_ohdr.obj
 0001:00005574       ??_C@_0BA@IOFOALJ@ContentIDLength?$AA@ 10006574     libmp4v2:atom_ohdr.obj
 0001:00005584       ??_C@_0BA@DKOICHIF@PlaintextLength?$AA@ 10006584     libmp4v2:atom_ohdr.obj
 0001:00005594       ??_C@_0BC@KFLPHAAM@EncryptionPadding?$AA@ 10006594     libmp4v2:atom_ohdr.obj
 0001:000055a8       ??_C@_0BB@CPNPJAMG@EncryptionMethod?$AA@ 100065a8     libmp4v2:atom_ohdr.obj
 0001:000055bc       ??_7MP4RtpAtom@@6B@        100065bc     libmp4v2:atom_rtp.obj
 0001:000055dc       ??_C@_07BMADDIPC@sdpText?$AA@ 100065dc     libmp4v2:atom_rtp.obj
 0001:000055e4       ??_C@_0BC@EDNPBENC@descriptionFormat?$AA@ 100065e4     libmp4v2:atom_rtp.obj
 0001:000055f8       ??_C@_04PCJOLOFL@sdp?5?$AA@ 100065f8     libmp4v2:atom_rtp.obj
 0001:00005600       ??_C@_04DHLMIECC@tims?$AA@ 10006600     libmp4v2:atom_rtp.obj
 0001:00005608       ??_C@_04PJBFIKMJ@tsro?$AA@ 10006608     libmp4v2:atom_rtp.obj
 0001:00005610       ??_C@_04OJEGNJJL@snro?$AA@ 10006610     libmp4v2:atom_rtp.obj
 0001:00005618       ??_C@_0O@HLPIGNBO@maxPacketSize?$AA@ 10006618     libmp4v2:atom_rtp.obj
 0001:00005628       ??_C@_0BJ@LLJFIFGE@highestCompatibleVersion?$AA@ 10006628     libmp4v2:atom_rtp.obj
 0001:00005644       ??_C@_0BB@CDCLICFG@hintTrackVersion?$AA@ 10006644     libmp4v2:atom_rtp.obj
 0001:00005658       ??_C@_0BD@IOLJDCOK@dataReferenceIndex?$AA@ 10006658     libmp4v2:atom_rtp.obj
 0001:0000566c       ??_C@_0DK@HPOHKA@Warning?3?5rtp?5atom?5in?5unexpected?5@ 1000666c     libmp4v2:atom_rtp.obj
 0001:000056a8       ??_C@_04DENENNJM@stsd?$AA@ 100066a8     libmp4v2:atom_rtp.obj
 0001:000056b0       ??_C@_0CN@ECJFENKD@rtp?5atom?5in?5unexpected?5context?0?5@ 100066b0     libmp4v2:atom_rtp.obj
 0001:000056e0       ??_7MP4SdpAtom@@6B@        100066e0     libmp4v2:atom_sdp.obj
 0001:00005700       ??_C@_08IIJFADMF@priority?$AA@ 10006700     libmp4v2:atom_stdp.obj
 0001:0000570c       ??_C@_04DBDLPDM@stdp?$AA@  1000670c     libmp4v2:atom_stdp.obj
 0001:00005714       ??_7MP4StdpAtom@@6B@       10006714     libmp4v2:atom_stdp.obj
 0001:00005734       ??_C@_0M@PJBLPMAJ@firstSample?$AA@ 10006734     libmp4v2:atom_stsc.obj
 0001:00005740       ??_C@_0BA@KHNIOFNJ@samplesPerChunk?$AA@ 10006740     libmp4v2:atom_stsc.obj
 0001:00005750       ??_C@_0L@FNGJPEGM@firstChunk?$AA@ 10006750     libmp4v2:atom_stsc.obj
 0001:0000575c       ??_C@_04HLJFELFL@stsc?$AA@ 1000675c     libmp4v2:atom_stsc.obj
 0001:00005764       ??_7MP4StscAtom@@6B@       10006764     libmp4v2:atom_stsc.obj
 0001:00005784       ??_C@_0L@KALPCFEC@sampleSize?$AA@ 10006784     libmp4v2:atom_stsz.obj
 0001:00005790       ??_C@_04OAJFOCED@stsz?$AA@ 10006790     libmp4v2:atom_stsz.obj
 0001:00005798       ??_7MP4StszAtom@@6B@       10006798     libmp4v2:atom_stsz.obj
 0001:000057b8       ??_C@_0DD@MMPPGHHI@Warning?3?5stsd?5inconsistency?5with@ 100067b8     libmp4v2:atom_stsd.obj
 0001:000057ec       ??_C@_04OLLKIHNH@alac?$AA@ 100067ec     libmp4v2:atom_stsd.obj
 0001:000057f4       ??_7MP4StsdAtom@@6B@       100067f4     libmp4v2:atom_stsd.obj
 0001:00005814       ??_7MP4StblAtom@@6B@       10006814     libmp4v2:atom_stbl.obj
 0001:00005834       ??_C@_04DEBIEPIP@stts?$AA@ 10006834     libmp4v2:atom_stbl.obj
 0001:0000583c       ??_C@_04MLAGKHCH@stco?$AA@ 1000683c     libmp4v2:atom_stbl.obj
 0001:00005844       ??_C@_04BPMGIIPP@co64?$AA@ 10006844     libmp4v2:atom_stbl.obj
 0001:0000584c       ??_C@_04JIGBJCJA@stsh?$AA@ 1000684c     libmp4v2:atom_stbl.obj
 0001:00005854       ??_C@_04ILPDAKAO@damr?$AA@ 10006854     libmp4v2:atom_amr.obj
 0001:0000585c       ??_7MP4AmrAtom@@6B@        1000685c     libmp4v2:atom_amr.obj
 0001:0000587c       ??_C@_04NLMABFFH@d263?$AA@ 1000687c     libmp4v2:atom_s263.obj
 0001:00005884       ??_C@_06LNLHEAAG@height?$AA@ 10006884     libmp4v2:atom_s263.obj
 0001:0000588c       ??_C@_05IGKADHGO@width?$AA@ 1000688c     libmp4v2:atom_s263.obj
 0001:00005894       ??_7MP4S263Atom@@6B@       10006894     libmp4v2:atom_s263.obj
 0001:000058b4       ??_7MP4TrunAtom@@6B@       100068b4     libmp4v2:atom_trun.obj
 0001:000058d4       ??_C@_0BM@FNCDDPBI@sampleCompositionTimeOffset?$AA@ 100068d4     libmp4v2:atom_trun.obj
 0001:000058f0       ??_C@_0M@IDAHKNAE@sampleFlags?$AA@ 100068f0     libmp4v2:atom_trun.obj
 0001:000058fc       ??_C@_0P@DFCDGDN@sampleDuration?$AA@ 100068fc     libmp4v2:atom_trun.obj
 0001:0000590c       ??_C@_07ODIFGGLK@samples?$AA@ 1000690c     libmp4v2:atom_trun.obj
 0001:00005914       ??_C@_0BB@FLHOMJMA@firstSampleFlags?$AA@ 10006914     libmp4v2:atom_trun.obj
 0001:00005928       ??_C@_0L@PNAHCHGK@dataOffset?$AA@ 10006928     libmp4v2:atom_trun.obj
 0001:00005934       ??_7MP4TfhdAtom@@6B@       10006934     libmp4v2:atom_tfhd.obj
 0001:00005954       ??_C@_0P@ILGKILMJ@baseDataOffset?$AA@ 10006954     libmp4v2:atom_tfhd.obj
 0001:00005964       ??_7MP4TkhdAtom@@6B@       10006964     libmp4v2:atom_tkhd.obj
 0001:00005984       ??_7MP4Float32Property@@6B@ 10006984     libmp4v2:atom_tkhd.obj
 0001:000059ac       ??_C@_06EMCPHFGM@volume?$AA@ 100069ac     libmp4v2:atom_tkhd.obj
 0001:000059b4       ??_C@_08LGBPINEC@duration?$AA@ 100069b4     libmp4v2:atom_tkhd.obj
 0001:000059c0       ??_C@_0BB@BIAEOBBL@modificationTime?$AA@ 100069c0     libmp4v2:atom_tkhd.obj
 0001:000059d4       ??_C@_0N@GKLGCIMO@creationTime?$AA@ 100069d4     libmp4v2:atom_tkhd.obj
 0001:000059e4       ??_7MP4HrefAtom@@6B@       100069e4     libmp4v2:atom_href.obj
 0001:00005a04       ??_7MP4HinfAtom@@6B@       10006a04     libmp4v2:atom_hinf.obj
 0001:00005a24       ??_C@_04FOLFIMBF@trpy?$AA@ 10006a24     libmp4v2:atom_hinf.obj
 0001:00005a2c       ??_C@_04CMAOLAOF@nump?$AA@ 10006a2c     libmp4v2:atom_hinf.obj
 0001:00005a34       ??_C@_04MMNIJJAF@tpyl?$AA@ 10006a34     libmp4v2:atom_hinf.obj
 0001:00005a3c       ??_C@_04JMAOAJOE@maxr?$AA@ 10006a3c     libmp4v2:atom_hinf.obj
 0001:00005a44       ??_C@_04NDKOFBNJ@dmed?$AA@ 10006a44     libmp4v2:atom_hinf.obj
 0001:00005a4c       ??_C@_04IDBNCMHP@dimm?$AA@ 10006a4c     libmp4v2:atom_hinf.obj
 0001:00005a54       ??_C@_04PFHKMBEF@drep?$AA@ 10006a54     libmp4v2:atom_hinf.obj
 0001:00005a5c       ??_C@_04EALLNHLF@tmin?$AA@ 10006a5c     libmp4v2:atom_hinf.obj
 0001:00005a64       ??_C@_04FCDADDNK@tmax?$AA@ 10006a64     libmp4v2:atom_hinf.obj
 0001:00005a6c       ??_C@_04KHLAJFBK@pmax?$AA@ 10006a6c     libmp4v2:atom_hinf.obj
 0001:00005a74       ??_C@_04DCNAKEFI@dmax?$AA@ 10006a74     libmp4v2:atom_hinf.obj
 0001:00005a7c       ??_C@_04FDOGJHGG@payt?$AA@ 10006a7c     libmp4v2:atom_hinf.obj
 0001:00005a84       ??_7MP4HntiAtom@@6B@       10006a84     libmp4v2:atom_hnti.obj
 0001:00005aa4       ??_C@_0M@HKHAIFCG@handlerType?$AA@ 10006aa4     libmp4v2:atom_hdlr.obj
 0001:00005ab0       ??_7MP4HdlrAtom@@6B@       10006ab0     libmp4v2:atom_hdlr.obj
 0001:00005ad0       ??_C@_09MLBINNGJ@reserved4?$AA@ 10006ad0     libmp4v2:atom_mp4v.obj
 0001:00005adc       ??_C@_0P@LBAKLPPF@compressorName?$AA@ 10006adc     libmp4v2:atom_mp4v.obj
 0001:00005aec       ??_7MP4Mp4vAtom@@6B@       10006aec     libmp4v2:atom_mp4v.obj
 0001:00005b0c       ??_7MP4Mp4sAtom@@6B@       10006b0c     libmp4v2:atom_mp4s.obj
 0001:00005b2c       ??_7MP4MdatAtom@@6B@       10006b2c     libmp4v2:atom_mdat.obj
 0001:00005b4c       ??_7MP4MvhdAtom@@6B@       10006b4c     libmp4v2:atom_mvhd.obj
 0001:00005b6c       ??_C@_0M@JEHGOPL@nextTrackId?$AA@ 10006b6c     libmp4v2:atom_mvhd.obj
 0001:00005b78       ??_C@_04HCCHHEEF@rate?$AA@ 10006b78     libmp4v2:atom_mvhd.obj
 0001:00005b80       ??_7MP4MdhdAtom@@6B@       10006b80     libmp4v2:atom_mdhd.obj
 0001:00005ba0       ??_C@_05EIFBJLEN@brand?$AA@ 10006ba0     libmp4v2:atom_ftyp.obj
 0001:00005ba8       ??_C@_0BB@HMHMCKIO@compatibleBrands?$AA@ 10006ba8     libmp4v2:atom_ftyp.obj
 0001:00005bbc       ??_C@_0BG@NIGNHEEP@compatibleBrandsCount?$AA@ 10006bbc     libmp4v2:atom_ftyp.obj
 0001:00005bd4       ??_C@_0N@LMDAIBDP@minorVersion?$AA@ 10006bd4     libmp4v2:atom_ftyp.obj
 0001:00005be4       ??_C@_0L@ILKMECGK@majorBrand?$AA@ 10006be4     libmp4v2:atom_ftyp.obj
 0001:00005bf0       ??_7MP4FtypAtom@@6B@       10006bf0     libmp4v2:atom_ftyp.obj
 0001:00005c10       ??_7MP4FreeAtom@@6B@       10006c10     libmp4v2:atom_free.obj
 0001:00005c30       ??_7MP4SmiAtom@@6B@        10006c30     libmp4v2:atom_smi.obj
 0001:00005c50       ??_C@_04JMGBGJCO@smi?5?$AA@ 10006c50     libmp4v2:atom_video.obj
 0001:00005c58       ??_C@_0N@CKHCNNGI@colorTableId?$AA@ 10006c58     libmp4v2:atom_video.obj
 0001:00005c68       ??_C@_05BJGJGKJC@depth?$AA@ 10006c68     libmp4v2:atom_video.obj
 0001:00005c70       ??_7MP4VideoAtom@@6B@      10006c70     libmp4v2:atom_video.obj
 0001:00005c90       ??_C@_04LJEDCPFL@wave?$AA@ 10006c90     libmp4v2:atom_sound.obj
 0001:00005c98       ??_C@_0L@INFMCBEB@packetSize?$AA@ 10006c98     libmp4v2:atom_sound.obj
 0001:00005ca4       ??_C@_08PAMBCCJ@channels?$AA@ 10006ca4     libmp4v2:atom_sound.obj
 0001:00005cb0       ??_C@_0N@KACDJNPP@soundVersion?$AA@ 10006cb0     libmp4v2:atom_sound.obj
 0001:00005cc0       ??_7MP4SoundAtom@@6B@      10006cc0     libmp4v2:atom_sound.obj
 0001:00005ce0       ??_C@_0P@OIALDIMK@bytesPerSample?$AA@ 10006ce0     libmp4v2:atom_sound.obj
 0001:00005cf0       ??_C@_0O@HFIFCGDI@bytesPerFrame?$AA@ 10006cf0     libmp4v2:atom_sound.obj
 0001:00005d00       ??_C@_0P@LNMDFEDH@bytesPerPacket?$AA@ 10006d00     libmp4v2:atom_sound.obj
 0001:00005d10       ??_C@_0BB@BHCCGGOG@samplesPerPacket?$AA@ 10006d10     libmp4v2:atom_sound.obj
 0001:00005d24       ??_C@_0O@MNDAHLBK@decoderConfig?$AA@ 10006d24     libmp4v2:atom_sound.obj
 0001:00005d34       ??_7MP4UrlAtom@@6B@        10006d34     libmp4v2:atom_url.obj
 0001:00005d54       ??_7SizeTableProperty@@6B@ 10006d54     libmp4v2:atom_avcC.obj
 0001:00005d84       ??_C@_0BL@NIAHCGKK@pictureParameterSetNALUnit?$AA@ 10006d84     libmp4v2:atom_avcC.obj
 0001:00005da0       ??_C@_0BK@LPEOMICN@pictureParameterSetLength?$AA@ 10006da0     libmp4v2:atom_avcC.obj
 0001:00005dbc       ??_C@_0P@FGMGKJAH@pictureEntries?$AA@ 10006dbc     libmp4v2:atom_avcC.obj
 0001:00005dcc       ??_C@_0BK@KLCCLJE@numOfPictureParameterSets?$AA@ 10006dcc     libmp4v2:atom_avcC.obj
 0001:00005de8       ??_C@_0BM@KKPNBPHG@sequenceParameterSetNALUnit?$AA@ 10006de8     libmp4v2:atom_avcC.obj
 0001:00005e04       ??_C@_0BL@ECBAJBOL@sequenceParameterSetLength?$AA@ 10006e04     libmp4v2:atom_avcC.obj
 0001:00005e20       ??_C@_0BA@HPOKJEAN@sequenceEntries?$AA@ 10006e20     libmp4v2:atom_avcC.obj
 0001:00005e30       ??_C@_0BL@PLEPBDFB@numOfSequenceParameterSets?$AA@ 10006e30     libmp4v2:atom_avcC.obj
 0001:00005e4c       ??_C@_0BD@FHPHGBF@lengthSizeMinusOne?$AA@ 10006e4c     libmp4v2:atom_avcC.obj
 0001:00005e60       ??_C@_0BD@NICAFMKE@AVCLevelIndication?$AA@ 10006e60     libmp4v2:atom_avcC.obj
 0001:00005e74       ??_C@_0BG@PMBLLIAO@profile_compatibility?$AA@ 10006e74     libmp4v2:atom_avcC.obj
 0001:00005e8c       ??_C@_0BF@LIAGMPGM@AVCProfileIndication?$AA@ 10006e8c     libmp4v2:atom_avcC.obj
 0001:00005ea4       ??_C@_0BF@CMFJNEFO@configurationVersion?$AA@ 10006ea4     libmp4v2:atom_avcC.obj
 0001:00005ebc       ??_C@_04ECBOMAOA@avcC?$AA@ 10006ebc     libmp4v2:atom_avcC.obj
 0001:00005ec4       ??_7MP4AvcCAtom@@6B@       10006ec4     libmp4v2:atom_avcC.obj
 0001:00005ee4       ??_C@_0L@OHPFIDIC@AVC?5Coding?$AA@ 10006ee4     libmp4v2:atom_avc1.obj
 0001:00005ef0       ??_C@_04CCFEBLMI@btrt?$AA@ 10006ef0     libmp4v2:atom_avc1.obj
 0001:00005ef8       ??_7MP4Avc1Atom@@6B@       10006ef8     libmp4v2:atom_avc1.obj
 0001:00005f18       ??_7MP4TrefTypeAtom@@6B@   10006f18     libmp4v2:atom_treftype.obj
 0001:00005f38       ??_C@_0DD@CPOJIAKH@Warning?3?5dref?5inconsistency?5with@ 10006f38     libmp4v2:atom_dref.obj
 0001:00005f6c       ??_7MP4DrefAtom@@6B@       10006f6c     libmp4v2:atom_dref.obj
 0001:00005f8c       ??_C@_0BA@JLKIIFDM@framesPerSample?$AA@ 10006f8c     libmp4v2:atom_damr.obj
 0001:00005f9c       ??_C@_0BB@MHCFHPL@modeChangePeriod?$AA@ 10006f9c     libmp4v2:atom_damr.obj
 0001:00005fb0       ??_C@_07LCINAJPE@modeSet?$AA@ 10006fb0     libmp4v2:atom_damr.obj
 0001:00005fb8       ??_C@_0P@EEPNGEID@decoderVersion?$AA@ 10006fb8     libmp4v2:atom_damr.obj
 0001:00005fc8       ??_C@_06HJNGGFGI@vendor?$AA@ 10006fc8     libmp4v2:atom_damr.obj
 0001:00005fd0       ??_7MP4DamrAtom@@6B@       10006fd0     libmp4v2:atom_damr.obj
 0001:00005ff0       ??_C@_0BA@LNFCBMCJ@bitr?4avgBitrate?$AA@ 10006ff0     libmp4v2:atom_d263.obj
 0001:00006000       ??_C@_0BA@BEDJJNP@bitr?4maxBitrate?$AA@ 10007000     libmp4v2:atom_d263.obj
 0001:00006010       ??_C@_09MIBMBNPI@d263?4bitr?$AA@ 10007010     libmp4v2:atom_d263.obj
 0001:0000601c       ??_C@_0M@HGELMHFK@h263Profile?$AA@ 1000701c     libmp4v2:atom_d263.obj
 0001:00006028       ??_C@_09OEODDOGG@h263Level?$AA@ 10007028     libmp4v2:atom_d263.obj
 0001:00006034       ??_7MP4D263Atom@@6B@       10007034     libmp4v2:atom_d263.obj
 0001:00006054       ??_C@_04LAGPAAHP@sinf?$AA@ 10007054     libmp4v2:atom_encv.obj
 0001:0000605c       ??_7MP4EncvAtom@@6B@       1000705c     libmp4v2:atom_encv.obj
 0001:0000607c       ??_7MP4EncaAtom@@6B@       1000707c     libmp4v2:atom_enca.obj
 0001:0000609c       ??_7MP4ElstAtom@@6B@       1000709c     libmp4v2:atom_elst.obj
 0001:000060bc       ??_7MP4LanguageDescriptor@@6B@ 100070bc     libmp4v2:ocidescriptors.obj
 0001:000060d4       ??_7MP4CreatorTableProperty@@6B@ 100070d4     libmp4v2:ocidescriptors.obj
 0001:00006104       ??_7MP4UnknownOCIDescriptor@@6B@ 10007104     libmp4v2:ocidescriptors.obj
 0001:0000611c       ??_C@_0BK@GGHAMILB@contentClassificationData?$AA@ 1000711c     libmp4v2:ocidescriptors.obj
 0001:00006138       ??_C@_0BE@BDHNBPHG@classificationTable?$AA@ 10007138     libmp4v2:ocidescriptors.obj
 0001:0000614c       ??_C@_0BF@LCONBFFB@classificationEntity?$AA@ 1000714c     libmp4v2:ocidescriptors.obj
 0001:00006164       ??_7MP4ContentClassDescriptor@@6B@ 10007164     libmp4v2:ocidescriptors.obj
 0001:0000617c       ??_C@_06ICGJLFIM@string?$AA@ 1000717c     libmp4v2:ocidescriptors.obj
 0001:00006184       ??_C@_08KBIEDDDE@keywords?$AA@ 10007184     libmp4v2:ocidescriptors.obj
 0001:00006190       ??_C@_0N@ONLJBHEJ@keywordCount?$AA@ 10007190     libmp4v2:ocidescriptors.obj
 0001:000061a0       ??_C@_0N@EHMIPDEP@isUTF8String?$AA@ 100071a0     libmp4v2:ocidescriptors.obj
 0001:000061b0       ??_7MP4KeywordDescriptor@@6B@ 100071b0     libmp4v2:ocidescriptors.obj
 0001:000061c8       ??_C@_0L@IAKFJBIO@ratingInfo?$AA@ 100071c8     libmp4v2:ocidescriptors.obj
 0001:000061d4       ??_C@_0P@EFPIMOGL@ratingCriteria?$AA@ 100071d4     libmp4v2:ocidescriptors.obj
 0001:000061e4       ??_C@_0N@HHOGGFML@ratingEntity?$AA@ 100071e4     libmp4v2:ocidescriptors.obj
 0001:000061f4       ??_7MP4RatingDescriptor@@6B@ 100071f4     libmp4v2:ocidescriptors.obj
 0001:0000620c       ??_C@_09KLOJNPHC@eventText?$AA@ 1000720c     libmp4v2:ocidescriptors.obj
 0001:00006218       ??_C@_09EHOPIFIN@eventName?$AA@ 10007218     libmp4v2:ocidescriptors.obj
 0001:00006224       ??_7MP4ShortTextDescriptor@@6B@ 10007224     libmp4v2:ocidescriptors.obj
 0001:0000623c       ??_C@_0M@KOFOGOGL@nonItemText?$AA@ 1000723c     libmp4v2:ocidescriptors.obj
 0001:00006248       ??_C@_08HMBCNHCC@itemText?$AA@ 10007248     libmp4v2:ocidescriptors.obj
 0001:00006254       ??_C@_0BA@FJHJEAPP@itemDescription?$AA@ 10007254     libmp4v2:ocidescriptors.obj
 0001:00006264       ??_C@_05CFHBDDLG@items?$AA@ 10007264     libmp4v2:ocidescriptors.obj
 0001:0000626c       ??_C@_09CJPHDLDI@itemCount?$AA@ 1000726c     libmp4v2:ocidescriptors.obj
 0001:00006278       ??_7MP4ExpandedTextDescriptor@@6B@ 10007278     libmp4v2:ocidescriptors.obj
 0001:00006290       ??_C@_08LEDLEIDB@creators?$AA@ 10007290     libmp4v2:ocidescriptors.obj
 0001:0000629c       ??_C@_0N@IMEDDGFG@creatorCount?$AA@ 1000729c     libmp4v2:ocidescriptors.obj
 0001:000062ac       ??_7MP4CreatorDescriptor@@6B@ 100072ac     libmp4v2:ocidescriptors.obj
 0001:000062c4       ??_C@_0BE@DBLICKLP@contentCreationDate?$AA@ 100072c4     libmp4v2:ocidescriptors.obj
 0001:000062d8       ??_7MP4CreationDescriptor@@6B@ 100072d8     libmp4v2:ocidescriptors.obj
 0001:000062f0       ??_C@_0L@HHPOFMCB@parameters?$AA@ 100072f0     libmp4v2:ocidescriptors.obj
 0001:000062fc       ??_C@_0P@HDJFNKGE@parameterCount?$AA@ 100072fc     libmp4v2:ocidescriptors.obj
 0001:0000630c       ??_7MP4SmpteCameraDescriptor@@6B@ 1000730c     libmp4v2:ocidescriptors.obj
 0001:00006324       ??_7MP4QosQualifierProperty@@6B@ 10007324     libmp4v2:qosqualifiers.obj
 0001:00006350       ??_7MP4UnknownQosQualifier@@6B@ 10007350     libmp4v2:qosqualifiers.obj
 0001:00006368       ??_C@_0L@HMNGMMJI@qualifiers?$AA@ 10007368     libmp4v2:qosqualifiers.obj
 0001:00006374       ??_7MP4QosDescriptor@@6B@  10007374     libmp4v2:qosqualifiers.obj
 0001:0000638c       ??_C@_08HEBPCIJP@maxDelay?$AA@ 1000738c     libmp4v2:qosqualifiers.obj
 0001:00006398       ??_7MP4MaxDelayQosQualifier@@6B@ 10007398     libmp4v2:qosqualifiers.obj
 0001:000063b0       ??_C@_0N@JAGMNFLC@prefMaxDelay?$AA@ 100073b0     libmp4v2:qosqualifiers.obj
 0001:000063c0       ??_7MP4PrefMaxDelayQosQualifier@@6B@ 100073c0     libmp4v2:qosqualifiers.obj
 0001:000063d8       ??_C@_08BHDJLMML@lossProb?$AA@ 100073d8     libmp4v2:qosqualifiers.obj
 0001:000063e4       ??_7MP4LossProbQosQualifier@@6B@ 100073e4     libmp4v2:qosqualifiers.obj
 0001:000063fc       ??_C@_0L@NDDOLEOK@maxGapLoss?$AA@ 100073fc     libmp4v2:qosqualifiers.obj
 0001:00006408       ??_7MP4MaxGapLossQosQualifier@@6B@ 10007408     libmp4v2:qosqualifiers.obj
 0001:00006420       ??_C@_09MKIPJPPE@maxAUSize?$AA@ 10007420     libmp4v2:qosqualifiers.obj
 0001:0000642c       ??_7MP4MaxAUSizeQosQualifier@@6B@ 1000742c     libmp4v2:qosqualifiers.obj
 0001:00006444       ??_C@_09LNIJHDEF@avgAUSize?$AA@ 10007444     libmp4v2:qosqualifiers.obj
 0001:00006450       ??_7MP4AvgAUSizeQosQualifier@@6B@ 10007450     libmp4v2:qosqualifiers.obj
 0001:00006468       ??_C@_09DIMFLDKB@maxAURate?$AA@ 10007468     libmp4v2:qosqualifiers.obj
 0001:00006474       ??_7MP4MaxAURateQosQualifier@@6B@ 10007474     libmp4v2:qosqualifiers.obj
 0001:00006828       get_h264_info              10007828 f   get_videoinfo.obj
 0001:00006bb4       get_mpeg4_info             10007bb4 f   get_videoinfo.obj
 0001:00006e0c       get_h263_info              10007e0c f   get_videoinfo.obj
 0001:00006f98       ??1CMP4ParserFilter@@UAA@XZ 10007f98 f   fSsapMp4Parser.obj
 0001:0000702c       ?GetSetupData@CBaseFilter@@UAAPAU_AMOVIESETUP_FILTER@@XZ 1000802c f i fSsapMp4Parser.obj
 0001:00007034       ?QueryInterface@CMP4ParserFilter@@MAAJABU_GUID@@PAPAX@Z 10008034 f i fSsapMp4Parser.obj
 0001:00007054       ?AddRef@CMP4ParserFilter@@MAAKXZ 10008054 f i fSsapMp4Parser.obj
 0001:00007074       ?Release@CMP4ParserFilter@@MAAKXZ 10008074 f i fSsapMp4Parser.obj
 0001:00007094       ?NonDelegatingQueryInterface@CMP4ParserFilter@@MAAJABU_GUID@@PAPAX@Z 10008094 f i fSsapMp4Parser.obj
 0001:000070f4       ?GetCurFile@CMP4ParserFilter@@MAAJPAPAGPAU_AMMediaType@@@Z 100080f4 f   fSsapMp4Parser.obj
 0001:00007158       ?GetAudioFrame@CMP4ParserFilter@@QAAHPAEPAIH@Z 10008158 f   fSsapMp4Parser.obj
 0001:000071f8       ?GetVideoFrameTime@CMP4ParserFilter@@QAANXZ 100081f8 f   fSsapMp4Parser.obj
 0001:0000721c       ?GetAudioFrameTime@CMP4ParserFilter@@QAANXZ 1000821c f   fSsapMp4Parser.obj
 0001:00007280       ?IsSyncSample@CMP4ParserFilter@@QAAIH@Z 10008280 f   fSsapMp4Parser.obj
 0001:0000729c       ?MakeVideoMediaType@CMP4ParserFilter@@AAAJPAVCMediaType@@@Z 1000829c f   fSsapMp4Parser.obj
 0001:0000769c       ?Release@CMP4ParserFilter@@O3AAKXZ 1000869c f i fSsapMp4Parser.obj
 0001:000076a4       ?Release@CMP4ParserFilter@@OGE@AAKXZ 100086a4 f i fSsapMp4Parser.obj
 0001:000076ac       ?AddRef@CMP4ParserFilter@@O3AAKXZ 100086ac f i fSsapMp4Parser.obj
 0001:000076b4       ?AddRef@CMP4ParserFilter@@OGE@AAKXZ 100086b4 f i fSsapMp4Parser.obj
 0001:000076bc       ?QueryInterface@CMP4ParserFilter@@O3AAJABU_GUID@@PAPAX@Z 100086bc f i fSsapMp4Parser.obj
 0001:000076c4       ?QueryInterface@CMP4ParserFilter@@OGE@AAJABU_GUID@@PAPAX@Z 100086c4 f i fSsapMp4Parser.obj
 0001:000076cc       ??0CMP4ParserFilter@@QAA@PAUIUnknown@@PAJ@Z 100086cc f   fSsapMp4Parser.obj
 0001:000077ac       ??_ECMP4ParserFilter@@UAAPAXI@Z 100087ac f i fSsapMp4Parser.obj
 0001:000077ac       ??_GCMP4ParserFilter@@UAAPAXI@Z 100087ac f i fSsapMp4Parser.obj
 0001:000077d4       ?GetVideoFrame@CMP4ParserFilter@@QAAHPAEPAI1H@Z 100087d4 f   fSsapMp4Parser.obj
 0001:00007a48       ?CheckFile@CMP4ParserFilter@@AAAJPBG@Z 10008a48 f   fSsapMp4Parser.obj
 0001:00007da0       ?MakeAudioMediaType@CMP4ParserFilter@@AAAJPAVCMediaType@@@Z 10008da0 f   fSsapMp4Parser.obj
 0001:00007f50       ?Load@CMP4ParserFilter@@MAAJPBGPBU_AMMediaType@@@Z 10008f50 f   fSsapMp4Parser.obj
 0001:00008110       ?IsActive@CBaseFilter@@QAAHXZ 10009110 f i fSsapMp4Parser_VideoOp.obj
 0001:0000814c       ?OnThreadCreate@CSourceStream@@MAAJXZ 1000914c f i fSsapMp4Parser_VideoOp.obj
 0001:00008154       ?OnThreadDestroy@CSourceStream@@MAAJXZ 10009154 f i fSsapMp4Parser_VideoOp.obj
 0001:0000815c       ??1CMP4ParserVideoOp@@UAA@XZ 1000915c f   fSsapMp4Parser_VideoOp.obj
 0001:000081e0       ?QueryInterface@CSourceSeeking@@UAAJABU_GUID@@PAPAX@Z 100091e0 f i fSsapMp4Parser_VideoOp.obj
 0001:00008200       ?AddRef@CSourceSeeking@@UAAKXZ 10009200 f i fSsapMp4Parser_VideoOp.obj
 0001:00008220       ?Release@CSourceSeeking@@UAAKXZ 10009220 f i fSsapMp4Parser_VideoOp.obj
 0001:00008240       ?QueryInterface@CBasePin@@UAAJABU_GUID@@PAPAX@Z 10009240 f i fSsapMp4Parser_VideoOp.obj
 0001:00008260       ?AddRef@CBasePin@@UAAKXZ   10009260 f i fSsapMp4Parser_VideoOp.obj
 0001:00008280       ?Release@CBasePin@@UAAKXZ  10009280 f i fSsapMp4Parser_VideoOp.obj
 0001:000082a0       ?QueryInternalConnections@CBasePin@@UAAJPAPAUIPin@@PAK@Z 100092a0 f i fSsapMp4Parser_VideoOp.obj
 0001:000082ac       ?Notify@CMP4ParserVideoOp@@MAAJPAUIBaseFilter@@UtagQuality@@@Z 100092ac f i fSsapMp4Parser_VideoOp.obj
 0001:000082b8       ?NonDelegatingQueryInterface@CMP4ParserVideoOp@@MAAJABU_GUID@@PAPAX@Z 100092b8 f i fSsapMp4Parser_VideoOp.obj
 0001:0000830c       ?GetMediaType@CMP4ParserVideoOp@@MAAJPAVCMediaType@@@Z 1000930c f   fSsapMp4Parser_VideoOp.obj
 0001:000083c4       ?DecideBufferSize@CMP4ParserVideoOp@@MAAJPAUIMemAllocator@@PAU_AllocatorProperties@@@Z 100093c4 f   fSsapMp4Parser_VideoOp.obj
 0001:00008464       ?FillBuffer@CMP4ParserVideoOp@@MAAJPAUIMediaSample@@@Z 10009464 f   fSsapMp4Parser_VideoOp.obj
 0001:000086c0       ?OnThreadCreate@CMP4ParserVideoOp@@MAAJXZ 100096c0 f   fSsapMp4Parser_VideoOp.obj
 0001:00008740       ?OnThreadDestroy@CMP4ParserVideoOp@@MAAJXZ 10009740 f   fSsapMp4Parser_VideoOp.obj
 0001:00008748       ?OnThreadStartPlay@CMP4ParserVideoOp@@MAAJXZ 10009748 f   fSsapMp4Parser_VideoOp.obj
 0001:000087b4       ?ChangeRate@CMP4ParserVideoOp@@MAAJXZ 100097b4 f   fSsapMp4Parser_VideoOp.obj
 0001:000087bc       ?UpdateFromSeek@CMP4ParserVideoOp@@IAAXXZ 100097bc f   fSsapMp4Parser_VideoOp.obj
 0001:00008818       ?SetTimeFormat@CMP4ParserVideoOp@@MAAJPBU_GUID@@@Z 10009818 f   fSsapMp4Parser_VideoOp.obj
 0001:00008894       ?GetTimeFormatW@CMP4ParserVideoOp@@MAAJPAU_GUID@@@Z 10009894 f   fSsapMp4Parser_VideoOp.obj
 0001:000088f8       ?IsUsingTimeFormat@CMP4ParserVideoOp@@MAAJPBU_GUID@@@Z 100098f8 f   fSsapMp4Parser_VideoOp.obj
 0001:00008914       ?IsFormatSupported@CMP4ParserVideoOp@@MAAJPBU_GUID@@@Z 10009914 f   fSsapMp4Parser_VideoOp.obj
 0001:00008954       ?QueryPreferredFormat@CMP4ParserVideoOp@@MAAJPAU_GUID@@@Z 10009954 f   fSsapMp4Parser_VideoOp.obj
 0001:00008994       ?ConvertTimeFormat@CMP4ParserVideoOp@@MAAJPA_JPBU_GUID@@_J1@Z 10009994 f   fSsapMp4Parser_VideoOp.obj
 0001:000089a0       ?SetPositions@CMP4ParserVideoOp@@MAAJPA_JK0K@Z 100099a0 f   fSsapMp4Parser_VideoOp.obj
 0001:000089c0       ?GetDuration@CMP4ParserVideoOp@@MAAJPA_J@Z 100099c0 f   fSsapMp4Parser_VideoOp.obj
 0001:000089e8       ?GetPositions@CMP4ParserVideoOp@@MAAJPA_J0@Z 100099e8 f   fSsapMp4Parser_VideoOp.obj
 0001:00008a18       ?GetCapabilities@CMP4ParserVideoOp@@MAAJPAK@Z 10009a18 f   fSsapMp4Parser_VideoOp.obj
 0001:00008a34       ?NonDelegatingQueryInterface@CMP4ParserVideoOp@@OKM@AAJABU_GUID@@PAPAX@Z 10009a34 f i fSsapMp4Parser_VideoOp.obj
 0001:00008a3c       ?Release@CBasePin@@W3AAKXZ 10009a3c f i fSsapMp4Parser_VideoOp.obj
 0001:00008a44       ??_ECMP4ParserVideoOp@@WOM@AAPAXI@Z 10009a44 f i fSsapMp4Parser_VideoOp.obj
 0001:00008a4c       ?AddRef@CBasePin@@W3AAKXZ  10009a4c f i fSsapMp4Parser_VideoOp.obj
 0001:00008a54       ??_ECMP4ParserVideoOp@@WEA@AAPAXI@Z 10009a54 f i fSsapMp4Parser_VideoOp.obj
 0001:00008a5c       ?QueryInterface@CBasePin@@W3AAJABU_GUID@@PAPAX@Z 10009a5c f i fSsapMp4Parser_VideoOp.obj
 0001:00008a64       ??0CMP4ParserVideoOp@@QAA@PAJPAVCMP4ParserFilter@@PBG@Z 10009a64 f   fSsapMp4Parser_VideoOp.obj
 0001:00008b24       ??_ECMP4ParserVideoOp@@UAAPAXI@Z 10009b24 f i fSsapMp4Parser_VideoOp.obj
 0001:00008b24       ??_GCMP4ParserVideoOp@@UAAPAXI@Z 10009b24 f i fSsapMp4Parser_VideoOp.obj
 0001:00008b4c       ?ChangeStart@CMP4ParserVideoOp@@MAAJXZ 10009b4c f   fSsapMp4Parser_VideoOp.obj
 0001:00008bbc       ?ChangeStop@CMP4ParserVideoOp@@MAAJXZ 10009bbc f   fSsapMp4Parser_VideoOp.obj
 0001:00008c10       ?SetRate@CMP4ParserVideoOp@@MAAJN@Z 10009c10 f   fSsapMp4Parser_VideoOp.obj
 0001:00008c7c       ??1CMP4ParserAudioOp@@UAA@XZ 10009c7c f   fSsapMp4Parser_AudioOp.obj
 0001:00008d00       ?Notify@CMP4ParserAudioOp@@MAAJPAUIBaseFilter@@UtagQuality@@@Z 10009d00 f i fSsapMp4Parser_AudioOp.obj
 0001:00008d0c       ?NonDelegatingQueryInterface@CMP4ParserAudioOp@@MAAJABU_GUID@@PAPAX@Z 10009d0c f i fSsapMp4Parser_AudioOp.obj
 0001:00008d60       ?GetMediaType@CMP4ParserAudioOp@@MAAJPAVCMediaType@@@Z 10009d60 f   fSsapMp4Parser_AudioOp.obj
 0001:00008e18       ?DecideBufferSize@CMP4ParserAudioOp@@MAAJPAUIMemAllocator@@PAU_AllocatorProperties@@@Z 10009e18 f   fSsapMp4Parser_AudioOp.obj
 0001:00008eac       ?FillBuffer@CMP4ParserAudioOp@@MAAJPAUIMediaSample@@@Z 10009eac f   fSsapMp4Parser_AudioOp.obj
 0001:00009070       ?OnThreadCreate@CMP4ParserAudioOp@@MAAJXZ 1000a070 f   fSsapMp4Parser_AudioOp.obj
 0001:000090f0       ?OnThreadDestroy@CMP4ParserAudioOp@@MAAJXZ 1000a0f0 f   fSsapMp4Parser_AudioOp.obj
 0001:000090f8       ?OnThreadStartPlay@CMP4ParserAudioOp@@MAAJXZ 1000a0f8 f   fSsapMp4Parser_AudioOp.obj
 0001:00009164       ?ChangeRate@CMP4ParserAudioOp@@MAAJXZ 1000a164 f   fSsapMp4Parser_AudioOp.obj
 0001:0000916c       ?UpdateFromSeek@CMP4ParserAudioOp@@IAAXXZ 1000a16c f   fSsapMp4Parser_AudioOp.obj
 0001:000091c8       ?SetTimeFormat@CMP4ParserAudioOp@@MAAJPBU_GUID@@@Z 1000a1c8 f   fSsapMp4Parser_AudioOp.obj
 0001:00009244       ?GetTimeFormatW@CMP4ParserAudioOp@@MAAJPAU_GUID@@@Z 1000a244 f   fSsapMp4Parser_AudioOp.obj
 0001:000092a8       ?IsUsingTimeFormat@CMP4ParserAudioOp@@MAAJPBU_GUID@@@Z 1000a2a8 f   fSsapMp4Parser_AudioOp.obj
 0001:000092c4       ?IsFormatSupported@CMP4ParserAudioOp@@MAAJPBU_GUID@@@Z 1000a2c4 f   fSsapMp4Parser_AudioOp.obj
 0001:00009304       ?QueryPreferredFormat@CMP4ParserAudioOp@@MAAJPAU_GUID@@@Z 1000a304 f   fSsapMp4Parser_AudioOp.obj
 0001:00009344       ?ConvertTimeFormat@CMP4ParserAudioOp@@MAAJPA_JPBU_GUID@@_J1@Z 1000a344 f   fSsapMp4Parser_AudioOp.obj
 0001:00009350       ?SetPositions@CMP4ParserAudioOp@@MAAJPA_JK0K@Z 1000a350 f   fSsapMp4Parser_AudioOp.obj
 0001:00009370       ?GetDuration@CMP4ParserAudioOp@@MAAJPA_J@Z 1000a370 f   fSsapMp4Parser_AudioOp.obj
 0001:00009398       ?GetPositions@CMP4ParserAudioOp@@MAAJPA_J0@Z 1000a398 f   fSsapMp4Parser_AudioOp.obj
 0001:000093c8       ?GetCapabilities@CMP4ParserAudioOp@@MAAJPAK@Z 1000a3c8 f   fSsapMp4Parser_AudioOp.obj
 0001:000093e4       ?NonDelegatingQueryInterface@CMP4ParserAudioOp@@OKM@AAJABU_GUID@@PAPAX@Z 1000a3e4 f i fSsapMp4Parser_AudioOp.obj
 0001:000093ec       ??_ECMP4ParserAudioOp@@WOM@AAPAXI@Z 1000a3ec f i fSsapMp4Parser_AudioOp.obj
 0001:000093f4       ??_ECMP4ParserAudioOp@@WEA@AAPAXI@Z 1000a3f4 f i fSsapMp4Parser_AudioOp.obj
 0001:000093fc       ??0CMP4ParserAudioOp@@QAA@PAJPAVCMP4ParserFilter@@PBG@Z 1000a3fc f   fSsapMp4Parser_AudioOp.obj
 0001:000094bc       ??_ECMP4ParserAudioOp@@UAAPAXI@Z 1000a4bc f i fSsapMp4Parser_AudioOp.obj
 0001:000094bc       ??_GCMP4ParserAudioOp@@UAAPAXI@Z 1000a4bc f i fSsapMp4Parser_AudioOp.obj
 0001:000094e4       ?ChangeStart@CMP4ParserAudioOp@@MAAJXZ 1000a4e4 f   fSsapMp4Parser_AudioOp.obj
 0001:00009554       ?ChangeStop@CMP4ParserAudioOp@@MAAJXZ 1000a554 f   fSsapMp4Parser_AudioOp.obj
 0001:000095a8       ?SetRate@CMP4ParserAudioOp@@MAAJN@Z 1000a5a8 f   fSsapMp4Parser_AudioOp.obj
 0001:00009614       DllRegisterServer          1000a614 f   SsapMp4Parser.obj
 0001:00009628       DllUnregisterServer        1000a628 f   SsapMp4Parser.obj
 0001:0000963c       ?CreateInstance@CMP4ParserFilter@@SAPAVCUnknown@@PAUIUnknown@@PAJ@Z 1000a63c f   SsapMp4Parser.obj
 0001:00009684       ?RemovePin@CSource@@QAAJPAVCSourceStream@@@Z 1000a684 f   strmbase:source.obj
 0001:00009728       ?FindPinNumber@CSource@@QAAHPAUIPin@@@Z 1000a728 f   strmbase:source.obj
 0001:00009778       ?QueryId@CSourceStream@@MAAJPAPAG@Z 1000a778 f   strmbase:source.obj
 0001:000097f4       ??1CSourceStream@@UAA@XZ   1000a7f4 f   strmbase:source.obj
 0001:00009850       ??_ECSourceStream@@WEA@AAPAXI@Z 1000a850 f i strmbase:source.obj
 0001:00009858       ?atoiW@@YAHPBG@Z           1000a858 f i strmbase:source.obj
 0001:00009894       ?OnThreadStartPlay@CSourceStream@@MAAJXZ 1000a894 f i strmbase:source.obj
 0001:0000989c       ?GetMediaType@CSourceStream@@MAAJPAVCMediaType@@@Z 1000a89c f i strmbase:source.obj
 0001:000098b0       ??0CSource@@QAA@PAGPAUIUnknown@@U_GUID@@@Z 1000a8b0 f   strmbase:source.obj
 0001:00009958       ?QueryInterface@CBaseFilter@@UAAJABU_GUID@@PAPAX@Z 1000a958 f i strmbase:source.obj
 0001:00009978       ?AddRef@CBaseFilter@@UAAKXZ 1000a978 f i strmbase:source.obj
 0001:00009998       ?Release@CBaseFilter@@UAAKXZ 1000a998 f i strmbase:source.obj
 0001:000099b8       ??1CSource@@UAA@XZ         1000a9b8 f   strmbase:source.obj
 0001:00009a40       ?AddPin@CSource@@QAAJPAVCSourceStream@@@Z 1000aa40 f   strmbase:source.obj
 0001:00009ad8       ?FindPin@CSource@@UAAJPBGPAPAUIPin@@@Z 1000aad8 f   strmbase:source.obj
 0001:00009b58       ?GetPinCount@CSource@@UAAHXZ 1000ab58 f   strmbase:source.obj
 0001:00009b80       ?GetPin@CSource@@UAAPAVCBasePin@@H@Z 1000ab80 f   strmbase:source.obj
 0001:00009bd8       ??0CSourceStream@@QAA@PAGPAJPAVCSource@@PBG@Z 1000abd8 f   strmbase:source.obj
 0001:00009c68       ??_GCSourceStream@@UAAPAXI@Z 1000ac68 f i strmbase:source.obj
 0001:00009c68       ??_ECSourceStream@@UAAPAXI@Z 1000ac68 f i strmbase:source.obj
 0001:00009c98       ?CheckMediaType@CSourceStream@@MAAJPBVCMediaType@@@Z 1000ac98 f   strmbase:source.obj
 0001:00009d28       ?GetMediaType@CSourceStream@@MAAJHPAVCMediaType@@@Z 1000ad28 f   strmbase:source.obj
 0001:00009d90       ?Active@CSourceStream@@MAAJXZ 1000ad90 f   strmbase:source.obj
 0001:00009e28       ?Inactive@CSourceStream@@MAAJXZ 1000ae28 f   strmbase:source.obj
 0001:00009ecc       ?ThreadProc@CSourceStream@@MAAKXZ 1000aecc f   strmbase:source.obj
 0001:00009fec       ?DoBufferProcessingLoop@CSourceStream@@MAAJXZ 1000afec f   strmbase:source.obj
 0001:0000a17c       ?Release@CBaseFilter@@W3AAKXZ 1000b17c f i strmbase:source.obj
 0001:0000a184       ?AddRef@CBaseFilter@@W3AAKXZ 1000b184 f i strmbase:source.obj
 0001:0000a18c       ?QueryInterface@CBaseFilter@@W3AAJABU_GUID@@PAPAX@Z 1000b18c f i strmbase:source.obj
 0001:0000a194       ??_ECSource@@UAAPAXI@Z     1000b194 f i strmbase:source.obj
 0001:0000a194       ??_GCSource@@UAAPAXI@Z     1000b194 f i strmbase:source.obj
 0001:0000a1bc       ?SetType@CMediaType@@QAAXPBU_GUID@@@Z 1000b1bc f   strmbase:mtype.obj
 0001:0000a1e0       ?SetSubtype@CMediaType@@QAAXPBU_GUID@@@Z 1000b1e0 f   strmbase:mtype.obj
 0001:0000a204       ?AllocFormatBuffer@CMediaType@@QAAPAEK@Z 1000b204 f   strmbase:mtype.obj
 0001:0000a264       ?ReallocFormatBuffer@CMediaType@@QAAPAEK@Z 1000b264 f   strmbase:mtype.obj
 0001:0000a2e4       ?InitMediaType@CMediaType@@QAAXXZ 1000b2e4 f   strmbase:mtype.obj
 0001:0000a30c       ?CopyMediaType@@YAXPAU_AMMediaType@@PBU1@@Z 1000b30c f   strmbase:mtype.obj
 0001:0000a370       ?FreeMediaType@@YAXAAU_AMMediaType@@@Z 1000b370 f   strmbase:mtype.obj
 0001:0000a3c0       ??1CMediaType@@QAA@XZ      1000b3c0 f   strmbase:mtype.obj
 0001:0000a3d0       ??0CMediaType@@QAA@XZ      1000b3d0 f   strmbase:mtype.obj
 0001:0000a3fc       ??4CMediaType@@QAAAAV0@ABV0@@Z 1000b3fc f   strmbase:mtype.obj
 0001:0000a42c       ??8CMediaType@@QBAHABV0@@Z 1000b42c f   strmbase:mtype.obj
 0001:0000a4bc       ?SetFormat@CMediaType@@QAAHPAEK@Z 1000b4bc f   strmbase:mtype.obj
 0001:0000a500       ?IsPartiallySpecified@CMediaType@@QBAHXZ 1000b500 f   strmbase:mtype.obj
 0001:0000a54c       ?MatchesPartial@CMediaType@@QBAHPBV1@@Z 1000b54c f   strmbase:mtype.obj
 0001:0000a630       ?DeleteMediaType@@YAXPAU_AMMediaType@@@Z 1000b630 f   strmbase:mtype.obj
 0001:0000a654       CreateMemoryAllocator      1000b654 f   strmbase:amfilter.obj
 0001:0000a68c       ?GetClassID@CBaseFilter@@UAAJPAU_GUID@@@Z 1000b68c f   strmbase:amfilter.obj
 0001:0000a6c8       ?GetState@CBaseFilter@@UAAJKPAW4_FilterState@@@Z 1000b6c8 f   strmbase:amfilter.obj
 0001:0000a6e4       ?QueryFilterInfo@CBaseFilter@@UAAJPAU_FilterInfo@@@Z 1000b6e4 f   strmbase:amfilter.obj
 0001:0000a758       ?QueryVendorInfo@CBaseFilter@@UAAJPAPAG@Z 1000b758 f   strmbase:amfilter.obj
 0001:0000a764       ?NotifyEvent@CBaseFilter@@QAAJJJJ@Z 1000b764 f   strmbase:amfilter.obj
 0001:0000a79c       ?GetPinVersion@CBaseFilter@@UAAJXZ 1000b79c f   strmbase:amfilter.obj
 0001:0000a7a4       ??1CEnumPins@@UAA@XZ       1000b7a4 f   strmbase:amfilter.obj
 0001:0000a7e0       ?QueryInterface@CEnumPins@@UAAJABU_GUID@@PAPAX@Z 1000b7e0 f   strmbase:amfilter.obj
 0001:0000a854       ?AddRef@CEnumPins@@UAAKXZ  1000b854 f   strmbase:amfilter.obj
 0001:0000a868       ?Release@CEnumPins@@UAAKXZ 1000b868 f   strmbase:amfilter.obj
 0001:0000a8a8       ?Reset@CEnumPins@@UAAJXZ   1000b8a8 f   strmbase:amfilter.obj
 0001:0000a904       ?Refresh@CEnumPins@@AAAJXZ 1000b904 f   strmbase:amfilter.obj
 0001:0000a954       ??1CEnumMediaTypes@@UAA@XZ 1000b954 f   strmbase:amfilter.obj
 0001:0000a984       ?QueryInterface@CEnumMediaTypes@@UAAJABU_GUID@@PAPAX@Z 1000b984 f   strmbase:amfilter.obj
 0001:0000a9f8       ?AddRef@CEnumMediaTypes@@UAAKXZ 1000b9f8 f   strmbase:amfilter.obj
 0001:0000aa0c       ?Release@CEnumMediaTypes@@UAAKXZ 1000ba0c f   strmbase:amfilter.obj
 0001:0000aa4c       ?Reset@CEnumMediaTypes@@UAAJXZ 1000ba4c f   strmbase:amfilter.obj
 0001:0000aa80       ??1CBasePin@@UAA@XZ        1000ba80 f   strmbase:amfilter.obj
 0001:0000aab0       ?NonDelegatingQueryInterface@CBasePin@@UAAJABU_GUID@@PAPAX@Z 1000bab0 f   strmbase:amfilter.obj
 0001:0000ab40       ?NonDelegatingAddRef@CBasePin@@UAAKXZ 1000bb40 f   strmbase:amfilter.obj
 0001:0000ab64       ?NonDelegatingRelease@CBasePin@@UAAKXZ 1000bb64 f   strmbase:amfilter.obj
 0001:0000ab88       ?SetMediaType@CBasePin@@UAAJPBVCMediaType@@@Z 1000bb88 f   strmbase:amfilter.obj
 0001:0000aba0       ?CheckConnect@CBasePin@@UAAJPAUIPin@@@Z 1000bba0 f   strmbase:amfilter.obj
 0001:0000abec       ?ConnectedTo@CBasePin@@UAAJPAPAUIPin@@@Z 1000bbec f   strmbase:amfilter.obj
 0001:0000ac40       ?QueryPinInfo@CBasePin@@UAAJPAU_PinInfo@@@Z 1000bc40 f   strmbase:amfilter.obj
 0001:0000accc       ?QueryDirection@CBasePin@@UAAJPAW4_PinDirection@@@Z 1000bccc f   strmbase:amfilter.obj
 0001:0000ace8       ?QueryAccept@CBasePin@@UAAJPBU_AMMediaType@@@Z 1000bce8 f   strmbase:amfilter.obj
 0001:0000ad24       ?GetMediaTypeVersion@CBasePin@@UAAJXZ 1000bd24 f   strmbase:amfilter.obj
 0001:0000ad2c       ?Run@CBasePin@@UAAJ_J@Z    1000bd2c f   strmbase:amfilter.obj
 0001:0000ad34       ?SetSink@CBasePin@@UAAJPAUIQualityControl@@@Z 1000bd34 f   strmbase:amfilter.obj
 0001:0000ad64       ?Notify@CBasePin@@UAAJPAUIBaseFilter@@UtagQuality@@@Z 1000bd64 f   strmbase:amfilter.obj
 0001:0000ad70       ?NewSegment@CBasePin@@UAAJ_J0N@Z 1000bd70 f   strmbase:amfilter.obj
 0001:0000adac       ?CompleteConnect@CBaseOutputPin@@UAAJPAUIPin@@@Z 1000bdac f   strmbase:amfilter.obj
 0001:0000add0       ?CheckConnect@CBaseOutputPin@@UAAJPAUIPin@@@Z 1000bdd0 f   strmbase:amfilter.obj
 0001:0000ae18       ?BreakConnect@CBaseOutputPin@@UAAJXZ 1000be18 f   strmbase:amfilter.obj
 0001:0000ae70       ?InitAllocator@CBaseOutputPin@@UAAJPAPAUIMemAllocator@@@Z 1000be70 f   strmbase:amfilter.obj
 0001:0000ae84       ?DecideAllocator@CBaseOutputPin@@UAAJPAUIMemInputPin@@PAPAUIMemAllocator@@@Z 1000be84 f   strmbase:amfilter.obj
 0001:0000b004       ?GetDeliveryBuffer@CBaseOutputPin@@UAAJPAPAUIMediaSample@@PA_J1K@Z 1000c004 f   strmbase:amfilter.obj
 0001:0000b04c       ?Deliver@CBaseOutputPin@@UAAJPAUIMediaSample@@@Z 1000c04c f   strmbase:amfilter.obj
 0001:0000b084       ?DeliverEndOfStream@CBaseOutputPin@@UAAJXZ 1000c084 f   strmbase:amfilter.obj
 0001:0000b0bc       ?Active@CBaseOutputPin@@UAAJXZ 1000c0bc f   strmbase:amfilter.obj
 0001:0000b0f4       ?Inactive@CBaseOutputPin@@UAAJXZ 1000c0f4 f   strmbase:amfilter.obj
 0001:0000b130       ?EndOfStream@CBaseOutputPin@@UAAJXZ 1000c130 f   strmbase:amfilter.obj
 0001:0000b13c       ?BeginFlush@CBaseOutputPin@@UAAJXZ 1000c13c f   strmbase:amfilter.obj
 0001:0000b148       ?EndFlush@CBaseOutputPin@@UAAJXZ 1000c148 f   strmbase:amfilter.obj
 0001:0000b154       ?DeliverBeginFlush@CBaseOutputPin@@UAAJXZ 1000c154 f   strmbase:amfilter.obj
 0001:0000b18c       ?DeliverEndFlush@CBaseOutputPin@@UAAJXZ 1000c18c f   strmbase:amfilter.obj
 0001:0000b1c4       ?DeliverNewSegment@CBaseOutputPin@@UAAJ_J0N@Z 1000c1c4 f   strmbase:amfilter.obj
 0001:0000b228       AMovieSetupRegisterFilter  1000c228 f   strmbase:amfilter.obj
 0001:0000b4cc       ?NonDelegatingQueryInterface@CBaseFilter@@UAAJABU_GUID@@PAPAX@Z 1000c4cc f   strmbase:amfilter.obj
 0001:0000b594       ??1CBaseFilter@@UAA@XZ     1000c594 f   strmbase:amfilter.obj
 0001:0000b5e0       ?SetSyncSource@CBaseFilter@@UAAJPAUIReferenceClock@@@Z 1000c5e0 f   strmbase:amfilter.obj
 0001:0000b640       ?GetSyncSource@CBaseFilter@@UAAJPAPAUIReferenceClock@@@Z 1000c640 f   strmbase:amfilter.obj
 0001:0000b6a0       ?Stop@CBaseFilter@@UAAJXZ  1000c6a0 f   strmbase:amfilter.obj
 0001:0000b754       ?Pause@CBaseFilter@@UAAJXZ 1000c754 f   strmbase:amfilter.obj
 0001:0000b800       ?Run@CBaseFilter@@UAAJ_J@Z 1000c800 f   strmbase:amfilter.obj
 0001:0000b8f4       ?StreamTime@CBaseFilter@@UAAJAAVCRefTime@@@Z 1000c8f4 f   strmbase:amfilter.obj
 0001:0000b964       ?JoinFilterGraph@CBaseFilter@@UAAJPAUIFilterGraph@@PBG@Z 1000c964 f   strmbase:amfilter.obj
 0001:0000ba38       ?Register@CBaseFilter@@UAAJXZ 1000ca38 f   strmbase:amfilter.obj
 0001:0000bad4       ?Unregister@CBaseFilter@@UAAJXZ 1000cad4 f   strmbase:amfilter.obj
 0001:0000bb88       ??_ECEnumPins@@UAAPAXI@Z   1000cb88 f i strmbase:amfilter.obj
 0001:0000bb88       ??_GCEnumPins@@UAAPAXI@Z   1000cb88 f i strmbase:amfilter.obj
 0001:0000bbb0       ?Next@CEnumPins@@UAAJKPAPAUIPin@@PAK@Z 1000cbb0 f   strmbase:amfilter.obj
 0001:0000bcf4       ?Skip@CEnumPins@@UAAJK@Z   1000ccf4 f   strmbase:amfilter.obj
 0001:0000bd5c       ??_ECEnumMediaTypes@@UAAPAXI@Z 1000cd5c f i strmbase:amfilter.obj
 0001:0000bd5c       ??_GCEnumMediaTypes@@UAAPAXI@Z 1000cd5c f i strmbase:amfilter.obj
 0001:0000bd8c       ?Next@CEnumMediaTypes@@UAAJKPAPAU_AMMediaType@@PAK@Z 1000cd8c f   strmbase:amfilter.obj
 0001:0000bf00       ?Skip@CEnumMediaTypes@@UAAJK@Z 1000cf00 f   strmbase:amfilter.obj
 0001:0000bfb4       ?AttemptConnection@CBasePin@@IAAJPAUIPin@@PBVCMediaType@@@Z 1000cfb4 f   strmbase:amfilter.obj
 0001:0000c110       ?TryMediaTypes@CBasePin@@IAAJPAUIPin@@PBVCMediaType@@PAUIEnumMediaTypes@@@Z 1000d110 f   strmbase:amfilter.obj
 0001:0000c24c       ?AgreeMediaType@CBasePin@@IAAJPAUIPin@@PBVCMediaType@@@Z 1000d24c f   strmbase:amfilter.obj
 0001:0000c3a4       ?ReceiveConnection@CBasePin@@UAAJPAUIPin@@PBU_AMMediaType@@@Z 1000d3a4 f   strmbase:amfilter.obj
 0001:0000c574       ?Disconnect@CBasePin@@UAAJXZ 1000d574 f   strmbase:amfilter.obj
 0001:0000c5f8       ?ConnectionMediaType@CBasePin@@UAAJPAU_AMMediaType@@@Z 1000d5f8 f   strmbase:amfilter.obj
 0001:0000c65c       ??0CEnumPins@@QAA@PAVCBaseFilter@@PAV0@@Z 1000d65c f   strmbase:amfilter.obj
 0001:0000c724       ?Clone@CEnumPins@@UAAJPAPAUIEnumPins@@@Z 1000d724 f   strmbase:amfilter.obj
 0001:0000c7b0       ??0CEnumMediaTypes@@QAA@PAVCBasePin@@PAV0@@Z 1000d7b0 f   strmbase:amfilter.obj
 0001:0000c830       ?Clone@CEnumMediaTypes@@UAAJPAPAUIEnumMediaTypes@@@Z 1000d830 f   strmbase:amfilter.obj
 0001:0000c8bc       ??0CBasePin@@QAA@PAGPAVCBaseFilter@@PAVCCritSec@@PAJPBGW4_PinDirection@@@Z 1000d8bc f   strmbase:amfilter.obj
 0001:0000c978       ?Connect@CBasePin@@UAAJPAUIPin@@PBU_AMMediaType@@@Z 1000d978 f   strmbase:amfilter.obj
 0001:0000ca14       ?EnumMediaTypes@CBasePin@@UAAJPAPAUIEnumMediaTypes@@@Z 1000da14 f   strmbase:amfilter.obj
 0001:0000ca74       ??0CBaseOutputPin@@QAA@PAGPAVCBaseFilter@@PAVCCritSec@@PAJPBG@Z 1000da74 f   strmbase:amfilter.obj
 0001:0000cab8       ??0CBaseFilter@@QAA@PBGPAUIUnknown@@PAVCCritSec@@ABU_GUID@@@Z 1000dab8 f   strmbase:amfilter.obj
 0001:0000cb20       ?EnumPins@CBaseFilter@@UAAJPAPAUIEnumPins@@@Z 1000db20 f   strmbase:amfilter.obj
 0001:0000cb80       ??0CBaseObject@@QAA@PBG@Z  1000db80 f   strmbase:combase.obj
 0001:0000cba0       ??1CBaseObject@@QAA@XZ     1000dba0 f   strmbase:combase.obj
 0001:0000cbdc       GetInterface               1000dbdc f   strmbase:combase.obj
 0001:0000cc14       ??0CUnknown@@QAA@PBGPAUIUnknown@@@Z 1000dc14 f   strmbase:combase.obj
 0001:0000cc58       ?NonDelegatingQueryInterface@CUnknown@@UAAJABU_GUID@@PAPAX@Z 1000dc58 f   strmbase:combase.obj
 0001:0000ccc4       ?NonDelegatingAddRef@CUnknown@@UAAKXZ 1000dcc4 f   strmbase:combase.obj
 0001:0000cce8       ?NonDelegatingRelease@CUnknown@@UAAKXZ 1000dce8 f   strmbase:combase.obj
 0001:0000d12c       ?_internal_SetThreadPriorityEx@@YAHPAXH@Z 1000e12c f   strmbase:wxutil.obj
 0001:0000d1d4       ?InitialThreadProc@CAMThread@@SAKPAX@Z 1000e1d4 f   strmbase:wxutil.obj
 0001:0000d1f0       ?lstrcpynWInternal@@YAPAGPAGPBGH@Z 1000e1f0 f   strmbase:wxutil.obj
 0001:0000d230       ?IntToWstr@@YAXHPAG@Z      1000e230 f   strmbase:wxutil.obj
 0001:0000d254       ??0CAMThread@@QAA@XZ       1000e254 f   strmbase:wxutil.obj
 0001:0000d2b8       ??1CAMThread@@QAA@XZ       1000e2b8 f   strmbase:wxutil.obj
 0001:0000d324       ?Create@CAMThread@@QAAHXZ  1000e324 f   strmbase:wxutil.obj
 0001:0000d3b0       ?CallWorker@CAMThread@@QAAKK@Z 1000e3b0 f   strmbase:wxutil.obj
 0001:0000d40c       ?GetRequest@CAMThread@@QAAKXZ 1000e40c f   strmbase:wxutil.obj
 0001:0000d42c       ?CheckRequest@CAMThread@@QAAHPAK@Z 1000e42c f   strmbase:wxutil.obj
 0001:0000d46c       ?Reply@CAMThread@@QAAXK@Z  1000e46c f   strmbase:wxutil.obj
 0001:0000d49c       ?NonDelegatingQueryInterface@CSourceSeeking@@UAAJABU_GUID@@PAPAX@Z 1000e49c f   strmbase:ctlutil.obj
 0001:0000d508       ?GetStopPosition@CSourceSeeking@@UAAJPA_J@Z 1000e508 f   strmbase:ctlutil.obj
 0001:0000d554       ?GetCurrentPosition@CSourceSeeking@@UAAJPA_J@Z 1000e554 f   strmbase:ctlutil.obj
 0001:0000d560       ?CheckCapabilities@CSourceSeeking@@UAAJPAK@Z 1000e560 f   strmbase:ctlutil.obj
 0001:0000d5a0       ?SetPositions@CSourceSeeking@@UAAJPA_JK0K@Z 1000e5a0 f   strmbase:ctlutil.obj
 0001:0000d70c       ?GetAvailable@CSourceSeeking@@UAAJPA_J0@Z 1000e70c f   strmbase:ctlutil.obj
 0001:0000d760       ?GetRate@CSourceSeeking@@UAAJPAN@Z 1000e760 f   strmbase:ctlutil.obj
 0001:0000d7ac       ?GetPreroll@CSourceSeeking@@UAAJPA_J@Z 1000e7ac f   strmbase:ctlutil.obj
 0001:0000d7cc       ??0CSourceSeeking@@IAA@PBGPAUIUnknown@@PAJPAVCCritSec@@@Z 1000e7cc f   strmbase:ctlutil.obj
 0001:0000d848       EliminateSubKey            1000e848 f   strmbase:dllsetup.obj
 0001:0000d964       AMovieSetupRegisterServer  1000e964 f   strmbase:dllsetup.obj
 0001:0000db8c       AMovieSetupUnregisterServer 1000eb8c f   strmbase:dllsetup.obj
 0001:0000dc18       AMovieDllRegisterServer    1000ec18 f   strmbase:dllsetup.obj
 0001:0000ddd4       AMovieDllUnregisterServer  1000edd4 f   strmbase:dllsetup.obj
 0001:0000deec       AMovieDllRegisterServer2   1000eeec f   strmbase:dllsetup.obj
 0001:0000df10       ?AddRef@CClassFactory@@UAAKXZ 1000ef10 f   strmbase:dllentry.obj
 0001:0000df24       ?LockServer@CClassFactory@@UAAJH@Z 1000ef24 f   strmbase:dllentry.obj
 0001:0000df48       ?InCOMBaseIsEqualGUID@@YAHABU_GUID@@0@Z 1000ef48 f i strmbase:dllentry.obj
 0001:0000df90       ?QueryInterface@CClassFactory@@UAAJABU_GUID@@PAPAX@Z 1000ef90 f   strmbase:dllentry.obj
 0001:0000e034       ?CreateInstance@CClassFactory@@UAAJPAUIUnknown@@ABU_GUID@@PAPAX@Z 1000f034 f   strmbase:dllentry.obj
 0001:0000e13c       DllCanUnloadNow            1000f13c f   strmbase:dllentry.obj
 0001:0000e170       ??0CClassFactory@@QAA@PBVCFactoryTemplate@@@Z 1000f170 f   strmbase:dllentry.obj
 0001:0000e1a8       ?Release@CClassFactory@@UAAKXZ 1000f1a8 f   strmbase:dllentry.obj
 0001:0000e1e8       DllGetClassObject          1000f1e8 f   strmbase:dllentry.obj
 0001:0000e304       ??0CBaseList@@QAA@PAG@Z    1000f304 f   strmbase:wxlist.obj
 0001:0000e32c       ?RemoveAll@CBaseList@@QAAXXZ 1000f32c f   strmbase:wxlist.obj
 0001:0000e36c       ?FindI@CBaseList@@IBAPAU__POSITION@@PAX@Z 1000f36c f   strmbase:wxlist.obj
 0001:0000e3ac       ?AddTailI@CBaseList@@IAAPAU__POSITION@@PAX@Z 1000f3ac f   strmbase:wxlist.obj
 0001:0000e430       ?AddTail@CBaseList@@QAAHPAV1@@Z 1000f430 f   strmbase:wxlist.obj
 0001:0000e488       ??1CBaseList@@QAA@XZ       1000f488 f   strmbase:wxlist.obj
 0001:0000e4bc       CoTaskMemAlloc             1000f4bc f   ole32:ole32.dll
 0001:0000e4cc       CoTaskMemFree              1000f4cc f   ole32:ole32.dll
 0001:0000e4dc       CoCreateInstance           1000f4dc f   ole32:ole32.dll
 0001:0000e4ec       CoUninitialize             1000f4ec f   ole32:ole32.dll
 0001:0000e4fc       CoFreeUnusedLibraries      1000f4fc f   ole32:ole32.dll
 0001:0000e50c       CoInitializeEx             1000f50c f   ole32:ole32.dll
 0001:0000e51c       StringFromGUID2            1000f51c f   ole32:ole32.dll
 0001:0000e52c       EnterCriticalSection       1000f52c f   coredll:COREDLL.dll
 0001:0000e53c       LeaveCriticalSection       1000f53c f   coredll:COREDLL.dll
 0001:0000e54c       NKDbgPrintfW               1000f54c f   coredll:COREDLL.dll
 0001:0000e55c       InitializeCriticalSection  1000f55c f   coredll:COREDLL.dll
 0001:0000e56c       DeleteCriticalSection      1000f56c f   coredll:COREDLL.dll
 0001:0000e57c       GetTickCount               1000f57c f   coredll:COREDLL.dll
 0001:0000e58c       CloseHandle                1000f58c f   coredll:COREDLL.dll
 0001:0000e59c       WaitForSingleObject        1000f59c f   coredll:COREDLL.dll
 0001:0000e5ac       InterlockedExchange        1000f5ac f   coredll:COREDLL.dll
 0001:0000e5bc       Sleep                      1000f5bc f   coredll:COREDLL.dll
 0001:0000e5cc       InterlockedIncrement       1000f5cc f   coredll:COREDLL.dll
 0001:0000e5dc       InterlockedDecrement       1000f5dc f   coredll:COREDLL.dll
 0001:0000e5ec       FreeLibrary                1000f5ec f   coredll:COREDLL.dll
 0001:0000e5fc       RegCloseKey                1000f5fc f   coredll:COREDLL.dll
 0001:0000e60c       RegQueryValueExW           1000f60c f   coredll:COREDLL.dll
 0001:0000e61c       RegOpenKeyExW              1000f61c f   coredll:COREDLL.dll
 0001:0000e62c       CeSetThreadPriority        1000f62c f   coredll:COREDLL.dll
 0001:0000e63c       CreateEventW               1000f63c f   coredll:COREDLL.dll
 0001:0000e64c       EventModify                1000f64c f   coredll:COREDLL.dll
 0001:0000e65c       wsprintfW                  1000f65c f   coredll:COREDLL.dll
 0001:0000e66c       GetLastError               1000f66c f   coredll:COREDLL.dll
 0001:0000e67c       CreateThread               1000f67c f   coredll:COREDLL.dll
 0001:0000e68c       RegDeleteKeyW              1000f68c f   coredll:COREDLL.dll
 0001:0000e69c       RegEnumKeyExW              1000f69c f   coredll:COREDLL.dll
 0001:0000e6ac       RegSetValueExW             1000f6ac f   coredll:COREDLL.dll
 0001:0000e6bc       RegCreateKeyExW            1000f6bc f   coredll:COREDLL.dll
 0001:0000e6cc       GetModuleFileNameW         1000f6cc f   coredll:COREDLL.dll
 0001:0000e6dc       DisableThreadLibraryCalls  1000f6dc f   coredll:COREDLL.dll
 0001:0000e6ec       ?MP4Malloc@@YAPAXI@Z       1000f6ec f i libmp4v2:mp4.obj
 0001:0000e764       MP4ReadWchar               1000f764 f   libmp4v2:mp4.obj
 0001:0000e7e4       MP4Close                   1000f7e4 f   libmp4v2:mp4.obj
 0001:0000e854       MP4GetAmrModeSet           1000f854 f   libmp4v2:mp4.obj
 0001:0000e8b4       MP4FindTrackId             1000f8b4 f   libmp4v2:mp4.obj
 0001:0000e90c       MP4GetTrackMediaDataName   1000f90c f   libmp4v2:mp4.obj
 0001:0000e964       MP4GetTrackDuration        1000f964 f   libmp4v2:mp4.obj
 0001:0000e9cc       MP4GetTrackTimeScale       1000f9cc f   libmp4v2:mp4.obj
 0001:0000ea24       MP4GetTrackESConfiguration 1000fa24 f   libmp4v2:mp4.obj
 0001:0000eab0       MP4GetTrackH264SeqPictHeaders 1000fab0 f   libmp4v2:mp4.obj
 0001:0000eb24       MP4GetTrackH264LengthSize  1000fb24 f   libmp4v2:mp4.obj
 0001:0000eb80       MP4GetTrackNumberOfSamples 1000fb80 f   libmp4v2:mp4.obj
 0001:0000ebd8       MP4GetTrackVideoFrameRate  1000fbd8 f   libmp4v2:mp4.obj
 0001:0000ec40       MP4ReadSample              1000fc40 f   libmp4v2:mp4.obj
 0001:0000ecdc       MP4GetTrackMaxSampleSize   1000fcdc f   libmp4v2:mp4.obj
 0001:0000ed34       MP4GetSampleSync           1000fd34 f   libmp4v2:mp4.obj
 0001:0000ed8c       ??0MP4Error@@QAA@PBD0ZZ    1000fd8c f i libmp4v2:mp4file.obj
 0001:0000eddc       ??0MP4Error@@QAA@HPBD0ZZ   1000fddc f i libmp4v2:mp4file.obj
 0001:0000ee28       ?MP4Realloc@@YAPAXPAXI@Z   1000fe28 f i libmp4v2:mp4file.obj
 0001:0000eea4       ?MP4GetAbsTimestamp@@YA_KXZ 1000fea4 f i libmp4v2:mp4file.obj
 0001:0000eedc       ??AMP4Integer8Array@@QAAAAEI@Z 1000fedc f i libmp4v2:mp4file.obj
 0001:0000ef7c       ??AMP4Integer16Array@@QAAAAGI@Z 1000ff7c f i libmp4v2:mp4file.obj
 0001:0000f01c       ?Insert@MP4Integer32Array@@QAAXII@Z 1001001c f i libmp4v2:mp4file.obj
 0001:0000f0ec       ??AMP4Integer32Array@@QAAAAII@Z 100100ec f i libmp4v2:mp4file.obj
 0001:0000f18c       ??AMP4Integer64Array@@QAAAA_KI@Z 1001018c f i libmp4v2:mp4file.obj
 0001:0000f22c       ??AMP4Float32Array@@QAAAAMI@Z 1001022c f i libmp4v2:mp4file.obj
 0001:0000f2cc       ??AMP4StringArray@@QAAAAPADI@Z 100102cc f i libmp4v2:mp4file.obj
 0001:0000f36c       ??AMP4BytesArray@@QAAAAPAEI@Z 1001036c f i libmp4v2:mp4file.obj
 0001:0000f40c       ?Insert@MP4TrackArray@@QAAXPAVMP4Track@@I@Z 1001040c f i libmp4v2:mp4file.obj
 0001:0000f4dc       ??AMP4TrackArray@@QAAAAPAVMP4Track@@I@Z 100104dc f i libmp4v2:mp4file.obj
 0001:0000f57c       ??AMP4PropertyArray@@QAAAAPAVMP4Property@@I@Z 1001057c f i libmp4v2:mp4file.obj
 0001:0000f61c       ?SetValue@MP4Integer32Property@@QAAXII@Z 1001061c f i libmp4v2:mp4file.obj
 0001:0000f698       ?SetValue@MP4Float32Property@@QAAXMI@Z 10010698 f i libmp4v2:mp4file.obj
 0001:0000f714       ?GetValue@MP4BytesProperty@@QAAXPAPAEPAII@Z 10010714 f i libmp4v2:mp4file.obj
 0001:0000f78c       ?Insert@MP4AtomArray@@QAAXPAVMP4Atom@@I@Z 1001078c f i libmp4v2:mp4file.obj
 0001:0000f85c       ?Delete@MP4AtomArray@@QAAXI@Z 1001085c f i libmp4v2:mp4file.obj
 0001:0000f908       ??AMP4AtomArray@@QAAAAPAVMP4Atom@@I@Z 10010908 f i libmp4v2:mp4file.obj
 0001:0000f9a8       ?DeleteChildAtom@MP4Atom@@QAAXPAV1@@Z 100109a8 f i libmp4v2:mp4file.obj
 0001:0000fa08       ??0MP4File@@QAA@I@Z        10010a08 f   libmp4v2:mp4file.obj
 0001:0000faa4       ??1MP4File@@QAA@XZ         10010aa4 f   libmp4v2:mp4file.obj
 0001:0000fb9c       ?Use64Bits@MP4File@@QAA_NPBD@Z 10010b9c f   libmp4v2:mp4file.obj
 0001:0000fc4c       ?Check64BitStatus@MP4File@@QAAXPBD@Z 10010c4c f   libmp4v2:mp4file.obj
 0001:0000fce4       ?Open@MP4File@@IAAXPBG@Z   10010ce4 f   libmp4v2:mp4file.obj
 0001:0000fda0       ?FinishWrite@MP4File@@IAAXXZ 10010da0 f   libmp4v2:mp4file.obj
 0001:0000feb0       ?FindAtom@MP4File@@QAAPAVMP4Atom@@PBD@Z 10010eb0 f   libmp4v2:mp4file.obj
 0001:0000fef8       ?FindIntegerProperty@MP4File@@IAAXPBDPAPAVMP4Property@@PAI@Z 10010ef8 f   libmp4v2:mp4file.obj
 0001:0000ffb4       ?SetIntegerProperty@MP4File@@QAAXPBD_K@Z 10010fb4 f   libmp4v2:mp4file.obj
 0001:0001002c       ?FindBytesProperty@MP4File@@IAAXPBDPAPAVMP4Property@@PAI@Z 1001102c f   libmp4v2:mp4file.obj
 0001:000100e0       ?GetBytesProperty@MP4File@@QAAXPBDPAPAEPAI@Z 100110e0 f   libmp4v2:mp4file.obj
 0001:0001011c       ?FindTrackIndex@MP4File@@QAAGI@Z 1001111c f   libmp4v2:mp4file.obj
 0001:000101c0       ?FindTrakAtomIndex@MP4File@@QAAGI@Z 100111c0 f   libmp4v2:mp4file.obj
 0001:0001025c       ?GetTrackMaxSampleSize@MP4File@@QAAII@Z 1001125c f   libmp4v2:mp4file.obj
 0001:00010284       ?GetSampleSync@MP4File@@QAA_NII@Z 10011284 f   libmp4v2:mp4file.obj
 0001:000102b4       ?ReadSample@MP4File@@QAAXIIPAPAEPAIPA_K22PA_N@Z 100112b4 f   libmp4v2:mp4file.obj
 0001:00010318       ?MakeTrackName@MP4File@@IAAPADIPBD@Z 10011318 f   libmp4v2:mp4file.obj
 0001:0001039c       ?GetTrackIntegerProperty@MP4File@@QAA_KIPBD@Z 1001139c f   libmp4v2:mp4file.obj
 0001:000103d8       ?GetTrackNumberOfSamples@MP4File@@QAAII@Z 100113d8 f   libmp4v2:mp4file.obj
 0001:00010400       ?GetTrackMediaDataName@MP4File@@QAAPBDI@Z 10011400 f   libmp4v2:mp4file.obj
 0001:00010480       ?GetTrackTimeScale@MP4File@@QAAII@Z 10011480 f   libmp4v2:mp4file.obj
 0001:000104a8       ?GetTrackDuration@MP4File@@QAA_KI@Z 100114a8 f   libmp4v2:mp4file.obj
 0001:000104c8       ?GetTrackEsdsObjectTypeId@MP4File@@QAAEI@Z 100114c8 f   libmp4v2:mp4file.obj
 0001:00010544       ?GetTrackESConfiguration@MP4File@@QAAXIPAPAEPAI@Z 10011544 f   libmp4v2:mp4file.obj
 0001:000105d8       ?GetTrackH264LengthSize@MP4File@@QAAXIPAI@Z 100115d8 f   libmp4v2:mp4file.obj
 0001:00010608       ?GetTrackH264SeqPictHeaders@MP4File@@QAA_NIPAPAPAEPAPAI01@Z 10011608 f   libmp4v2:mp4file.obj
 0001:000108b0       ?ConvertFromTrackDuration@MP4File@@QAA_KI_KI@Z 100118b0 f   libmp4v2:mp4file.obj
 0001:000108fc       ?GenerateTracks@MP4File@@IAAXXZ 100118fc f   libmp4v2:mp4file.obj
 0001:00010b14       ?CacheProperties@MP4File@@IAAXXZ 10011b14 f   libmp4v2:mp4file.obj
 0001:00010b68       ?Close@MP4File@@QAAXXZ     10011b68 f   libmp4v2:mp4file.obj
 0001:00010bb8       ?GetAmrModeSet@MP4File@@QAAGI@Z 10011bb8 f   libmp4v2:mp4file.obj
 0001:00010be4       ?FindTrackId@MP4File@@QAAIGPBDE@Z 10011be4 f   libmp4v2:mp4file.obj
 0001:00010cfc       ?GetTrackVideoFrameRate@MP4File@@QAANI@Z 10011cfc f   libmp4v2:mp4file.obj
 0001:00010dbc       ?ReadFromFile@MP4File@@IAAXXZ 10011dbc f   libmp4v2:mp4file.obj
 0001:00010e40       ?Read@MP4File@@QAAXPBG@Z   10011e40 f   libmp4v2:mp4file.obj
 0001:00010ea0       ?Insert@MP4Integer64Array@@QAAX_KI@Z 10011ea0 f i libmp4v2:mp4track.obj
 0001:00010f78       ?SetValue@MP4Integer64Property@@QAAX_KI@Z 10011f78 f i libmp4v2:mp4track.obj
 0001:00010ffc       ??1MP4Track@@UAA@XZ        10011ffc f   libmp4v2:mp4track.obj
 0001:00011038       ?GetType@MP4Track@@QAAPBDXZ 10012038 f   libmp4v2:mp4track.obj
 0001:00011058       ?GetNumberOfSamples@MP4Track@@QAAIXZ 10012058 f   libmp4v2:mp4track.obj
 0001:00011078       ?GetSampleSize@MP4Track@@QAAII@Z 10012078 f   libmp4v2:mp4track.obj
 0001:000110d0       ?GetMaxSampleSize@MP4Track@@QAAIXZ 100120d0 f   libmp4v2:mp4track.obj
 0001:00011160       ?GetTotalOfSampleSizes@MP4Track@@QAA_KXZ 10012160 f   libmp4v2:mp4track.obj
 0001:00011218       ?GetSampleStscIndex@MP4Track@@IAAII@Z 10012218 f   libmp4v2:mp4track.obj
 0001:000112dc       ?GetSampleFile@MP4Track@@IAAPAXI@Z 100122dc f   libmp4v2:mp4track.obj
 0001:000114d8       ?GetSampleFileOffset@MP4Track@@IAA_KI@Z 100124d8 f   libmp4v2:mp4track.obj
 0001:0001158c       ?GetSampleTimes@MP4Track@@QAAXIPA_K0@Z 1001258c f   libmp4v2:mp4track.obj
 0001:000116d0       ?GetSampleCttsIndex@MP4Track@@IAAIIPAI@Z 100126d0 f   libmp4v2:mp4track.obj
 0001:00011798       ?GetSampleRenderingOffset@MP4Track@@QAA_KI@Z 10012798 f   libmp4v2:mp4track.obj
 0001:00011804       ?IsSyncSample@MP4Track@@QAA_NI@Z 10012804 f   libmp4v2:mp4track.obj
 0001:0001187c       ?GetDuration@MP4Track@@QAA_KXZ 1001287c f   libmp4v2:mp4track.obj
 0001:00011894       ?GetTimeScale@MP4Track@@QAAIXZ 10012894 f   libmp4v2:mp4track.obj
 0001:000118b4       ?InitEditListProperties@MP4Track@@IAA_NXZ 100128b4 f   libmp4v2:mp4track.obj
 0001:000119b8       ?CalculateBytesPerSample@MP4Track@@IAAXXZ 100129b8 f   libmp4v2:mp4track.obj
 0001:00011aa4       ??0MP4Track@@QAA@PAVMP4File@@PAVMP4Atom@@@Z 10012aa4 f   libmp4v2:mp4track.obj
 0001:00011f48       ??_GMP4Track@@UAAPAXI@Z    10012f48 f i libmp4v2:mp4track.obj
 0001:00011f48       ??_EMP4Track@@UAAPAXI@Z    10012f48 f i libmp4v2:mp4track.obj
 0001:00011f70       ?GetAvgBitrate@MP4Track@@QAAIXZ 10012f70 f   libmp4v2:mp4track.obj
 0001:00012048       ?GetMaxBitrate@MP4Track@@QAAIXZ 10013048 f   libmp4v2:mp4track.obj
 0001:00012204       ?UpdateSampleToChunk@MP4Track@@IAAXIII@Z 10013204 f   libmp4v2:mp4track.obj
 0001:000122b8       ?UpdateChunkOffsets@MP4Track@@IAAX_K@Z 100132b8 f   libmp4v2:mp4track.obj
 0001:00012328       ?WriteChunkBuffer@MP4Track@@IAAXXZ 10013328 f   libmp4v2:mp4track.obj
 0001:00012414       ?FinishWrite@MP4Track@@UAAXXZ 10013414 f   libmp4v2:mp4track.obj
 0001:000124e4       ?ReadSample@MP4Track@@QAAXIPAPAEPAIPA_K22PA_N@Z 100134e4 f   libmp4v2:mp4track.obj
 0001:00012888       ?AddValue@MP4StringProperty@@QAAXPBD@Z 10013888 f i libmp4v2:3gp.obj
 0001:000128d8       ?SetValue@MP4Integer8Property@@QAAXEI@Z 100138d8 f i libmp4v2:isma.obj
 0001:00012954       ?SetValue@MP4Integer16Property@@QAAXGI@Z 10013954 f i libmp4v2:isma.obj
 0001:000129d0       ?MP4NameFirstMatches@@YA_NPBD0@Z 100139d0 f   libmp4v2:mp4util.obj
 0001:00012a70       ?MP4NameFirstIndex@@YA_NPBDPAI@Z 10013a70 f   libmp4v2:mp4util.obj
 0001:00012ad4       ?MP4NameAfterFirst@@YAPBDPBD@Z 10013ad4 f   libmp4v2:mp4util.obj
 0001:00012b10       ?MP4ConvertTime@@YA_K_KII@Z 10013b10 f   libmp4v2:mp4util.obj
 0001:00012c9c       ?MP4NormalizeTrackType@@YAPBDPBDI@Z 10013c9c f   libmp4v2:mp4util.obj
 0001:00012ea8       ?Insert@MP4DescriptorArray@@QAAXPAVMP4Descriptor@@I@Z 10013ea8 f i libmp4v2:mp4property.obj
 0001:00012f78       ??AMP4DescriptorArray@@QAAAAPAVMP4Descriptor@@I@Z 10013f78 f i libmp4v2:mp4property.obj
 0001:00013018       ?SetParentAtom@MP4Property@@UAAXPAVMP4Atom@@@Z 10014018 f i libmp4v2:mp4property.obj
 0001:00013020       ?Generate@MP4Property@@UAAXXZ 10014020 f i libmp4v2:mp4property.obj
 0001:00013024       ??_EMP4Property@@UAAPAXI@Z 10014024 f i libmp4v2:mp4property.obj
 0001:00013024       ??_GMP4Property@@UAAPAXI@Z 10014024 f i libmp4v2:mp4property.obj
 0001:0001304c       ?Insert@MP4PropertyArray@@QAAXPAVMP4Property@@I@Z 1001404c f i libmp4v2:mp4property.obj
 0001:0001311c       ?SetValue@MP4Integer24Property@@QAAXII@Z 1001411c f i libmp4v2:mp4property.obj
 0001:00013198       ?GetCount@MP4StringProperty@@UAAIXZ 10014198 f i libmp4v2:mp4property.obj
 0001:000131a0       ?GetCount@MP4BytesProperty@@UAAIXZ 100141a0 f i libmp4v2:mp4property.obj
 0001:000131a8       ?SetParentAtom@MP4Descriptor@@QAAXPAVMP4Atom@@@Z 100141a8 f i libmp4v2:mp4property.obj
 0001:00013204       ??0MP4Property@@QAA@PBD@Z  10014204 f   libmp4v2:mp4property.obj
 0001:00013228       ?FindProperty@MP4Property@@UAA_NPBDPAPAV1@PAI@Z 10014228 f   libmp4v2:mp4property.obj
 0001:00013298       ?GetValue@MP4IntegerProperty@@QAA_KI@Z 10014298 f   libmp4v2:mp4property.obj
 0001:00013340       ?SetValue@MP4IntegerProperty@@QAAX_KI@Z 10014340 f   libmp4v2:mp4property.obj
 0001:0001340c       ?Dump@MP4Integer8Property@@UAAXPAXE_NI@Z 1001440c f   libmp4v2:mp4property.obj
 0001:000134e4       ?Dump@MP4Integer16Property@@UAAXPAXE_NI@Z 100144e4 f   libmp4v2:mp4property.obj
 0001:000135bc       ?Dump@MP4Integer24Property@@UAAXPAXE_NI@Z 100145bc f   libmp4v2:mp4property.obj
 0001:00013694       ?Dump@MP4Integer32Property@@UAAXPAXE_NI@Z 10014694 f   libmp4v2:mp4property.obj
 0001:0001376c       ?Dump@MP4Integer64Property@@UAAXPAXE_NI@Z 1001476c f   libmp4v2:mp4property.obj
 0001:00013864       ?Read@MP4BitfieldProperty@@UAAXPAVMP4File@@I@Z 10014864 f   libmp4v2:mp4property.obj
 0001:000138ac       ?Write@MP4BitfieldProperty@@UAAXPAVMP4File@@I@Z 100148ac f   libmp4v2:mp4property.obj
 0001:000138ec       ?Dump@MP4BitfieldProperty@@UAAXPAXE_NI@Z 100148ec f   libmp4v2:mp4property.obj
 0001:00013a2c       ?Read@MP4Float32Property@@UAAXPAVMP4File@@I@Z 10014a2c f   libmp4v2:mp4property.obj
 0001:00013a90       ?Write@MP4Float32Property@@UAAXPAVMP4File@@I@Z 10014a90 f   libmp4v2:mp4property.obj
 0001:00013b10       ?Dump@MP4Float32Property@@UAAXPAXE_NI@Z 10014b10 f   libmp4v2:mp4property.obj
 0001:00013bd8       ??1MP4StringProperty@@UAA@XZ 10014bd8 f   libmp4v2:mp4property.obj
 0001:00013c48       ?GetType@MP4StringProperty@@UAA?AW4MP4PropertyType@@XZ 10014c48 f i libmp4v2:mp4property.obj
 0001:00013c50       ?SetCount@MP4StringProperty@@UAAXI@Z 10014c50 f   libmp4v2:mp4property.obj
 0001:00013ca8       ?SetValue@MP4StringProperty@@QAAXPBDI@Z 10014ca8 f   libmp4v2:mp4property.obj
 0001:00013de8       ?Read@MP4StringProperty@@UAAXPAVMP4File@@I@Z 10014de8 f   libmp4v2:mp4property.obj
 0001:00013ee4       ?Write@MP4StringProperty@@UAAXPAVMP4File@@I@Z 10014ee4 f   libmp4v2:mp4property.obj
 0001:00013f94       ?Dump@MP4StringProperty@@UAAXPAXE_NI@Z 10014f94 f   libmp4v2:mp4property.obj
 0001:00014084       ??1MP4BytesProperty@@UAA@XZ 10015084 f   libmp4v2:mp4property.obj
 0001:00014104       ?GetType@MP4BytesProperty@@UAA?AW4MP4PropertyType@@XZ 10015104 f i libmp4v2:mp4property.obj
 0001:0001410c       ?SetCount@MP4BytesProperty@@UAAXI@Z 1001510c f   libmp4v2:mp4property.obj
 0001:00014198       ?SetValue@MP4BytesProperty@@QAAXPBEII@Z 10015198 f   libmp4v2:mp4property.obj
 0001:000143a8       ?SetValueSize@MP4BytesProperty@@QAAXII@Z 100153a8 f   libmp4v2:mp4property.obj
 0001:0001446c       ?SetFixedSize@MP4BytesProperty@@QAAXI@Z 1001546c f   libmp4v2:mp4property.obj
 0001:000144d8       ?Read@MP4BytesProperty@@UAAXPAVMP4File@@I@Z 100154d8 f   libmp4v2:mp4property.obj
 0001:00014574       ?Write@MP4BytesProperty@@UAAXPAVMP4File@@I@Z 10015574 f   libmp4v2:mp4property.obj
 0001:000145c8       ?Dump@MP4BytesProperty@@UAAXPAXE_NI@Z 100155c8 f   libmp4v2:mp4property.obj
 0001:00014708       ??0MP4TableProperty@@QAA@PADPAVMP4IntegerProperty@@@Z 10015708 f   libmp4v2:mp4property.obj
 0001:00014750       ?GetType@MP4TableProperty@@UAA?AW4MP4PropertyType@@XZ 10015750 f i libmp4v2:mp4property.obj
 0001:00014758       ?SetParentAtom@MP4TableProperty@@UAAXPAVMP4Atom@@@Z 10015758 f i libmp4v2:mp4property.obj
 0001:000147b4       ??1MP4TableProperty@@UAA@XZ 100157b4 f   libmp4v2:mp4property.obj
 0001:00014834       ?FindContainedProperty@MP4TableProperty@@IAA_NPBDPAPAVMP4Property@@PAI@Z 10015834 f   libmp4v2:mp4property.obj
 0001:000148b0       ?Read@MP4TableProperty@@UAAXPAVMP4File@@I@Z 100158b0 f   libmp4v2:mp4property.obj
 0001:00014960       ?ReadEntry@MP4TableProperty@@MAAXPAVMP4File@@I@Z 10015960 f   libmp4v2:mp4property.obj
 0001:000149c0       ?Write@MP4TableProperty@@UAAXPAVMP4File@@I@Z 100159c0 f   libmp4v2:mp4property.obj
 0001:00014ae0       ?WriteEntry@MP4TableProperty@@MAAXPAVMP4File@@I@Z 10015ae0 f   libmp4v2:mp4property.obj
 0001:00014b40       ?Dump@MP4TableProperty@@UAAXPAXE_NI@Z 10015b40 f   libmp4v2:mp4property.obj
 0001:00014c00       ??0MP4DescriptorProperty@@QAA@PADEE_N1@Z 10015c00 f   libmp4v2:mp4property.obj
 0001:00014c64       ?GetType@MP4DescriptorProperty@@UAA?AW4MP4PropertyType@@XZ 10015c64 f i libmp4v2:mp4property.obj
 0001:00014c6c       ?GetCount@MP4DescriptorProperty@@UAAIXZ 10015c6c f i libmp4v2:mp4property.obj
 0001:00014c74       ?SetCount@MP4DescriptorProperty@@UAAXI@Z 10015c74 f i libmp4v2:mp4property.obj
 0001:00014ca0       ??1MP4DescriptorProperty@@UAA@XZ 10015ca0 f   libmp4v2:mp4property.obj
 0001:00014d20       ?SetParentAtom@MP4DescriptorProperty@@UAAXPAVMP4Atom@@@Z 10015d20 f   libmp4v2:mp4property.obj
 0001:00014d70       ?FindContainedProperty@MP4DescriptorProperty@@IAA_NPBDPAPAVMP4Property@@PAI@Z 10015d70 f   libmp4v2:mp4property.obj
 0001:00014de4       ?Write@MP4DescriptorProperty@@UAAXPAVMP4File@@I@Z 10015de4 f   libmp4v2:mp4property.obj
 0001:00014e48       ?Dump@MP4DescriptorProperty@@UAAXPAXE_NI@Z 10015e48 f   libmp4v2:mp4property.obj
 0001:00014f20       ?GetCount@MP4TableProperty@@UAAIXZ 10015f20 f i libmp4v2:mp4property.obj
 0001:00014f44       ?SetCount@MP4TableProperty@@UAAXI@Z 10015f44 f i libmp4v2:mp4property.obj
 0001:00014f60       ??0MP4StringProperty@@QAA@PAD_N1@Z 10015f60 f   libmp4v2:mp4property.obj
 0001:00014fd4       ??_GMP4StringProperty@@UAAPAXI@Z 10015fd4 f i libmp4v2:mp4property.obj
 0001:00014fd4       ??_EMP4StringProperty@@UAAPAXI@Z 10015fd4 f i libmp4v2:mp4property.obj
 0001:00014ffc       ??0MP4BytesProperty@@QAA@PADII@Z 10015ffc f   libmp4v2:mp4property.obj
 0001:000150ac       ??_EMP4BytesProperty@@UAAPAXI@Z 100160ac f i libmp4v2:mp4property.obj
 0001:000150ac       ??_GMP4BytesProperty@@UAAPAXI@Z 100160ac f i libmp4v2:mp4property.obj
 0001:000150d4       ??_GMP4TableProperty@@UAAPAXI@Z 100160d4 f i libmp4v2:mp4property.obj
 0001:000150d4       ??_EMP4TableProperty@@UAAPAXI@Z 100160d4 f i libmp4v2:mp4property.obj
 0001:000150fc       ?AddProperty@MP4TableProperty@@QAAXPAVMP4Property@@@Z 100160fc f   libmp4v2:mp4property.obj
 0001:00015148       ?FindProperty@MP4TableProperty@@UAA_NPBDPAPAVMP4Property@@PAI@Z 10016148 f   libmp4v2:mp4property.obj
 0001:0001521c       ??_GMP4DescriptorProperty@@UAAPAXI@Z 1001621c f i libmp4v2:mp4property.obj
 0001:0001521c       ??_EMP4DescriptorProperty@@UAAPAXI@Z 1001621c f i libmp4v2:mp4property.obj
 0001:00015244       ?AddDescriptor@MP4DescriptorProperty@@QAAPAVMP4Descriptor@@E@Z 10016244 f   libmp4v2:mp4property.obj
 0001:0001528c       ?Generate@MP4DescriptorProperty@@UAAXXZ 1001628c f   libmp4v2:mp4property.obj
 0001:000152c8       ?FindProperty@MP4DescriptorProperty@@UAA_NPBDPAPAVMP4Property@@PAI@Z 100162c8 f   libmp4v2:mp4property.obj
 0001:000153f8       ?Read@MP4DescriptorProperty@@UAAXPAVMP4File@@I@Z 100163f8 f   libmp4v2:mp4property.obj
 0001:000155d8       ??0MP4Descriptor@@QAA@E@Z  100165d8 f   libmp4v2:mp4descriptor.obj
 0001:00015620       ?Mutate@MP4Descriptor@@MAAXXZ 10016620 f i libmp4v2:mp4descriptor.obj
 0001:00015624       ??1MP4Descriptor@@UAA@XZ   10016624 f   libmp4v2:mp4descriptor.obj
 0001:00015698       ?FindContainedProperty@MP4Descriptor@@IAA_NPBDPAPAVMP4Property@@PAI@Z 10016698 f   libmp4v2:mp4descriptor.obj
 0001:00015714       ?Generate@MP4Descriptor@@UAAXXZ 10016714 f   libmp4v2:mp4descriptor.obj
 0001:00015764       ?ReadHeader@MP4Descriptor@@IAAXPAVMP4File@@@Z 10016764 f   libmp4v2:mp4descriptor.obj
 0001:00015804       ?ReadProperties@MP4Descriptor@@IAAXPAVMP4File@@II@Z 10016804 f   libmp4v2:mp4descriptor.obj
 0001:00015a1c       ?Write@MP4Descriptor@@UAAXPAVMP4File@@@Z 10016a1c f   libmp4v2:mp4descriptor.obj
 0001:00015b30       ?Dump@MP4Descriptor@@UAAXPAXE_N@Z 10016b30 f   libmp4v2:mp4descriptor.obj
 0001:00015bbc       ??_GMP4Descriptor@@UAAPAXI@Z 10016bbc f i libmp4v2:mp4descriptor.obj
 0001:00015bbc       ??_EMP4Descriptor@@UAAPAXI@Z 10016bbc f i libmp4v2:mp4descriptor.obj
 0001:00015be4       ?AddProperty@MP4Descriptor@@QAAXPAVMP4Property@@@Z 10016be4 f   libmp4v2:mp4descriptor.obj
 0001:00015c18       ?Read@MP4Descriptor@@UAAXPAVMP4File@@@Z 10016c18 f   libmp4v2:mp4descriptor.obj
 0001:00015c74       ?SetCount@MP4Integer8Property@@UAAXI@Z 10016c74 f i libmp4v2:rtphint.obj
 0001:00015c9c       ?SetCount@MP4Integer16Property@@UAAXI@Z 10016c9c f i libmp4v2:rtphint.obj
 0001:00015cc8       ?SetCount@MP4Integer32Property@@UAAXI@Z 10016cc8 f i libmp4v2:rtphint.obj
 0001:00015cf4       ?SetCount@MP4Integer64Property@@UAAXI@Z 10016cf4 f i libmp4v2:rtphint.obj
 0001:00015d20       ??0MP4RtpHintTrack@@QAA@PAVMP4File@@PAVMP4Atom@@@Z 10016d20 f   libmp4v2:rtphint.obj
 0001:00015dbc       ??1MP4RtpHintTrack@@UAA@XZ 10016dbc f   libmp4v2:rtphint.obj
 0001:00015e24       ?FinishWrite@MP4RtpHintTrack@@UAAXXZ 10016e24 f   libmp4v2:rtphint.obj
 0001:00015f84       ??0MP4Integer8Property@@QAA@PAD@Z 10016f84 f i libmp4v2:rtphint.obj
 0001:00015fec       ?GetType@MP4Integer8Property@@UAA?AW4MP4PropertyType@@XZ 10016fec f i libmp4v2:rtphint.obj
 0001:00015ff4       ?GetCount@MP4Integer8Property@@UAAIXZ 10016ff4 f i libmp4v2:rtphint.obj
 0001:00015ffc       ?Read@MP4Integer8Property@@UAAXPAVMP4File@@I@Z 10016ffc f i libmp4v2:rtphint.obj
 0001:00016038       ?Write@MP4Integer8Property@@UAAXPAVMP4File@@I@Z 10017038 f i libmp4v2:rtphint.obj
 0001:0001606c       ??_GMP4Integer8Property@@UAAPAXI@Z 1001706c f i libmp4v2:rtphint.obj
 0001:0001606c       ??_EMP4Integer8Property@@UAAPAXI@Z 1001706c f i libmp4v2:rtphint.obj
 0001:000160ac       ??0MP4Integer16Property@@QAA@PAD@Z 100170ac f i libmp4v2:rtphint.obj
 0001:00016114       ?GetType@MP4Integer16Property@@UAA?AW4MP4PropertyType@@XZ 10017114 f i libmp4v2:rtphint.obj
 0001:0001611c       ?GetCount@MP4Integer16Property@@UAAIXZ 1001711c f i libmp4v2:rtphint.obj
 0001:00016124       ?Read@MP4Integer16Property@@UAAXPAVMP4File@@I@Z 10017124 f i libmp4v2:rtphint.obj
 0001:00016160       ?Write@MP4Integer16Property@@UAAXPAVMP4File@@I@Z 10017160 f i libmp4v2:rtphint.obj
 0001:00016194       ??_GMP4Integer16Property@@UAAPAXI@Z 10017194 f i libmp4v2:rtphint.obj
 0001:00016194       ??_EMP4Integer16Property@@UAAPAXI@Z 10017194 f i libmp4v2:rtphint.obj
 0001:000161d4       ??0MP4Integer32Property@@QAA@PAD@Z 100171d4 f i libmp4v2:rtphint.obj
 0001:0001623c       ?GetType@MP4Integer32Property@@UAA?AW4MP4PropertyType@@XZ 1001723c f i libmp4v2:rtphint.obj
 0001:00016244       ?GetCount@MP4Integer32Property@@UAAIXZ 10017244 f i libmp4v2:rtphint.obj
 0001:0001624c       ?Read@MP4Integer32Property@@UAAXPAVMP4File@@I@Z 1001724c f i libmp4v2:rtphint.obj
 0001:00016288       ?Write@MP4Integer32Property@@UAAXPAVMP4File@@I@Z 10017288 f i libmp4v2:rtphint.obj
 0001:000162bc       ??_GMP4Integer32Property@@UAAPAXI@Z 100172bc f i libmp4v2:rtphint.obj
 0001:000162bc       ??_EMP4Integer32Property@@UAAPAXI@Z 100172bc f i libmp4v2:rtphint.obj
 0001:000162fc       ??0MP4Integer64Property@@QAA@PAD@Z 100172fc f i libmp4v2:rtphint.obj
 0001:00016368       ?GetType@MP4Integer64Property@@UAA?AW4MP4PropertyType@@XZ 10017368 f i libmp4v2:rtphint.obj
 0001:00016370       ?GetCount@MP4Integer64Property@@UAAIXZ 10017370 f i libmp4v2:rtphint.obj
 0001:00016378       ?Read@MP4Integer64Property@@UAAXPAVMP4File@@I@Z 10017378 f i libmp4v2:rtphint.obj
 0001:000163b8       ?Write@MP4Integer64Property@@UAAXPAVMP4File@@I@Z 100173b8 f i libmp4v2:rtphint.obj
 0001:000163f0       ??_EMP4Integer64Property@@UAAPAXI@Z 100173f0 f i libmp4v2:rtphint.obj
 0001:000163f0       ??_GMP4Integer64Property@@UAAPAXI@Z 100173f0 f i libmp4v2:rtphint.obj
 0001:00016430       ??_GMP4BitfieldProperty@@UAAPAXI@Z 10017430 f i libmp4v2:rtphint.obj
 0001:00016430       ??_EMP4BitfieldProperty@@UAAPAXI@Z 10017430 f i libmp4v2:rtphint.obj
 0001:00016470       ??_GMP4RtpHintTrack@@UAAPAXI@Z 10017470 f i libmp4v2:rtphint.obj
 0001:00016470       ??_EMP4RtpHintTrack@@UAAPAXI@Z 10017470 f i libmp4v2:rtphint.obj
 0001:00016498       ?SetCount@MP4Integer24Property@@UAAXI@Z 10017498 f i libmp4v2:mp4atom.obj
 0001:000164c4       ?Insert@MP4AtomInfoArray@@QAAXPAVMP4AtomInfo@@I@Z 100174c4 f i libmp4v2:mp4atom.obj
 0001:00016594       ??AMP4AtomInfoArray@@QAAAAPAVMP4AtomInfo@@I@Z 10017594 f i libmp4v2:mp4atom.obj
 0001:00016634       ?SetType@MP4Atom@@QAAXPBD@Z 10017634 f i libmp4v2:mp4atom.obj
 0001:00016690       ??0MP4Atom@@QAA@PBD@Z      10017690 f   libmp4v2:mp4atom.obj
 0001:00016714       ??1MP4Atom@@UAA@XZ         10017714 f   libmp4v2:mp4atom.obj
 0001:00016824       ?CreateAtom@MP4Atom@@SAPAV1@PBD@Z 10017824 f   libmp4v2:mp4atom.obj
 0001:0001779c       ?IsReasonableType@MP4Atom@@SA_NPBD@Z 1001879c f   libmp4v2:mp4atom.obj
 0001:00017800       ?Skip@MP4Atom@@QAAXXZ      10018800 f   libmp4v2:mp4atom.obj
 0001:00017884       ?IsMe@MP4Atom@@IAA_NPBD@Z  10018884 f   libmp4v2:mp4atom.obj
 0001:000178d8       ?FindAtomInfo@MP4Atom@@IAAPAVMP4AtomInfo@@PBD@Z 100188d8 f   libmp4v2:mp4atom.obj
 0001:00017954       ?Rewrite@MP4Atom@@UAAXXZ   10018954 f   libmp4v2:mp4atom.obj
 0001:000179c4       ?BeginWrite@MP4Atom@@UAAX_N@Z 100189c4 f   libmp4v2:mp4atom.obj
 0001:00017a58       ?GetVersion@MP4Atom@@IAAEXZ 10018a58 f   libmp4v2:mp4atom.obj
 0001:00017ab8       ?SetVersion@MP4Atom@@IAAXE@Z 10018ab8 f   libmp4v2:mp4atom.obj
 0001:00017b10       ?GetFlags@MP4Atom@@QAAIXZ  10018b10 f   libmp4v2:mp4atom.obj
 0001:00017b70       ?SetFlags@MP4Atom@@QAAXI@Z 10018b70 f   libmp4v2:mp4atom.obj
 0001:00017bc8       ?GetVerbosity@MP4Atom@@IAAIXZ 10018bc8 f   libmp4v2:mp4atom.obj
 0001:00017bd4       ??0MP4Integer24Property@@QAA@PAD@Z 10018bd4 f i libmp4v2:mp4atom.obj
 0001:00017c3c       ?GetType@MP4Integer24Property@@UAA?AW4MP4PropertyType@@XZ 10018c3c f i libmp4v2:mp4atom.obj
 0001:00017c44       ?GetCount@MP4Integer24Property@@UAAIXZ 10018c44 f i libmp4v2:mp4atom.obj
 0001:00017c4c       ?Read@MP4Integer24Property@@UAAXPAVMP4File@@I@Z 10018c4c f i libmp4v2:mp4atom.obj
 0001:00017c88       ?Write@MP4Integer24Property@@UAAXPAVMP4File@@I@Z 10018c88 f i libmp4v2:mp4atom.obj
 0001:00017cbc       ??_EMP4Integer24Property@@UAAPAXI@Z 10018cbc f i libmp4v2:mp4atom.obj
 0001:00017cbc       ??_GMP4Integer24Property@@UAAPAXI@Z 10018cbc f i libmp4v2:mp4atom.obj
 0001:00017cfc       ??_GMP4Atom@@UAAPAXI@Z     10018cfc f i libmp4v2:mp4atom.obj
 0001:00017cfc       ??_EMP4Atom@@UAAPAXI@Z     10018cfc f i libmp4v2:mp4atom.obj
 0001:00017d24       ?Generate@MP4Atom@@UAAXXZ  10018d24 f   libmp4v2:mp4atom.obj
 0001:00017e18       ?FindAtom@MP4Atom@@QAAPAV1@PBD@Z 10018e18 f   libmp4v2:mp4atom.obj
 0001:00017e98       ?FindProperty@MP4Atom@@QAA_NPBDPAPAVMP4Property@@PAI@Z 10018e98 f   libmp4v2:mp4atom.obj
 0001:00017f28       ?FindChildAtom@MP4Atom@@QAAPAV1@PBD@Z 10018f28 f   libmp4v2:mp4atom.obj
 0001:00017fd0       ?FindContainedProperty@MP4Atom@@IAA_NPBDPAPAVMP4Property@@PAI@Z 10018fd0 f   libmp4v2:mp4atom.obj
 0001:00018100       ?ReadProperties@MP4Atom@@IAAXII@Z 10019100 f   libmp4v2:mp4atom.obj
 0001:0001832c       ?FinishWrite@MP4Atom@@UAAX_N@Z 1001932c f   libmp4v2:mp4atom.obj
 0001:00018480       ?WriteProperties@MP4Atom@@IAAXII@Z 10019480 f   libmp4v2:mp4atom.obj
 0001:000185ec       ?WriteChildAtoms@MP4Atom@@IAAXXZ 100195ec f   libmp4v2:mp4atom.obj
 0001:00018658       ?AddProperty@MP4Atom@@IAAXPAVMP4Property@@@Z 10019658 f   libmp4v2:mp4atom.obj
 0001:0001868c       ?AddVersionAndFlags@MP4Atom@@IAAXXZ 1001968c f   libmp4v2:mp4atom.obj
 0001:000186fc       ?AddReserved@MP4Atom@@IAAXPADI@Z 100196fc f   libmp4v2:mp4atom.obj
 0001:00018750       ?ExpectChildAtom@MP4Atom@@IAAXPBD_N1@Z 10019750 f   libmp4v2:mp4atom.obj
 0001:000187a0       ?Dump@MP4Atom@@UAAXPAXE_N@Z 100197a0 f   libmp4v2:mp4atom.obj
 0001:00018910       ?ReadAtom@MP4Atom@@SAPAV1@PAVMP4File@@PAV1@@Z 10019910 f   libmp4v2:mp4atom.obj
 0001:00018c40       ?ReadChildAtoms@MP4Atom@@IAAXXZ 10019c40 f   libmp4v2:mp4atom.obj
 0001:00018f54       ?Write@MP4Atom@@UAAXXZ     10019f54 f   libmp4v2:mp4atom.obj
 0001:00018fa8       ?Read@MP4Atom@@UAAXXZ      10019fa8 f   libmp4v2:mp4atom.obj
 0001:0001903c       ?GetPosition@MP4File@@QAA_KPAX@Z 1001a03c f   libmp4v2:mp4file_io.obj
 0001:000190d8       ?SetPosition@MP4File@@QAAX_KPAX@Z 1001a0d8 f   libmp4v2:mp4file_io.obj
 0001:000191c4       ?GetSize@MP4File@@QAA_KXZ  1001a1c4 f   libmp4v2:mp4file_io.obj
 0001:000191f8       ?ReadBytes@MP4File@@QAAIPAEIPAX@Z 1001a1f8 f   libmp4v2:mp4file_io.obj
 0001:0001939c       ?PeekBytes@MP4File@@QAAIPAEIPAX@Z 1001a39c f   libmp4v2:mp4file_io.obj
 0001:000193f4       ?WriteBytes@MP4File@@QAAXPAEIPAX@Z 1001a3f4 f   libmp4v2:mp4file_io.obj
 0001:00019514       ?ReadUInt8@MP4File@@QAAEXZ 1001a514 f   libmp4v2:mp4file_io.obj
 0001:0001953c       ?WriteUInt8@MP4File@@QAAXE@Z 1001a53c f   libmp4v2:mp4file_io.obj
 0001:00019560       ?ReadUInt16@MP4File@@QAAGXZ 1001a560 f   libmp4v2:mp4file_io.obj
 0001:00019598       ?WriteUInt16@MP4File@@QAAXG@Z 1001a598 f   libmp4v2:mp4file_io.obj
 0001:000195cc       ?ReadUInt24@MP4File@@QAAIXZ 1001a5cc f   libmp4v2:mp4file_io.obj
 0001:00019604       ?WriteUInt24@MP4File@@QAAXI@Z 1001a604 f   libmp4v2:mp4file_io.obj
 0001:00019640       ?ReadUInt32@MP4File@@QAAIXZ 1001a640 f   libmp4v2:mp4file_io.obj
 0001:00019680       ?WriteUInt32@MP4File@@QAAXI@Z 1001a680 f   libmp4v2:mp4file_io.obj
 0001:000196cc       ?ReadUInt64@MP4File@@QAA_KXZ 1001a6cc f   libmp4v2:mp4file_io.obj
 0001:00019758       ?WriteUInt64@MP4File@@QAAX_K@Z 1001a758 f   libmp4v2:mp4file_io.obj
 0001:000197b4       ?ReadFixed16@MP4File@@QAAMXZ 1001a7b4 f   libmp4v2:mp4file_io.obj
 0001:00019818       ?WriteFixed16@MP4File@@QAAXM@Z 1001a818 f   libmp4v2:mp4file_io.obj
 0001:000198f0       ?ReadFixed32@MP4File@@QAAMXZ 1001a8f0 f   libmp4v2:mp4file_io.obj
 0001:00019934       ?WriteFixed32@MP4File@@QAAXM@Z 1001a934 f   libmp4v2:mp4file_io.obj
 0001:000199fc       ?ReadFloat@MP4File@@QAAMXZ 1001a9fc f   libmp4v2:mp4file_io.obj
 0001:00019a0c       ?WriteFloat@MP4File@@QAAXM@Z 1001aa0c f   libmp4v2:mp4file_io.obj
 0001:00019a1c       ?ReadString@MP4File@@QAAPADXZ 1001aa1c f   libmp4v2:mp4file_io.obj
 0001:00019a90       ?WriteString@MP4File@@QAAXPAD@Z 1001aa90 f   libmp4v2:mp4file_io.obj
 0001:00019adc       ?ReadCountedString@MP4File@@QAAPADE_N@Z 1001aadc f   libmp4v2:mp4file_io.obj
 0001:00019b78       ?WriteCountedString@MP4File@@QAAXPADE_N@Z 1001ab78 f   libmp4v2:mp4file_io.obj
 0001:00019c90       ?ReadBits@MP4File@@QAA_KE@Z 1001ac90 f   libmp4v2:mp4file_io.obj
 0001:00019d1c       ?FlushReadBits@MP4File@@QAAXXZ 1001ad1c f   libmp4v2:mp4file_io.obj
 0001:00019d28       ?FlushWriteBits@MP4File@@QAAXXZ 1001ad28 f   libmp4v2:mp4file_io.obj
 0001:00019d60       ?ReadMpegLength@MP4File@@QAAIXZ 1001ad60 f   libmp4v2:mp4file_io.obj
 0001:00019dbc       ?WriteMpegLength@MP4File@@QAAXI_N@Z 1001adbc f   libmp4v2:mp4file_io.obj
 0001:00019ea4       ?WriteBits@MP4File@@QAAX_KE@Z 1001aea4 f   libmp4v2:mp4file_io.obj
 0001:00019f18       ?PadWriteBits@MP4File@@QAAXE@Z 1001af18 f   libmp4v2:mp4file_io.obj
 0001:00019f50       ??0MP4RootAtom@@QAA@XZ     1001af50 f   libmp4v2:atom_root.obj
 0001:0001a020       ?Write@MP4RootAtom@@UAAXXZ 1001b020 f   libmp4v2:atom_root.obj
 0001:0001a024       ?GetLastMdatIndex@MP4RootAtom@@IAAIXZ 1001b024 f   libmp4v2:atom_root.obj
 0001:0001a078       ?WriteAtomType@MP4RootAtom@@IAAXPBD_N@Z 1001b078 f   libmp4v2:atom_root.obj
 0001:0001a0f8       ??_EMP4RootAtom@@UAAPAXI@Z 1001b0f8 f i libmp4v2:atom_root.obj
 0001:0001a0f8       ??_GMP4RootAtom@@UAAPAXI@Z 1001b0f8 f i libmp4v2:atom_root.obj
 0001:0001a120       ?BeginWrite@MP4RootAtom@@UAAX_N@Z 1001b120 f   libmp4v2:atom_root.obj
 0001:0001a180       ?FinishWrite@MP4RootAtom@@UAAX_N@Z 1001b180 f   libmp4v2:atom_root.obj
 0001:0001a208       ?Generate@MP4IODescriptor@@UAAXXZ 1001b208 f   libmp4v2:descriptors.obj
 0001:0001a284       ?Mutate@MP4IODescriptor@@MAAXXZ 1001b284 f   libmp4v2:descriptors.obj
 0001:0001a308       ?Generate@MP4ODescriptor@@UAAXXZ 1001b308 f   libmp4v2:descriptors.obj
 0001:0001a334       ?Mutate@MP4ODescriptor@@MAAXXZ 1001b334 f   libmp4v2:descriptors.obj
 0001:0001a3b8       ?Mutate@MP4ESDescriptor@@MAAXXZ 1001b3b8 f   libmp4v2:descriptors.obj
 0001:0001a4b8       ?Generate@MP4DecConfigDescriptor@@UAAXXZ 1001b4b8 f   libmp4v2:descriptors.obj
 0001:0001a4e4       ??0MP4DecSpecificDescriptor@@QAA@XZ 1001b4e4 f   libmp4v2:descriptors.obj
 0001:0001a544       ?Read@MP4DecSpecificDescriptor@@UAAXPAVMP4File@@@Z 1001b544 f   libmp4v2:descriptors.obj
 0001:0001a58c       ?Generate@MP4SLConfigDescriptor@@UAAXXZ 1001b58c f   libmp4v2:descriptors.obj
 0001:0001a5f8       ?Read@MP4SLConfigDescriptor@@UAAXPAVMP4File@@@Z 1001b5f8 f   libmp4v2:descriptors.obj
 0001:0001a684       ?Mutate@MP4SLConfigDescriptor@@MAAXXZ 1001b684 f   libmp4v2:descriptors.obj
 0001:0001a8ec       ?Read@MP4ContentIdDescriptor@@UAAXPAVMP4File@@@Z 1001b8ec f   libmp4v2:descriptors.obj
 0001:0001aa34       ?Mutate@MP4ContentIdDescriptor@@MAAXXZ 1001ba34 f   libmp4v2:descriptors.obj
 0001:0001ab04       ??0MP4SupplContentIdDescriptor@@QAA@XZ 1001bb04 f   libmp4v2:descriptors.obj
 0001:0001abd4       ?Read@MP4IPMPDescriptor@@UAAXPAVMP4File@@@Z 1001bbd4 f   libmp4v2:descriptors.obj
 0001:0001ac20       ?Read@MP4RegistrationDescriptor@@UAAXPAVMP4File@@@Z 1001bc20 f   libmp4v2:descriptors.obj
 0001:0001ac6c       ??0MP4ExtensionDescriptor@@QAA@XZ 1001bc6c f   libmp4v2:descriptors.obj
 0001:0001accc       ?Read@MP4ExtensionDescriptor@@UAAXPAVMP4File@@@Z 1001bccc f   libmp4v2:descriptors.obj
 0001:0001ad14       ??0MP4IODescriptor@@QAA@XZ 1001bd14 f   libmp4v2:descriptors.obj
 0001:0001b07c       ??_EMP4IODescriptor@@UAAPAXI@Z 1001c07c f i libmp4v2:descriptors.obj
 0001:0001b07c       ??_GMP4IODescriptor@@UAAPAXI@Z 1001c07c f i libmp4v2:descriptors.obj
 0001:0001b0a4       ??0MP4ODescriptor@@QAA@XZ  1001c0a4 f   libmp4v2:descriptors.obj
 0001:0001b2e0       ??_GMP4ODescriptor@@UAAPAXI@Z 1001c2e0 f i libmp4v2:descriptors.obj
 0001:0001b2e0       ??_EMP4ODescriptor@@UAAPAXI@Z 1001c2e0 f i libmp4v2:descriptors.obj
 0001:0001b308       ??0MP4ESIDIncDescriptor@@QAA@XZ 1001c308 f   libmp4v2:descriptors.obj
 0001:0001b360       ??_GMP4ESIDIncDescriptor@@UAAPAXI@Z 1001c360 f i libmp4v2:descriptors.obj
 0001:0001b360       ??_EMP4ESIDIncDescriptor@@UAAPAXI@Z 1001c360 f i libmp4v2:descriptors.obj
 0001:0001b388       ??0MP4ESIDRefDescriptor@@QAA@XZ 1001c388 f   libmp4v2:descriptors.obj
 0001:0001b3e0       ??_GMP4ESIDRefDescriptor@@UAAPAXI@Z 1001c3e0 f i libmp4v2:descriptors.obj
 0001:0001b3e0       ??_EMP4ESIDRefDescriptor@@UAAPAXI@Z 1001c3e0 f i libmp4v2:descriptors.obj
 0001:0001b408       ??0MP4ESDescriptor@@QAA@XZ 1001c408 f   libmp4v2:descriptors.obj
 0001:0001b848       ??_EMP4ESDescriptor@@UAAPAXI@Z 1001c848 f i libmp4v2:descriptors.obj
 0001:0001b848       ??_GMP4ESDescriptor@@UAAPAXI@Z 1001c848 f i libmp4v2:descriptors.obj
 0001:0001b870       ??0MP4DecConfigDescriptor@@QAA@XZ 1001c870 f   libmp4v2:descriptors.obj
 0001:0001bab8       ??_GMP4DecConfigDescriptor@@UAAPAXI@Z 1001cab8 f i libmp4v2:descriptors.obj
 0001:0001bab8       ??_EMP4DecConfigDescriptor@@UAAPAXI@Z 1001cab8 f i libmp4v2:descriptors.obj
 0001:0001bae0       ??_GMP4DecSpecificDescriptor@@UAAPAXI@Z 1001cae0 f i libmp4v2:descriptors.obj
 0001:0001bae0       ??_EMP4DecSpecificDescriptor@@UAAPAXI@Z 1001cae0 f i libmp4v2:descriptors.obj
 0001:0001bb08       ??0MP4SLConfigDescriptor@@QAA@XZ 1001cb08 f   libmp4v2:descriptors.obj
 0001:0001c074       ??_EMP4SLConfigDescriptor@@UAAPAXI@Z 1001d074 f i libmp4v2:descriptors.obj
 0001:0001c074       ??_GMP4SLConfigDescriptor@@UAAPAXI@Z 1001d074 f i libmp4v2:descriptors.obj
 0001:0001c09c       ??0MP4IPIPtrDescriptor@@QAA@XZ 1001d09c f   libmp4v2:descriptors.obj
 0001:0001c0f4       ??_EMP4IPIPtrDescriptor@@UAAPAXI@Z 1001d0f4 f i libmp4v2:descriptors.obj
 0001:0001c0f4       ??_GMP4IPIPtrDescriptor@@UAAPAXI@Z 1001d0f4 f i libmp4v2:descriptors.obj
 0001:0001c11c       ??0MP4ContentIdDescriptor@@QAA@XZ 1001d11c f   libmp4v2:descriptors.obj
 0001:0001c31c       ??_GMP4ContentIdDescriptor@@UAAPAXI@Z 1001d31c f i libmp4v2:descriptors.obj
 0001:0001c31c       ??_EMP4ContentIdDescriptor@@UAAPAXI@Z 1001d31c f i libmp4v2:descriptors.obj
 0001:0001c344       ??_EMP4SupplContentIdDescriptor@@UAAPAXI@Z 1001d344 f i libmp4v2:descriptors.obj
 0001:0001c344       ??_GMP4SupplContentIdDescriptor@@UAAPAXI@Z 1001d344 f i libmp4v2:descriptors.obj
 0001:0001c36c       ??0MP4IPMPPtrDescriptor@@QAA@XZ 1001d36c f   libmp4v2:descriptors.obj
 0001:0001c3c4       ??_GMP4IPMPPtrDescriptor@@UAAPAXI@Z 1001d3c4 f i libmp4v2:descriptors.obj
 0001:0001c3c4       ??_EMP4IPMPPtrDescriptor@@UAAPAXI@Z 1001d3c4 f i libmp4v2:descriptors.obj
 0001:0001c3ec       ??0MP4IPMPDescriptor@@QAA@XZ 1001d3ec f   libmp4v2:descriptors.obj
 0001:0001c4ac       ??_EMP4IPMPDescriptor@@UAAPAXI@Z 1001d4ac f i libmp4v2:descriptors.obj
 0001:0001c4ac       ??_GMP4IPMPDescriptor@@UAAPAXI@Z 1001d4ac f i libmp4v2:descriptors.obj
 0001:0001c4d4       ??0MP4RegistrationDescriptor@@QAA@XZ 1001d4d4 f   libmp4v2:descriptors.obj
 0001:0001c564       ??_GMP4RegistrationDescriptor@@UAAPAXI@Z 1001d564 f i libmp4v2:descriptors.obj
 0001:0001c564       ??_EMP4RegistrationDescriptor@@UAAPAXI@Z 1001d564 f i libmp4v2:descriptors.obj
 0001:0001c58c       ??0MP4ExtProfileLevelDescriptor@@QAA@XZ 1001d58c f   libmp4v2:descriptors.obj
 0001:0001c704       ??_GMP4ExtProfileLevelDescriptor@@UAAPAXI@Z 1001d704 f i libmp4v2:descriptors.obj
 0001:0001c704       ??_EMP4ExtProfileLevelDescriptor@@UAAPAXI@Z 1001d704 f i libmp4v2:descriptors.obj
 0001:0001c72c       ??_EMP4ExtensionDescriptor@@UAAPAXI@Z 1001d72c f i libmp4v2:descriptors.obj
 0001:0001c72c       ??_GMP4ExtensionDescriptor@@UAAPAXI@Z 1001d72c f i libmp4v2:descriptors.obj
 0001:0001c754       ?CreateDescriptor@MP4DescriptorProperty@@MAAPAVMP4Descriptor@@E@Z 1001d754 f   libmp4v2:descriptors.obj
 0001:0001c990       ??0MP4StandardAtom@@QAA@PBD@Z 1001d990 f   libmp4v2:atom_standard.obj
 0001:0001e18c       ??_EMP4StandardAtom@@UAAPAXI@Z 1001f18c f i libmp4v2:atom_standard.obj
 0001:0001e18c       ??_GMP4StandardAtom@@UAAPAXI@Z 1001f18c f i libmp4v2:atom_standard.obj
 0001:0001e1b4       ??0MP4VmhdAtom@@QAA@XZ     1001f1b4 f   libmp4v2:atom_vmhd.obj
 0001:0001e1fc       ?Generate@MP4VmhdAtom@@UAAXXZ 1001f1fc f   libmp4v2:atom_vmhd.obj
 0001:0001e21c       ??_GMP4VmhdAtom@@UAAPAXI@Z 1001f21c f i libmp4v2:atom_vmhd.obj
 0001:0001e21c       ??_EMP4VmhdAtom@@UAAPAXI@Z 1001f21c f i libmp4v2:atom_vmhd.obj
 0001:0001e244       ??0MP4Meta1Atom@@QAA@PBD@Z 1001f244 f   libmp4v2:atom_meta.obj
 0001:0001e2a8       ?Read@MP4Meta1Atom@@UAAXXZ 1001f2a8 f   libmp4v2:atom_meta.obj
 0001:0001e2e0       ??0MP4DataAtom@@QAA@XZ     1001f2e0 f   libmp4v2:atom_meta.obj
 0001:0001e360       ?Read@MP4DataAtom@@UAAXXZ  1001f360 f   libmp4v2:atom_meta.obj
 0001:0001e398       ??0MP4Meta2Atom@@QAA@PBD@Z 1001f398 f   libmp4v2:atom_meta.obj
 0001:0001e3bc       ?Read@MP4Meta2Atom@@UAAXXZ 1001f3bc f   libmp4v2:atom_meta.obj
 0001:0001e47c       ??_EMP4Meta1Atom@@UAAPAXI@Z 1001f47c f i libmp4v2:atom_meta.obj
 0001:0001e47c       ??_GMP4Meta1Atom@@UAAPAXI@Z 1001f47c f i libmp4v2:atom_meta.obj
 0001:0001e4a4       ??_GMP4DataAtom@@UAAPAXI@Z 1001f4a4 f i libmp4v2:atom_meta.obj
 0001:0001e4a4       ??_EMP4DataAtom@@UAAPAXI@Z 1001f4a4 f i libmp4v2:atom_meta.obj
 0001:0001e4cc       ??_EMP4Meta2Atom@@UAAPAXI@Z 1001f4cc f i libmp4v2:atom_meta.obj
 0001:0001e4cc       ??_GMP4Meta2Atom@@UAAPAXI@Z 1001f4cc f i libmp4v2:atom_meta.obj
 0001:0001e4f4       ??0MP4UrnAtom@@QAA@XZ      1001f4f4 f   libmp4v2:atom_urn.obj
 0001:0001e598       ?Read@MP4UrnAtom@@UAAXXZ   1001f598 f   libmp4v2:atom_urn.obj
 0001:0001e5f4       ??_GMP4UrnAtom@@UAAPAXI@Z  1001f5f4 f i libmp4v2:atom_urn.obj
 0001:0001e5f4       ??_EMP4UrnAtom@@UAAPAXI@Z  1001f5f4 f i libmp4v2:atom_urn.obj
 0001:0001e61c       ??0MP4UdtaAtom@@QAA@XZ     1001f61c f   libmp4v2:atom_udta.obj
 0001:0001e708       ?Read@MP4UdtaAtom@@UAAXXZ  1001f708 f   libmp4v2:atom_udta.obj
 0001:0001e758       ??_GMP4UdtaAtom@@UAAPAXI@Z 1001f758 f i libmp4v2:atom_udta.obj
 0001:0001e758       ??_EMP4UdtaAtom@@UAAPAXI@Z 1001f758 f i libmp4v2:atom_udta.obj
 0001:0001e780       ?Read@OhdrMP4StringProperty@@UAAXPAVMP4File@@I@Z 1001f780 f i libmp4v2:atom_ohdr.obj
 0001:0001e810       ?Write@OhdrMP4StringProperty@@UAAXPAVMP4File@@I@Z 1001f810 f i libmp4v2:atom_ohdr.obj
 0001:0001e844       ?Read@MP4OhdrAtom@@UAAXXZ  1001f844 f   libmp4v2:atom_ohdr.obj
 0001:0001e928       ??_GOhdrMP4StringProperty@@UAAPAXI@Z 1001f928 f i libmp4v2:atom_ohdr.obj
 0001:0001e928       ??_EOhdrMP4StringProperty@@UAAPAXI@Z 1001f928 f i libmp4v2:atom_ohdr.obj
 0001:0001e950       ??0MP4OhdrAtom@@QAA@XZ     1001f950 f   libmp4v2:atom_ohdr.obj
 0001:0001eb64       ??_GMP4OhdrAtom@@UAAPAXI@Z 1001fb64 f i libmp4v2:atom_ohdr.obj
 0001:0001eb64       ??_EMP4OhdrAtom@@UAAPAXI@Z 1001fb64 f i libmp4v2:atom_ohdr.obj
 0001:0001eb98       ??0MP4RtpAtom@@QAA@XZ      1001fb98 f   libmp4v2:atom_rtp.obj
 0001:0001ebc4       ?AddPropertiesHntiType@MP4RtpAtom@@IAAXXZ 1001fbc4 f   libmp4v2:atom_rtp.obj
 0001:0001ec4c       ?GenerateStsdType@MP4RtpAtom@@IAAXXZ 1001fc4c f   libmp4v2:atom_rtp.obj
 0001:0001ecb4       ?GenerateHntiType@MP4RtpAtom@@IAAXXZ 1001fcb4 f   libmp4v2:atom_rtp.obj
 0001:0001ece8       ?ReadHntiType@MP4RtpAtom@@IAAXXZ 1001fce8 f   libmp4v2:atom_rtp.obj
 0001:0001ed7c       ?WriteHntiType@MP4RtpAtom@@IAAXXZ 1001fd7c f   libmp4v2:atom_rtp.obj
 0001:0001edc8       ??_EMP4RtpAtom@@UAAPAXI@Z  1001fdc8 f i libmp4v2:atom_rtp.obj
 0001:0001edc8       ??_GMP4RtpAtom@@UAAPAXI@Z  1001fdc8 f i libmp4v2:atom_rtp.obj
 0001:0001edf0       ?AddPropertiesStsdType@MP4RtpAtom@@IAAXXZ 1001fdf0 f   libmp4v2:atom_rtp.obj
 0001:0001ef18       ?Generate@MP4RtpAtom@@UAAXXZ 1001ff18 f   libmp4v2:atom_rtp.obj
 0001:0001efa8       ?Read@MP4RtpAtom@@UAAXXZ   1001ffa8 f   libmp4v2:atom_rtp.obj
 0001:0001f038       ?Write@MP4RtpAtom@@UAAXXZ  10020038 f   libmp4v2:atom_rtp.obj
 0001:0001f078       ??0MP4SdpAtom@@QAA@XZ      10020078 f   libmp4v2:atom_sdp.obj
 0001:0001f0dc       ?Read@MP4SdpAtom@@UAAXXZ   100200dc f   libmp4v2:atom_sdp.obj
 0001:0001f164       ?Write@MP4SdpAtom@@UAAXXZ  10020164 f   libmp4v2:atom_sdp.obj
 0001:0001f1b8       ??_EMP4SdpAtom@@UAAPAXI@Z  100201b8 f i libmp4v2:atom_sdp.obj
 0001:0001f1b8       ??_GMP4SdpAtom@@UAAPAXI@Z  100201b8 f i libmp4v2:atom_sdp.obj
 0001:0001f1e0       ?Read@MP4StdpAtom@@UAAXXZ  100201e0 f   libmp4v2:atom_stdp.obj
 0001:0001f260       ??0MP4StdpAtom@@QAA@XZ     10020260 f   libmp4v2:atom_stdp.obj
 0001:0001f338       ??_GMP4StdpAtom@@UAAPAXI@Z 10020338 f i libmp4v2:atom_stdp.obj
 0001:0001f338       ??_EMP4StdpAtom@@UAAPAXI@Z 10020338 f i libmp4v2:atom_stdp.obj
 0001:0001f360       ?Read@MP4StscAtom@@UAAXXZ  10020360 f   libmp4v2:atom_stsc.obj
 0001:0001f488       ??0MP4StscAtom@@QAA@XZ     10020488 f   libmp4v2:atom_stsc.obj
 0001:0001f5f0       ??_GMP4StscAtom@@UAAPAXI@Z 100205f0 f i libmp4v2:atom_stsc.obj
 0001:0001f5f0       ??_EMP4StscAtom@@UAAPAXI@Z 100205f0 f i libmp4v2:atom_stsc.obj
 0001:0001f618       ?Read@MP4StszAtom@@UAAXXZ  10020618 f   libmp4v2:atom_stsz.obj
 0001:0001f68c       ?Write@MP4StszAtom@@UAAXXZ 1002068c f   libmp4v2:atom_stsz.obj
 0001:0001f6e4       ??0MP4StszAtom@@QAA@XZ     100206e4 f   libmp4v2:atom_stsz.obj
 0001:0001f7e0       ??_EMP4StszAtom@@UAAPAXI@Z 100207e0 f i libmp4v2:atom_stsz.obj
 0001:0001f7e0       ??_GMP4StszAtom@@UAAPAXI@Z 100207e0 f i libmp4v2:atom_stsz.obj
 0001:0001f808       ?Read@MP4StsdAtom@@UAAXXZ  10020808 f   libmp4v2:atom_stsd.obj
 0001:0001f884       ??0MP4StsdAtom@@QAA@XZ     10020884 f   libmp4v2:atom_stsd.obj
 0001:0001f9f8       ??_EMP4StsdAtom@@UAAPAXI@Z 100209f8 f i libmp4v2:atom_stsd.obj
 0001:0001f9f8       ??_GMP4StsdAtom@@UAAPAXI@Z 100209f8 f i libmp4v2:atom_stsd.obj
 0001:0001fa20       ??0MP4StblAtom@@QAA@XZ     10020a20 f   libmp4v2:atom_stbl.obj
 0001:0001fb3c       ??_EMP4StblAtom@@UAAPAXI@Z 10020b3c f i libmp4v2:atom_stbl.obj
 0001:0001fb3c       ??_GMP4StblAtom@@UAAPAXI@Z 10020b3c f i libmp4v2:atom_stbl.obj
 0001:0001fb64       ?Generate@MP4StblAtom@@UAAXXZ 10020b64 f   libmp4v2:atom_stbl.obj
 0001:0001fbd0       ?Generate@MP4AmrAtom@@UAAXXZ 10020bd0 f   libmp4v2:atom_amr.obj
 0001:0001fc54       ??0MP4AmrAtom@@QAA@PBD@Z   10020c54 f   libmp4v2:atom_amr.obj
 0001:0001fd2c       ??_GMP4AmrAtom@@UAAPAXI@Z  10020d2c f i libmp4v2:atom_amr.obj
 0001:0001fd2c       ??_EMP4AmrAtom@@UAAPAXI@Z  10020d2c f i libmp4v2:atom_amr.obj
 0001:0001fd54       ?Generate@MP4S263Atom@@UAAXXZ 10020d54 f   libmp4v2:atom_s263.obj
 0001:0001fdd8       ??0MP4S263Atom@@QAA@XZ     10020dd8 f   libmp4v2:atom_s263.obj
 0001:0001fee8       ??_EMP4S263Atom@@UAAPAXI@Z 10020ee8 f i libmp4v2:atom_s263.obj
 0001:0001fee8       ??_GMP4S263Atom@@UAAPAXI@Z 10020ee8 f i libmp4v2:atom_s263.obj
 0001:0001ff10       ??0MP4TrunAtom@@QAA@XZ     10020f10 f   libmp4v2:atom_trun.obj
 0001:0001ff74       ??_EMP4TrunAtom@@UAAPAXI@Z 10020f74 f i libmp4v2:atom_trun.obj
 0001:0001ff74       ??_GMP4TrunAtom@@UAAPAXI@Z 10020f74 f i libmp4v2:atom_trun.obj
 0001:0001ff9c       ?AddProperties@MP4TrunAtom@@IAAXI@Z 10020f9c f   libmp4v2:atom_trun.obj
 0001:00020148       ?Read@MP4TrunAtom@@UAAXXZ  10021148 f   libmp4v2:atom_trun.obj
 0001:00020190       ??0MP4TfhdAtom@@QAA@XZ     10021190 f   libmp4v2:atom_tfhd.obj
 0001:000201f4       ??_EMP4TfhdAtom@@UAAPAXI@Z 100211f4 f i libmp4v2:atom_tfhd.obj
 0001:000201f4       ??_GMP4TfhdAtom@@UAAPAXI@Z 100211f4 f i libmp4v2:atom_tfhd.obj
 0001:0002021c       ?AddProperties@MP4TfhdAtom@@IAAXI@Z 1002121c f   libmp4v2:atom_tfhd.obj
 0001:00020348       ?Read@MP4TfhdAtom@@UAAXXZ  10021348 f   libmp4v2:atom_tfhd.obj
 0001:00020390       ?SetCount@MP4Float32Property@@UAAXI@Z 10021390 f i libmp4v2:atom_tkhd.obj
 0001:000203bc       ??0MP4TkhdAtom@@QAA@XZ     100213bc f   libmp4v2:atom_tkhd.obj
 0001:000203f0       ??0MP4Float32Property@@QAA@PAD@Z 100213f0 f i libmp4v2:atom_tkhd.obj
 0001:00020460       ?GetType@MP4Float32Property@@UAA?AW4MP4PropertyType@@XZ 10021460 f i libmp4v2:atom_tkhd.obj
 0001:00020468       ?GetCount@MP4Float32Property@@UAAIXZ 10021468 f i libmp4v2:atom_tkhd.obj
 0001:00020470       ??_EMP4Float32Property@@UAAPAXI@Z 10021470 f i libmp4v2:atom_tkhd.obj
 0001:00020470       ??_GMP4Float32Property@@UAAPAXI@Z 10021470 f i libmp4v2:atom_tkhd.obj
 0001:000204b0       ??_EMP4TkhdAtom@@UAAPAXI@Z 100214b0 f i libmp4v2:atom_tkhd.obj
 0001:000204b0       ??_GMP4TkhdAtom@@UAAPAXI@Z 100214b0 f i libmp4v2:atom_tkhd.obj
 0001:000204d8       ?AddProperties@MP4TkhdAtom@@IAAXE@Z 100214d8 f   libmp4v2:atom_tkhd.obj
 0001:00020700       ?Generate@MP4TkhdAtom@@UAAXXZ 10021700 f   libmp4v2:atom_tkhd.obj
 0001:00020828       ?Read@MP4TkhdAtom@@UAAXXZ  10021828 f   libmp4v2:atom_tkhd.obj
 0001:00020870       ?Generate@MP4HrefAtom@@UAAXXZ 10021870 f   libmp4v2:atom_href.obj
 0001:000208a0       ??0MP4HrefAtom@@QAA@XZ     100218a0 f   libmp4v2:atom_href.obj
 0001:00020910       ??_EMP4HrefAtom@@UAAPAXI@Z 10021910 f i libmp4v2:atom_href.obj
 0001:00020910       ??_GMP4HrefAtom@@UAAPAXI@Z 10021910 f i libmp4v2:atom_href.obj
 0001:00020938       ??0MP4HinfAtom@@QAA@XZ     10021938 f   libmp4v2:atom_hinf.obj
 0001:00020a84       ??_GMP4HinfAtom@@UAAPAXI@Z 10021a84 f i libmp4v2:atom_hinf.obj
 0001:00020a84       ??_EMP4HinfAtom@@UAAPAXI@Z 10021a84 f i libmp4v2:atom_hinf.obj
 0001:00020aac       ?Generate@MP4HinfAtom@@UAAXXZ 10021aac f   libmp4v2:atom_hinf.obj
 0001:00020b28       ??0MP4HntiAtom@@QAA@XZ     10021b28 f   libmp4v2:atom_hnti.obj
 0001:00020b54       ?Read@MP4HntiAtom@@UAAXXZ  10021b54 f   libmp4v2:atom_hnti.obj
 0001:00020bb0       ??_EMP4HntiAtom@@UAAPAXI@Z 10021bb0 f i libmp4v2:atom_hnti.obj
 0001:00020bb0       ??_GMP4HntiAtom@@UAAPAXI@Z 10021bb0 f i libmp4v2:atom_hnti.obj
 0001:00020bd8       ??0MP4HdlrAtom@@QAA@XZ     10021bd8 f   libmp4v2:atom_hdlr.obj
 0001:00020cac       ?Read@MP4HdlrAtom@@UAAXXZ  10021cac f   libmp4v2:atom_hdlr.obj
 0001:00020d68       ??_EMP4HdlrAtom@@UAAPAXI@Z 10021d68 f i libmp4v2:atom_hdlr.obj
 0001:00020d68       ??_GMP4HdlrAtom@@UAAPAXI@Z 10021d68 f i libmp4v2:atom_hdlr.obj
 0001:00020d90       ?Generate@MP4Mp4vAtom@@UAAXXZ 10021d90 f   libmp4v2:atom_mp4v.obj
 0001:00020e60       ??0MP4Mp4vAtom@@QAA@XZ     10021e60 f   libmp4v2:atom_mp4v.obj
 0001:00020fdc       ??_EMP4Mp4vAtom@@UAAPAXI@Z 10021fdc f i libmp4v2:atom_mp4v.obj
 0001:00020fdc       ??_GMP4Mp4vAtom@@UAAPAXI@Z 10021fdc f i libmp4v2:atom_mp4v.obj
 0001:00021004       ?Generate@MP4Mp4sAtom@@UAAXXZ 10022004 f   libmp4v2:atom_mp4s.obj
 0001:00021034       ??0MP4Mp4sAtom@@QAA@XZ     10022034 f   libmp4v2:atom_mp4s.obj
 0001:000210bc       ??_EMP4Mp4sAtom@@UAAPAXI@Z 100220bc f i libmp4v2:atom_mp4s.obj
 0001:000210bc       ??_GMP4Mp4sAtom@@UAAPAXI@Z 100220bc f i libmp4v2:atom_mp4s.obj
 0001:000210e4       ??0MP4MdatAtom@@QAA@XZ     100220e4 f   libmp4v2:atom_mdat.obj
 0001:00021110       ?Read@MP4MdatAtom@@UAAXXZ  10022110 f   libmp4v2:atom_mdat.obj
 0001:00021120       ?Write@MP4MdatAtom@@UAAXXZ 10022120 f   libmp4v2:atom_mdat.obj
 0001:00021124       ??_GMP4MdatAtom@@UAAPAXI@Z 10022124 f i libmp4v2:atom_mdat.obj
 0001:00021124       ??_EMP4MdatAtom@@UAAPAXI@Z 10022124 f i libmp4v2:atom_mdat.obj
 0001:0002114c       ??0MP4MvhdAtom@@QAA@XZ     1002214c f   libmp4v2:atom_mvhd.obj
 0001:00021180       ??_GMP4MvhdAtom@@UAAPAXI@Z 10022180 f i libmp4v2:atom_mvhd.obj
 0001:00021180       ??_EMP4MvhdAtom@@UAAPAXI@Z 10022180 f i libmp4v2:atom_mvhd.obj
 0001:000211a8       ?AddProperties@MP4MvhdAtom@@IAAXE@Z 100221a8 f   libmp4v2:atom_mvhd.obj
 0001:000213a0       ?Generate@MP4MvhdAtom@@UAAXXZ 100223a0 f   libmp4v2:atom_mvhd.obj
 0001:00021538       ?Read@MP4MvhdAtom@@UAAXXZ  10022538 f   libmp4v2:atom_mvhd.obj
 0001:00021580       ??0MP4MdhdAtom@@QAA@XZ     10022580 f   libmp4v2:atom_mdhd.obj
 0001:000215b4       ??_GMP4MdhdAtom@@UAAPAXI@Z 100225b4 f i libmp4v2:atom_mdhd.obj
 0001:000215b4       ??_EMP4MdhdAtom@@UAAPAXI@Z 100225b4 f i libmp4v2:atom_mdhd.obj
 0001:000215dc       ?AddProperties@MP4MdhdAtom@@IAAXE@Z 100225dc f   libmp4v2:atom_mdhd.obj
 0001:00021760       ?Generate@MP4MdhdAtom@@UAAXXZ 10022760 f   libmp4v2:atom_mdhd.obj
 0001:00021838       ?Read@MP4MdhdAtom@@UAAXXZ  10022838 f   libmp4v2:atom_mdhd.obj
 0001:00021880       ?Generate@MP4FtypAtom@@UAAXXZ 10022880 f   libmp4v2:atom_ftyp.obj
 0001:00021944       ?Read@MP4FtypAtom@@UAAXXZ  10022944 f   libmp4v2:atom_ftyp.obj
 0001:000219c4       ??0MP4FtypAtom@@QAA@XZ     100229c4 f   libmp4v2:atom_ftyp.obj
 0001:00021b18       ??_GMP4FtypAtom@@UAAPAXI@Z 10022b18 f i libmp4v2:atom_ftyp.obj
 0001:00021b18       ??_EMP4FtypAtom@@UAAPAXI@Z 10022b18 f i libmp4v2:atom_ftyp.obj
 0001:00021b40       ??0MP4FreeAtom@@QAA@XZ     10022b40 f   libmp4v2:atom_free.obj
 0001:00021b6c       ?Read@MP4FreeAtom@@UAAXXZ  10022b6c f   libmp4v2:atom_free.obj
 0001:00021b7c       ?Write@MP4FreeAtom@@UAAXXZ 10022b7c f   libmp4v2:atom_free.obj
 0001:00021c3c       ??_GMP4FreeAtom@@UAAPAXI@Z 10022c3c f i libmp4v2:atom_free.obj
 0001:00021c3c       ??_EMP4FreeAtom@@UAAPAXI@Z 10022c3c f i libmp4v2:atom_free.obj
 0001:00021c64       ??0MP4SmiAtom@@QAA@XZ      10022c64 f   libmp4v2:atom_smi.obj
 0001:00021cc8       ?Read@MP4SmiAtom@@UAAXXZ   10022cc8 f   libmp4v2:atom_smi.obj
 0001:00021cfc       ??_EMP4SmiAtom@@UAAPAXI@Z  10022cfc f i libmp4v2:atom_smi.obj
 0001:00021cfc       ??_GMP4SmiAtom@@UAAPAXI@Z  10022cfc f i libmp4v2:atom_smi.obj
 0001:00021d24       ?Generate@MP4VideoAtom@@UAAXXZ 10022d24 f   libmp4v2:atom_video.obj
 0001:00021dec       ??0MP4VideoAtom@@QAA@PBD@Z 10022dec f   libmp4v2:atom_video.obj
 0001:00021fac       ??_EMP4VideoAtom@@UAAPAXI@Z 10022fac f i libmp4v2:atom_video.obj
 0001:00021fac       ??_GMP4VideoAtom@@UAAPAXI@Z 10022fac f i libmp4v2:atom_video.obj
 0001:00021fd4       ?Delete@MP4PropertyArray@@QAAXI@Z 10022fd4 f i libmp4v2:atom_sound.obj
 0001:00022080       ?Generate@MP4SoundAtom@@UAAXXZ 10023080 f   libmp4v2:atom_sound.obj
 0001:00022174       ??0MP4SoundAtom@@QAA@PBD@Z 10023174 f   libmp4v2:atom_sound.obj
 0001:00022388       ??_EMP4SoundAtom@@UAAPAXI@Z 10023388 f i libmp4v2:atom_sound.obj
 0001:00022388       ??_GMP4SoundAtom@@UAAPAXI@Z 10023388 f i libmp4v2:atom_sound.obj
 0001:000223b0       ?AddProperties@MP4SoundAtom@@IAAXE@Z 100233b0 f   libmp4v2:atom_sound.obj
 0001:000224a0       ?Read@MP4SoundAtom@@UAAXXZ 100234a0 f   libmp4v2:atom_sound.obj
 0001:0002260c       ??0MP4UrlAtom@@QAA@PBD@Z   1002360c f   libmp4v2:atom_url.obj
 0001:00022670       ?Read@MP4UrlAtom@@UAAXXZ   10023670 f   libmp4v2:atom_url.obj
 0001:000226b0       ?Write@MP4UrlAtom@@UAAXXZ  100236b0 f   libmp4v2:atom_url.obj
 0001:0002272c       ??_EMP4UrlAtom@@UAAPAXI@Z  1002372c f i libmp4v2:atom_url.obj
 0001:0002272c       ??_GMP4UrlAtom@@UAAPAXI@Z  1002372c f i libmp4v2:atom_url.obj
 0001:00022754       ?ReadEntry@SizeTableProperty@@MAAXPAVMP4File@@I@Z 10023754 f i libmp4v2:atom_avcC.obj
 0001:00022810       ?Generate@MP4AvcCAtom@@UAAXXZ 10023810 f   libmp4v2:atom_avcC.obj
 0001:000228d8       ??_ESizeTableProperty@@UAAPAXI@Z 100238d8 f i libmp4v2:atom_avcC.obj
 0001:000228d8       ??_GSizeTableProperty@@UAAPAXI@Z 100238d8 f i libmp4v2:atom_avcC.obj
 0001:00022900       ??0MP4AvcCAtom@@QAA@XZ     10023900 f   libmp4v2:atom_avcC.obj
 0001:00022c78       ??_GMP4AvcCAtom@@UAAPAXI@Z 10023c78 f i libmp4v2:atom_avcC.obj
 0001:00022c78       ??_EMP4AvcCAtom@@UAAPAXI@Z 10023c78 f i libmp4v2:atom_avcC.obj
 0001:00022ca0       ?Generate@MP4Avc1Atom@@UAAXXZ 10023ca0 f   libmp4v2:atom_avc1.obj
 0001:00022d70       ??0MP4Avc1Atom@@QAA@XZ     10023d70 f   libmp4v2:atom_avc1.obj
 0001:00022f04       ??_GMP4Avc1Atom@@UAAPAXI@Z 10023f04 f i libmp4v2:atom_avc1.obj
 0001:00022f04       ??_EMP4Avc1Atom@@UAAPAXI@Z 10023f04 f i libmp4v2:atom_avc1.obj
 0001:00022f2c       ?Read@MP4TrefTypeAtom@@UAAXXZ 10023f2c f   libmp4v2:atom_treftype.obj
 0001:00022f9c       ??0MP4TrefTypeAtom@@QAA@PBD@Z 10023f9c f   libmp4v2:atom_treftype.obj
 0001:00023064       ??_GMP4TrefTypeAtom@@UAAPAXI@Z 10024064 f i libmp4v2:atom_treftype.obj
 0001:00023064       ??_EMP4TrefTypeAtom@@UAAPAXI@Z 10024064 f i libmp4v2:atom_treftype.obj
 0001:000230ac       ?Read@MP4DrefAtom@@UAAXXZ  100240ac f   libmp4v2:atom_dref.obj
 0001:00023128       ??0MP4DrefAtom@@QAA@XZ     10024128 f   libmp4v2:atom_dref.obj
 0001:000231dc       ??_GMP4DrefAtom@@UAAPAXI@Z 100241dc f i libmp4v2:atom_dref.obj
 0001:000231dc       ??_EMP4DrefAtom@@UAAPAXI@Z 100241dc f i libmp4v2:atom_dref.obj
 0001:00023204       ?Generate@MP4DamrAtom@@UAAXXZ 10024204 f   libmp4v2:atom_damr.obj
 0001:00023254       ??0MP4DamrAtom@@QAA@XZ     10024254 f   libmp4v2:atom_damr.obj
 0001:00023370       ??_GMP4DamrAtom@@UAAPAXI@Z 10024370 f i libmp4v2:atom_damr.obj
 0001:00023370       ??_EMP4DamrAtom@@UAAPAXI@Z 10024370 f i libmp4v2:atom_damr.obj
 0001:00023398       ?Generate@MP4D263Atom@@UAAXXZ 10024398 f   libmp4v2:atom_d263.obj
 0001:000233e8       ?Write@MP4D263Atom@@UAAXXZ 100243e8 f   libmp4v2:atom_d263.obj
 0001:0002348c       ??0MP4D263Atom@@QAA@XZ     1002448c f   libmp4v2:atom_d263.obj
 0001:00023590       ??_EMP4D263Atom@@UAAPAXI@Z 10024590 f i libmp4v2:atom_d263.obj
 0001:00023590       ??_GMP4D263Atom@@UAAPAXI@Z 10024590 f i libmp4v2:atom_d263.obj
 0001:000235b8       ?Generate@MP4EncvAtom@@UAAXXZ 100245b8 f   libmp4v2:atom_encv.obj
 0001:00023688       ??0MP4EncvAtom@@QAA@XZ     10024688 f   libmp4v2:atom_encv.obj
 0001:0002381c       ??_GMP4EncvAtom@@UAAPAXI@Z 1002481c f i libmp4v2:atom_encv.obj
 0001:0002381c       ??_EMP4EncvAtom@@UAAPAXI@Z 1002481c f i libmp4v2:atom_encv.obj
 0001:00023844       ?Generate@MP4EncaAtom@@UAAXXZ 10024844 f   libmp4v2:atom_enca.obj
 0001:000238c8       ??0MP4EncaAtom@@QAA@XZ     100248c8 f   libmp4v2:atom_enca.obj
 0001:000239c0       ??_GMP4EncaAtom@@UAAPAXI@Z 100249c0 f i libmp4v2:atom_enca.obj
 0001:000239c0       ??_EMP4EncaAtom@@UAAPAXI@Z 100249c0 f i libmp4v2:atom_enca.obj
 0001:000239e8       ??0MP4ElstAtom@@QAA@XZ     100249e8 f   libmp4v2:atom_elst.obj
 0001:00023a84       ??_EMP4ElstAtom@@UAAPAXI@Z 10024a84 f i libmp4v2:atom_elst.obj
 0001:00023a84       ??_GMP4ElstAtom@@UAAPAXI@Z 10024a84 f i libmp4v2:atom_elst.obj
 0001:00023aac       ?AddProperties@MP4ElstAtom@@IAAXE@Z 10024aac f   libmp4v2:atom_elst.obj
 0001:00023bd8       ?Generate@MP4ElstAtom@@UAAXXZ 10024bd8 f   libmp4v2:atom_elst.obj
 0001:00023c0c       ?Read@MP4ElstAtom@@UAAXXZ  10024c0c f   libmp4v2:atom_elst.obj
 0001:00023c54       ?Read@MP4ContentClassDescriptor@@UAAXPAVMP4File@@@Z 10024c54 f   libmp4v2:ocidescriptors.obj
 0001:00023ca0       ?Mutate@MP4KeywordDescriptor@@MAAXXZ 10024ca0 f   libmp4v2:ocidescriptors.obj
 0001:00023d10       ?Read@MP4RatingDescriptor@@UAAXPAVMP4File@@@Z 10024d10 f   libmp4v2:ocidescriptors.obj
 0001:00023d5c       ??0MP4LanguageDescriptor@@QAA@XZ 10024d5c f   libmp4v2:ocidescriptors.obj
 0001:00023dbc       ?Mutate@MP4ShortTextDescriptor@@MAAXXZ 10024dbc f   libmp4v2:ocidescriptors.obj
 0001:00023e3c       ?Mutate@MP4ExpandedTextDescriptor@@MAAXXZ 10024e3c f   libmp4v2:ocidescriptors.obj
 0001:00023efc       ?ReadEntry@MP4CreatorTableProperty@@MAAXPAVMP4File@@I@Z 10024efc f   libmp4v2:ocidescriptors.obj
 0001:00024004       ?WriteEntry@MP4CreatorTableProperty@@MAAXPAVMP4File@@I@Z 10025004 f   libmp4v2:ocidescriptors.obj
 0001:0002407c       ??0MP4UnknownOCIDescriptor@@QAA@XZ 1002507c f   libmp4v2:ocidescriptors.obj
 0001:000240dc       ?Read@MP4UnknownOCIDescriptor@@UAAXPAVMP4File@@@Z 100250dc f   libmp4v2:ocidescriptors.obj
 0001:00024124       ??0MP4ContentClassDescriptor@@QAA@XZ 10025124 f   libmp4v2:ocidescriptors.obj
 0001:000241e4       ??_GMP4ContentClassDescriptor@@UAAPAXI@Z 100251e4 f i libmp4v2:ocidescriptors.obj
 0001:000241e4       ??_EMP4ContentClassDescriptor@@UAAPAXI@Z 100251e4 f i libmp4v2:ocidescriptors.obj
 0001:0002420c       ??0MP4KeywordDescriptor@@QAA@XZ 1002520c f   libmp4v2:ocidescriptors.obj
 0001:000243a0       ??_EMP4KeywordDescriptor@@UAAPAXI@Z 100253a0 f i libmp4v2:ocidescriptors.obj
 0001:000243a0       ??_GMP4KeywordDescriptor@@UAAPAXI@Z 100253a0 f i libmp4v2:ocidescriptors.obj
 0001:000243c8       ??0MP4RatingDescriptor@@QAA@XZ 100253c8 f   libmp4v2:ocidescriptors.obj
 0001:00024488       ??_EMP4RatingDescriptor@@UAAPAXI@Z 10025488 f i libmp4v2:ocidescriptors.obj
 0001:00024488       ??_GMP4RatingDescriptor@@UAAPAXI@Z 10025488 f i libmp4v2:ocidescriptors.obj
 0001:000244b0       ??_GMP4LanguageDescriptor@@UAAPAXI@Z 100254b0 f i libmp4v2:ocidescriptors.obj
 0001:000244b0       ??_EMP4LanguageDescriptor@@UAAPAXI@Z 100254b0 f i libmp4v2:ocidescriptors.obj
 0001:000244d8       ??0MP4ShortTextDescriptor@@QAA@XZ 100254d8 f   libmp4v2:ocidescriptors.obj
 0001:00024638       ??_GMP4ShortTextDescriptor@@UAAPAXI@Z 10025638 f i libmp4v2:ocidescriptors.obj
 0001:00024638       ??_EMP4ShortTextDescriptor@@UAAPAXI@Z 10025638 f i libmp4v2:ocidescriptors.obj
 0001:00024660       ??0MP4ExpandedTextDescriptor@@QAA@XZ 10025660 f   libmp4v2:ocidescriptors.obj
 0001:00024878       ??_GMP4ExpandedTextDescriptor@@UAAPAXI@Z 10025878 f i libmp4v2:ocidescriptors.obj
 0001:00024878       ??_EMP4ExpandedTextDescriptor@@UAAPAXI@Z 10025878 f i libmp4v2:ocidescriptors.obj
 0001:000248a0       ??_EMP4CreatorTableProperty@@UAAPAXI@Z 100258a0 f i libmp4v2:ocidescriptors.obj
 0001:000248a0       ??_GMP4CreatorTableProperty@@UAAPAXI@Z 100258a0 f i libmp4v2:ocidescriptors.obj
 0001:000248c8       ??0MP4CreatorDescriptor@@QAA@E@Z 100258c8 f   libmp4v2:ocidescriptors.obj
 0001:00024a5c       ??_GMP4CreatorDescriptor@@UAAPAXI@Z 10025a5c f i libmp4v2:ocidescriptors.obj
 0001:00024a5c       ??_EMP4CreatorDescriptor@@UAAPAXI@Z 10025a5c f i libmp4v2:ocidescriptors.obj
 0001:00024a84       ??0MP4CreationDescriptor@@QAA@E@Z 10025a84 f   libmp4v2:ocidescriptors.obj
 0001:00024af0       ??_EMP4CreationDescriptor@@UAAPAXI@Z 10025af0 f i libmp4v2:ocidescriptors.obj
 0001:00024af0       ??_GMP4CreationDescriptor@@UAAPAXI@Z 10025af0 f i libmp4v2:ocidescriptors.obj
 0001:00024b18       ??0MP4SmpteCameraDescriptor@@QAA@XZ 10025b18 f   libmp4v2:ocidescriptors.obj
 0001:00024c0c       ??_GMP4SmpteCameraDescriptor@@UAAPAXI@Z 10025c0c f i libmp4v2:ocidescriptors.obj
 0001:00024c0c       ??_EMP4SmpteCameraDescriptor@@UAAPAXI@Z 10025c0c f i libmp4v2:ocidescriptors.obj
 0001:00024c34       ??_EMP4UnknownOCIDescriptor@@UAAPAXI@Z 10025c34 f i libmp4v2:ocidescriptors.obj
 0001:00024c34       ??_GMP4UnknownOCIDescriptor@@UAAPAXI@Z 10025c34 f i libmp4v2:ocidescriptors.obj
 0001:00024c5c       ?CreateOCIDescriptor@@YAPAVMP4Descriptor@@E@Z 10025c5c f   libmp4v2:ocidescriptors.obj
 0001:00024db0       ??0MP4UnknownQosQualifier@@QAA@XZ 10025db0 f   libmp4v2:qosqualifiers.obj
 0001:00024e10       ?Read@MP4UnknownQosQualifier@@UAAXPAVMP4File@@@Z 10025e10 f   libmp4v2:qosqualifiers.obj
 0001:00024e58       ??_GMP4QosQualifierProperty@@UAAPAXI@Z 10025e58 f i libmp4v2:qosqualifiers.obj
 0001:00024e58       ??_EMP4QosQualifierProperty@@UAAPAXI@Z 10025e58 f i libmp4v2:qosqualifiers.obj
 0001:00024e80       ??0MP4QosDescriptor@@QAA@XZ 10025e80 f   libmp4v2:qosqualifiers.obj
 0001:00024f34       ??_EMP4QosDescriptor@@UAAPAXI@Z 10025f34 f i libmp4v2:qosqualifiers.obj
 0001:00024f34       ??_GMP4QosDescriptor@@UAAPAXI@Z 10025f34 f i libmp4v2:qosqualifiers.obj
 0001:00024f5c       ??0MP4MaxDelayQosQualifier@@QAA@XZ 10025f5c f   libmp4v2:qosqualifiers.obj
 0001:00024fb4       ??_GMP4MaxDelayQosQualifier@@UAAPAXI@Z 10025fb4 f i libmp4v2:qosqualifiers.obj
 0001:00024fb4       ??_EMP4MaxDelayQosQualifier@@UAAPAXI@Z 10025fb4 f i libmp4v2:qosqualifiers.obj
 0001:00024fdc       ??0MP4PrefMaxDelayQosQualifier@@QAA@XZ 10025fdc f   libmp4v2:qosqualifiers.obj
 0001:00025034       ??_EMP4PrefMaxDelayQosQualifier@@UAAPAXI@Z 10026034 f i libmp4v2:qosqualifiers.obj
 0001:00025034       ??_GMP4PrefMaxDelayQosQualifier@@UAAPAXI@Z 10026034 f i libmp4v2:qosqualifiers.obj
 0001:0002505c       ??0MP4LossProbQosQualifier@@QAA@XZ 1002605c f   libmp4v2:qosqualifiers.obj
 0001:000250b4       ??_EMP4LossProbQosQualifier@@UAAPAXI@Z 100260b4 f i libmp4v2:qosqualifiers.obj
 0001:000250b4       ??_GMP4LossProbQosQualifier@@UAAPAXI@Z 100260b4 f i libmp4v2:qosqualifiers.obj
 0001:000250dc       ??0MP4MaxGapLossQosQualifier@@QAA@XZ 100260dc f   libmp4v2:qosqualifiers.obj
 0001:00025134       ??_EMP4MaxGapLossQosQualifier@@UAAPAXI@Z 10026134 f i libmp4v2:qosqualifiers.obj
 0001:00025134       ??_GMP4MaxGapLossQosQualifier@@UAAPAXI@Z 10026134 f i libmp4v2:qosqualifiers.obj
 0001:0002515c       ??0MP4MaxAUSizeQosQualifier@@QAA@XZ 1002615c f   libmp4v2:qosqualifiers.obj
 0001:000251b4       ??_EMP4MaxAUSizeQosQualifier@@UAAPAXI@Z 100261b4 f i libmp4v2:qosqualifiers.obj
 0001:000251b4       ??_GMP4MaxAUSizeQosQualifier@@UAAPAXI@Z 100261b4 f i libmp4v2:qosqualifiers.obj
 0001:000251dc       ??0MP4AvgAUSizeQosQualifier@@QAA@XZ 100261dc f   libmp4v2:qosqualifiers.obj
 0001:00025234       ??_EMP4AvgAUSizeQosQualifier@@UAAPAXI@Z 10026234 f i libmp4v2:qosqualifiers.obj
 0001:00025234       ??_GMP4AvgAUSizeQosQualifier@@UAAPAXI@Z 10026234 f i libmp4v2:qosqualifiers.obj
 0001:0002525c       ??0MP4MaxAURateQosQualifier@@QAA@XZ 1002625c f   libmp4v2:qosqualifiers.obj
 0001:000252b4       ??_EMP4MaxAURateQosQualifier@@UAAPAXI@Z 100262b4 f i libmp4v2:qosqualifiers.obj
 0001:000252b4       ??_GMP4MaxAURateQosQualifier@@UAAPAXI@Z 100262b4 f i libmp4v2:qosqualifiers.obj
 0001:000252dc       ??_GMP4UnknownQosQualifier@@UAAPAXI@Z 100262dc f i libmp4v2:qosqualifiers.obj
 0001:000252dc       ??_EMP4UnknownQosQualifier@@UAAPAXI@Z 100262dc f i libmp4v2:qosqualifiers.obj
 0001:00025304       ?CreateDescriptor@MP4QosQualifierProperty@@MAAPAVMP4Descriptor@@E@Z 10026304 f   libmp4v2:qosqualifiers.obj
 0001:00025428       htonl                      10026428 f   ws2:WS2.dll
 0001:00025438       DllMain                    10026438 f   corelib0:dllmain.obj
 0001:00025554       _DllMainCRTStartup         10026554 f   corelib0:pegdmain.obj
 0001:00025584       __GSHandlerCheckCommon     10026584 f   corelib0:gshandler.obj
 0001:000255c0       __GSHandlerCheck           100265c0 f   corelib0:gshandler.obj
 0001:000255e4       __security_init_cookie     100265e4 f   corelib0:seccinit.obj
 0001:00025640       __security_check_cookie    10026640 f   corelib0:armsecgs.obj
 0001:00025654       __gsfailure                10026654 f   corelib0:armsecgs.obj
 0001:00025698       __GSHandlerCheck_SEH       10026698 f   corelib0:gshandlerseh.obj
 0001:000257e4       _cexit                     100267e4 f   corelib0:cexit.obj
 0001:00025800       _initterm                  10026800 f   corelib0:crt0dat.obj
 0001:00025834       _cinit                     10026834 f   corelib0:crt0dat.obj
 0001:00025868       __utod                     10026868 f   corelib1:COREDLL.dll
 0001:00025878       free                       10026878 f   corelib1:COREDLL.dll
 0001:00025888       ??3@YAXPAX@Z               10026888 f   corelib1:COREDLL.dll
 0001:00025898       memcmp                     10026898 f   corelib1:COREDLL.dll
 0001:000258a8       memcpy                     100268a8 f   corelib1:COREDLL.dll
 0001:000258b8       wcslen                     100268b8 f   corelib1:COREDLL.dll
 0001:000258c8       __divd                     100268c8 f   corelib1:COREDLL.dll
 0001:000258d8       printf                     100268d8 f   corelib1:COREDLL.dll
 0001:000258e8       malloc                     100268e8 f   corelib1:COREDLL.dll
 0001:000258f8       strcmp                     100268f8 f   corelib1:COREDLL.dll
 0001:00025908       memset                     10026908 f   corelib1:COREDLL.dll
 0001:00025918       ??2@YAPAXI@Z               10026918 f   corelib1:COREDLL.dll
 0001:00025928       wcscpy                     10026928 f   corelib1:COREDLL.dll
 0001:00025938       __utos                     10026938 f   corelib1:COREDLL.dll
 0001:00025948       __divs                     10026948 f   corelib1:COREDLL.dll
 0001:00025958       __muls                     10026958 f   corelib1:COREDLL.dll
 0001:00025968       __stou                     10026968 f   corelib1:COREDLL.dll
 0001:00025978       __i64tod                   10026978 f   corelib1:COREDLL.dll
 0001:00025988       __dtoi64                   10026988 f   corelib1:COREDLL.dll
 0001:00025998       __muld                     10026998 f   corelib1:COREDLL.dll
 0001:000259a8       __rt_sdiv64by64            100269a8 f   corelib1:COREDLL.dll
 0001:000259b8       __led                      100269b8 f   corelib1:COREDLL.dll
 0001:000259c8       _purecall                  100269c8 f   corelib1:COREDLL.dll
 0001:000259d8       __rt_udiv64by64            100269d8 f   corelib1:COREDLL.dll
 0001:000259e8       memmove                    100269e8 f   corelib1:COREDLL.dll
 0001:000259f8       __CxxThrowException        100269f8 f   corelib1:COREDLL.dll
 0001:00025a08       ??_7type_info@@6B@         10026a08 f   corelib1:COREDLL.dll
 0001:00025a18       __C_specific_handler       10026a18 f   corelib1:COREDLL.dll
 0001:00025a28       fprintf                    10026a28 f   corelib1:COREDLL.dll
 0001:00025a38       _getstdfilex               10026a38 f   corelib1:COREDLL.dll
 0001:00025a48       sprintf                    10026a48 f   corelib1:COREDLL.dll
 0001:00025a58       strlen                     10026a58 f   corelib1:COREDLL.dll
 0001:00025a68       _stricmp                   10026a68 f   corelib1:COREDLL.dll
 0001:00025a78       strcpy                     10026a78 f   corelib1:COREDLL.dll
 0001:00025a88       realloc                    10026a88 f   corelib1:COREDLL.dll
 0001:00025a98       fclose                     10026a98 f   corelib1:COREDLL.dll
 0001:00025aa8       ftell                      10026aa8 f   corelib1:COREDLL.dll
 0001:00025ab8       fseek                      10026ab8 f   corelib1:COREDLL.dll
 0001:00025ac8       fopen                      10026ac8 f   corelib1:COREDLL.dll
 0001:00025ad8       _wfopen                    10026ad8 f   corelib1:COREDLL.dll
 0001:00025ae8       _snprintf                  10026ae8 f   corelib1:COREDLL.dll
 0001:00025af8       __itos                     10026af8 f   corelib1:COREDLL.dll
 0001:00025b08       strchr                     10026b08 f   corelib1:COREDLL.dll
 0001:00025b18       strncmp                    10026b18 f   corelib1:COREDLL.dll
 0001:00025b28       __rt_udiv                  10026b28 f   corelib1:COREDLL.dll
 0001:00025b38       ceil                       10026b38 f   corelib1:COREDLL.dll
 0001:00025b48       __dtou                     10026b48 f   corelib1:COREDLL.dll
 0001:00025b58       __CxxFrameHandler3         10026b58 f   corelib1:COREDLL.dll
 0001:00025b68       tolower                    10026b68 f   corelib1:COREDLL.dll
 0001:00025b78       sscanf                     10026b78 f   corelib1:COREDLL.dll
 0001:00025b88       strncpy                    10026b88 f   corelib1:COREDLL.dll
 0001:00025b98       __addd                     10026b98 f   corelib1:COREDLL.dll
 0001:00025ba8       __dtou64                   10026ba8 f   corelib1:COREDLL.dll
 0001:00025bb8       fflush                     10026bb8 f   corelib1:COREDLL.dll
 0001:00025bc8       __stod                     10026bc8 f   corelib1:COREDLL.dll
 0001:00025bd8       fputs                      10026bd8 f   corelib1:COREDLL.dll
 0001:00025be8       _isctype                   10026be8 f   corelib1:COREDLL.dll
 0001:00025bf8       fgetpos                    10026bf8 f   corelib1:COREDLL.dll
 0001:00025c08       fsetpos                    10026c08 f   corelib1:COREDLL.dll
 0001:00025c18       feof                       10026c18 f   corelib1:COREDLL.dll
 0001:00025c28       fread                      10026c28 f   corelib1:COREDLL.dll
 0001:00025c38       fwrite                     10026c38 f   corelib1:COREDLL.dll
 0001:00025c48       __adds                     10026c48 f   corelib1:COREDLL.dll
 0001:00025c58       __ges                      10026c58 f   corelib1:COREDLL.dll
 0001:00025c68       __subs                     10026c68 f   corelib1:COREDLL.dll
 0001:00025c78       vprintf                    10026c78 f   corelib1:COREDLL.dll
 0001:00025c88       _XcptFilter                10026c88 f   corelib1:COREDLL.dll
 0001:00025c98       __security_gen_cookie2     10026c98 f   corelib1:COREDLL.dll
 0001:00025ca8       __report_gsfailure         10026ca8 f   corelib1:COREDLL.dll
 0001:00025cb8       GetSystemTime              10026cb8 f   coredll:COREDLL.dll
 0001:00025cc8       RaiseException             10026cc8 f   coredll:COREDLL.dll
 0001:00025cd8       TerminateProcess           10026cd8 f   coredll:COREDLL.dll
 0001:00025ebc       _TI2PAVMP4Error@@          10026ebc     libmp4v2:mp4.obj
 0001:00025ecc       _CTA2PAVMP4Error@@         10026ecc     libmp4v2:mp4.obj
 0001:00025ed8       _CT??_R0PAVMP4Error@@@84   10026ed8     libmp4v2:mp4.obj
 0001:00025ef4       _CT??_R0PAX@84             10026ef4     libmp4v2:mp4.obj
 0001:00025f10       __IMPORT_DESCRIPTOR_ole32  10026f10     ole32:ole32.dll
 0001:00025f24       __IMPORT_DESCRIPTOR_COREDLL 10026f24     coredll:COREDLL.dll
 0001:00025f38       __IMPORT_DESCRIPTOR_WS2    10026f38     ws2:WS2.dll
 0001:00025f4c       __NULL_IMPORT_DESCRIPTOR   10026f4c     ole32:ole32.dll
 0002:00000000       __imp___divs               10028000     corelib1:COREDLL.dll
 0002:00000004       __imp_TerminateProcess     10028004     coredll:COREDLL.dll
 0002:00000008       __imp_RaiseException       10028008     coredll:COREDLL.dll
 0002:0000000c       __imp_GetSystemTime        1002800c     coredll:COREDLL.dll
 0002:00000010       __imp_EnterCriticalSection 10028010     coredll:COREDLL.dll
 0002:00000014       __imp_LeaveCriticalSection 10028014     coredll:COREDLL.dll
 0002:00000018       __imp_NKDbgPrintfW         10028018     coredll:COREDLL.dll
 0002:0000001c       __imp_InitializeCriticalSection 1002801c     coredll:COREDLL.dll
 0002:00000020       __imp_DeleteCriticalSection 10028020     coredll:COREDLL.dll
 0002:00000024       __imp_GetTickCount         10028024     coredll:COREDLL.dll
 0002:00000028       __imp_CloseHandle          10028028     coredll:COREDLL.dll
 0002:0000002c       __imp_WaitForSingleObject  1002802c     coredll:COREDLL.dll
 0002:00000030       __imp_InterlockedExchange  10028030     coredll:COREDLL.dll
 0002:00000034       __imp_Sleep                10028034     coredll:COREDLL.dll
 0002:00000038       __imp_InterlockedIncrement 10028038     coredll:COREDLL.dll
 0002:0000003c       __imp_InterlockedDecrement 1002803c     coredll:COREDLL.dll
 0002:00000040       __imp_FreeLibrary          10028040     coredll:COREDLL.dll
 0002:00000044       __imp_RegCloseKey          10028044     coredll:COREDLL.dll
 0002:00000048       __imp_RegQueryValueExW     10028048     coredll:COREDLL.dll
 0002:0000004c       __imp_RegOpenKeyExW        1002804c     coredll:COREDLL.dll
 0002:00000050       __imp_CeSetThreadPriority  10028050     coredll:COREDLL.dll
 0002:00000054       __imp_CreateEventW         10028054     coredll:COREDLL.dll
 0002:00000058       __imp_EventModify          10028058     coredll:COREDLL.dll
 0002:0000005c       __imp_wsprintfW            1002805c     coredll:COREDLL.dll
 0002:00000060       __imp_GetLastError         10028060     coredll:COREDLL.dll
 0002:00000064       __imp_CreateThread         10028064     coredll:COREDLL.dll
 0002:00000068       __imp_RegDeleteKeyW        10028068     coredll:COREDLL.dll
 0002:0000006c       __imp_RegEnumKeyExW        1002806c     coredll:COREDLL.dll
 0002:00000070       __imp_RegSetValueExW       10028070     coredll:COREDLL.dll
 0002:00000074       __imp_RegCreateKeyExW      10028074     coredll:COREDLL.dll
 0002:00000078       __imp_GetModuleFileNameW   10028078     coredll:COREDLL.dll
 0002:0000007c       __imp_DisableThreadLibraryCalls 1002807c     coredll:COREDLL.dll
 0002:00000080       __imp___report_gsfailure   10028080     corelib1:COREDLL.dll
 0002:00000084       __imp___security_gen_cookie2 10028084     corelib1:COREDLL.dll
 0002:00000088       __imp__XcptFilter          10028088     corelib1:COREDLL.dll
 0002:0000008c       __imp___utod               1002808c     corelib1:COREDLL.dll
 0002:00000090       __imp_free                 10028090     corelib1:COREDLL.dll
 0002:00000094       __imp_??3@YAXPAX@Z         10028094     corelib1:COREDLL.dll
 0002:00000098       __imp_memcmp               10028098     corelib1:COREDLL.dll
 0002:0000009c       __imp_memcpy               1002809c     corelib1:COREDLL.dll
 0002:000000a0       __imp_wcslen               100280a0     corelib1:COREDLL.dll
 0002:000000a4       __imp___divd               100280a4     corelib1:COREDLL.dll
 0002:000000a8       __imp_printf               100280a8     corelib1:COREDLL.dll
 0002:000000ac       __imp_malloc               100280ac     corelib1:COREDLL.dll
 0002:000000b0       __imp_strcmp               100280b0     corelib1:COREDLL.dll
 0002:000000b4       __imp_memset               100280b4     corelib1:COREDLL.dll
 0002:000000b8       __imp_??2@YAPAXI@Z         100280b8     corelib1:COREDLL.dll
 0002:000000bc       __imp_wcscpy               100280bc     corelib1:COREDLL.dll
 0002:000000c0       __imp___utos               100280c0     corelib1:COREDLL.dll
 0002:000000c4       __imp___muls               100280c4     corelib1:COREDLL.dll
 0002:000000c8       __imp___stou               100280c8     corelib1:COREDLL.dll
 0002:000000cc       __imp___i64tod             100280cc     corelib1:COREDLL.dll
 0002:000000d0       __imp___dtoi64             100280d0     corelib1:COREDLL.dll
 0002:000000d4       __imp___muld               100280d4     corelib1:COREDLL.dll
 0002:000000d8       __imp___rt_sdiv64by64      100280d8     corelib1:COREDLL.dll
 0002:000000dc       __imp___led                100280dc     corelib1:COREDLL.dll
 0002:000000e0       __imp__purecall            100280e0     corelib1:COREDLL.dll
 0002:000000e4       __imp___rt_udiv64by64      100280e4     corelib1:COREDLL.dll
 0002:000000e8       __imp_memmove              100280e8     corelib1:COREDLL.dll
 0002:000000ec       __imp___CxxThrowException  100280ec     corelib1:COREDLL.dll
 0002:000000f0       __imp_??_7type_info@@6B@   100280f0     corelib1:COREDLL.dll
 0002:000000f4       __imp___C_specific_handler 100280f4     corelib1:COREDLL.dll
 0002:000000f8       __imp_fprintf              100280f8     corelib1:COREDLL.dll
 0002:000000fc       __imp__getstdfilex         100280fc     corelib1:COREDLL.dll
 0002:00000100       __imp_sprintf              10028100     corelib1:COREDLL.dll
 0002:00000104       __imp_strlen               10028104     corelib1:COREDLL.dll
 0002:00000108       __imp__stricmp             10028108     corelib1:COREDLL.dll
 0002:0000010c       __imp_strcpy               1002810c     corelib1:COREDLL.dll
 0002:00000110       __imp_realloc              10028110     corelib1:COREDLL.dll
 0002:00000114       __imp_fclose               10028114     corelib1:COREDLL.dll
 0002:00000118       __imp_ftell                10028118     corelib1:COREDLL.dll
 0002:0000011c       __imp_fseek                1002811c     corelib1:COREDLL.dll
 0002:00000120       __imp_fopen                10028120     corelib1:COREDLL.dll
 0002:00000124       __imp__wfopen              10028124     corelib1:COREDLL.dll
 0002:00000128       __imp__snprintf            10028128     corelib1:COREDLL.dll
 0002:0000012c       __imp___itos               1002812c     corelib1:COREDLL.dll
 0002:00000130       __imp_strchr               10028130     corelib1:COREDLL.dll
 0002:00000134       __imp_strncmp              10028134     corelib1:COREDLL.dll
 0002:00000138       __imp___rt_udiv            10028138     corelib1:COREDLL.dll
 0002:0000013c       __imp_ceil                 1002813c     corelib1:COREDLL.dll
 0002:00000140       __imp___dtou               10028140     corelib1:COREDLL.dll
 0002:00000144       __imp___CxxFrameHandler3   10028144     corelib1:COREDLL.dll
 0002:00000148       __imp_tolower              10028148     corelib1:COREDLL.dll
 0002:0000014c       __imp_sscanf               1002814c     corelib1:COREDLL.dll
 0002:00000150       __imp_strncpy              10028150     corelib1:COREDLL.dll
 0002:00000154       __imp___addd               10028154     corelib1:COREDLL.dll
 0002:00000158       __imp___dtou64             10028158     corelib1:COREDLL.dll
 0002:0000015c       __imp_fflush               1002815c     corelib1:COREDLL.dll
 0002:00000160       __imp___stod               10028160     corelib1:COREDLL.dll
 0002:00000164       __imp_fputs                10028164     corelib1:COREDLL.dll
 0002:00000168       __imp__isctype             10028168     corelib1:COREDLL.dll
 0002:0000016c       __imp_fgetpos              1002816c     corelib1:COREDLL.dll
 0002:00000170       __imp_fsetpos              10028170     corelib1:COREDLL.dll
 0002:00000174       __imp_feof                 10028174     corelib1:COREDLL.dll
 0002:00000178       __imp_fread                10028178     corelib1:COREDLL.dll
 0002:0000017c       __imp_fwrite               1002817c     corelib1:COREDLL.dll
 0002:00000180       __imp___adds               10028180     corelib1:COREDLL.dll
 0002:00000184       __imp___ges                10028184     corelib1:COREDLL.dll
 0002:00000188       __imp___subs               10028188     corelib1:COREDLL.dll
 0002:0000018c       __imp_vprintf              1002818c     corelib1:COREDLL.dll
 0002:00000190       \177COREDLL_NULL_THUNK_DATA 10028190     coredll:COREDLL.dll
 0002:00000194       __imp_htonl                10028194     ws2:WS2.dll
 0002:00000198       \177WS2_NULL_THUNK_DATA    10028198     ws2:WS2.dll
 0002:0000019c       __imp_StringFromGUID2      1002819c     ole32:ole32.dll
 0002:000001a0       __imp_CoInitializeEx       100281a0     ole32:ole32.dll
 0002:000001a4       __imp_CoFreeUnusedLibraries 100281a4     ole32:ole32.dll
 0002:000001a8       __imp_CoUninitialize       100281a8     ole32:ole32.dll
 0002:000001ac       __imp_CoCreateInstance     100281ac     ole32:ole32.dll
 0002:000001b0       __imp_CoTaskMemFree        100281b0     ole32:ole32.dll
 0002:000001b4       __imp_CoTaskMemAlloc       100281b4     ole32:ole32.dll
 0002:000001b8       \177ole32_NULL_THUNK_DATA  100281b8     ole32:ole32.dll
 0002:000001c4       ?g_Templates@@3PAVCFactoryTemplate@@A 100281c4     SsapMp4Parser.obj
 0002:000001d8       ?g_cTemplates@@3HA         100281d8     SsapMp4Parser.obj
 0002:000001fc       ??_R0PAVMP4Error@@@8       100281fc     libmp4v2:mp4.obj
 0002:00000214       ??_R0PAX@8                 10028214     libmp4v2:mp4.obj
 0002:00000224       ?brandsWithIods@@3PAPADA   10028224     libmp4v2:mp4file.obj
 0002:00000590       __security_cookie          10028590     corelib0:seccinit.obj
 0002:00000594       __security_cookie_complement 10028594     corelib0:seccinit.obj
 0002:00000598       ?hlibOLEAut32@@3PAUHINSTANCE__@@A 10028598     strmbase:combase.obj
 0002:0000059c       ?m_cObjects@CBaseObject@@0JA 1002859c     strmbase:combase.obj
 0002:000005b0       ?g_osInfo@@3U_OSVERSIONINFOW@@A 100285b0     strmbase:dllentry.obj
 0002:000006c4       ?g_amPlatform@@3KA         100286c4     strmbase:dllentry.obj
 0002:000006c8       ?g_hInst@@3PAUHINSTANCE__@@A 100286c8     strmbase:dllentry.obj
 0002:000006cc       ?m_cLocked@CClassFactory@@0HA 100286cc     strmbase:dllentry.obj
 0002:000006d0       __@@_PchSym_@00@UbaprjuvUkfyorxUwrivxgcUhwpUhznkovhUwhsldUyzhvxozhhvhUsvzwvwUlyqUzineErUivgzroUhgivznhOlyq@strmbase 100286d0     strmbase:streams.obj
 0002:000006da       _exitflag                  100286da     corelib0:cexit.obj
 0002:000006dc       __onexitend                100286dc     <common>
 0002:000006e0       __onexitbegin              100286e0     <common>
 0002:000006e4       g_pcsExit                  100286e4     <common>
 0002:000006e8       _pRawDllMain               100286e8     <common>

 entry point at        0001:00025554

 Static symbols

 0001:000064b8       num_bits                   100074b8 f   get_videoinfo.obj
 0001:00006750       read_bits                  10007750 f   get_videoinfo.obj
 0001:000067d8       ue_v                       100077d8 f   get_videoinfo.obj
 0001:00007350       ?GetVideoStreamHeader@@YAHPAXIHPAEPAH@Z 10008350 f   fSsapMp4Parser.obj
 0001:00007580       ?GetVideoProfileAndSize@@YAHPAXIHPAH11@Z 10008580 f   fSsapMp4Parser.obj
 0001:0000cd44       ?EnsureThreadPriorityLevels@@YAXXZ 1000dd44 f   strmbase:wxutil.obj
 0001:0001554c       __catch$43565              1001654c f   libmp4v2:mp4property.obj
 0001:0002308c       ?MP4Printf@@YAXPBDZZ       1002408c f   libmp4v2:atom_dref.obj
 0001:00025458       _DllMainCRTStartupHelper   10026458 f   corelib0:pegdmain.obj
 0001:000256e8       doexit                     100266e8 f   corelib0:cexit.obj
